; Listing generated by Microsoft (R) Optimizing Compiler Version 19.27.29111.0 

include listing.inc

INCLUDELIB OLDNAMES

prime8bytes DQ	cf1bbcdcb7a56463H
prime5bytes DQ	000000cf1bbcdcbbH
prime7bytes DQ	00cf1bbcdcbfa563H
prime6bytes DQ	0000cf1bbcdcbf9bH
prime4bytes DD	09e3779b1H
PUBLIC	ZSTD_compressBlock_doubleFast_extDict
PUBLIC	ZSTD_fillDoubleHashTable
PUBLIC	ZSTD_compressBlock_doubleFast_dictMatchState
PUBLIC	ZSTD_compressBlock_doubleFast
pdata	SEGMENT
$pdata$ZSTD_compressBlock_doubleFast_extDict_generic DD imagerel ZSTD_compressBlock_doubleFast_extDict_generic
	DD	imagerel ZSTD_compressBlock_doubleFast_extDict_generic+6280
	DD	imagerel $unwind$ZSTD_compressBlock_doubleFast_extDict_generic
$pdata$ZSTD_compressBlock_doubleFast_generic DD imagerel ZSTD_compressBlock_doubleFast_generic
	DD	imagerel ZSTD_compressBlock_doubleFast_generic+5409
	DD	imagerel $unwind$ZSTD_compressBlock_doubleFast_generic
$pdata$ZSTD_count_2segments DD imagerel ZSTD_count_2segments
	DD	imagerel ZSTD_count_2segments+106
	DD	imagerel $unwind$ZSTD_count_2segments
$pdata$ZSTD_storeSeq DD imagerel ZSTD_storeSeq
	DD	imagerel ZSTD_storeSeq+271
	DD	imagerel $unwind$ZSTD_storeSeq
$pdata$ZSTD_compressBlock_doubleFast_extDict DD imagerel $LN12
	DD	imagerel $LN12+136
	DD	imagerel $unwind$ZSTD_compressBlock_doubleFast_extDict
$pdata$ZSTD_fillDoubleHashTable DD imagerel $LN87
	DD	imagerel $LN87+84
	DD	imagerel $unwind$ZSTD_fillDoubleHashTable
$pdata$1$ZSTD_fillDoubleHashTable DD imagerel $LN87+84
	DD	imagerel $LN87+384
	DD	imagerel $chain$1$ZSTD_fillDoubleHashTable
$pdata$2$ZSTD_fillDoubleHashTable DD imagerel $LN87+384
	DD	imagerel $LN87+397
	DD	imagerel $chain$2$ZSTD_fillDoubleHashTable
$pdata$ZSTD_compressBlock_doubleFast_dictMatchState DD imagerel $LN2691
	DD	imagerel $LN2691+10801
	DD	imagerel $unwind$ZSTD_compressBlock_doubleFast_dictMatchState
$pdata$ZSTD_compressBlock_doubleFast DD imagerel $LN2641
	DD	imagerel $LN2641+7236
	DD	imagerel $unwind$ZSTD_compressBlock_doubleFast
xdata	SEGMENT
$unwind$ZSTD_compressBlock_doubleFast_extDict_generic DD 0b1c01H
	DD	01d341cH
	DD	014011cH
	DD	0e013f015H
	DD	0c00fd011H
	DD	0600c700dH
	DD	0500bH
$unwind$ZSTD_compressBlock_doubleFast_generic DD 0a1d01H
	DD	019011dH
	DD	0e014f016H
	DD	0c010d012H
	DD	0600d700eH
	DD	0300b500cH
$unwind$ZSTD_count_2segments DD 081401H
	DD	086414H
	DD	075414H
	DD	063414H
	DD	070103214H
$unwind$ZSTD_storeSeq DD 020501H
	DD	013405H
$unwind$ZSTD_compressBlock_doubleFast_extDict DD 010401H
	DD	06204H
$unwind$ZSTD_fillDoubleHashTable DD 070d01H
	DD	0f009220dH
	DD	07005e007H
	DD	050036004H
	DD	03002H
$chain$1$ZSTD_fillDoubleHashTable DD 041021H
	DD	02d410H
	DD	0cc405H
	DD	imagerel $LN87
	DD	imagerel $LN87+84
	DD	imagerel $unwind$ZSTD_fillDoubleHashTable
$chain$2$ZSTD_fillDoubleHashTable DD 021H
	DD	imagerel $LN87
	DD	imagerel $LN87+84
	DD	imagerel $unwind$ZSTD_fillDoubleHashTable
$unwind$ZSTD_compressBlock_doubleFast_dictMatchState DD 0b1c01H
	DD	023341cH
	DD	01a011cH
	DD	0e013f015H
	DD	0c00fd011H
	DD	0600c700dH
	DD	0500bH
$unwind$ZSTD_compressBlock_doubleFast DD 0a1c01H
	DD	019341cH
	DD	0f015f21cH
	DD	0d011e013H
	DD	0700dc00fH
	DD	0500b600cH
; Function compile flags: /Ogtpy
; File E:\dev\pyzstd\lib\compress\zstd_double_fast.c
; File E:\dev\pyzstd\lib\compress\zstd_compress_internal.h
; File E:\dev\pyzstd\lib\compress\zstd_double_fast.c
; File E:\dev\pyzstd\lib\compress\zstd_compress_internal.h
; File E:\dev\pyzstd\lib\compress\zstd_double_fast.c
; File E:\dev\pyzstd\lib\compress\zstd_compress_internal.h
; File E:\dev\pyzstd\lib\compress\zstd_double_fast.c
; File E:\dev\pyzstd\lib\compress\zstd_compress_internal.h
; File E:\dev\pyzstd\lib\compress\zstd_double_fast.c
; File E:\dev\pyzstd\lib\compress\zstd_compress_internal.h
; File E:\dev\pyzstd\lib\compress\zstd_double_fast.c
; File E:\dev\pyzstd\lib\compress\zstd_compress_internal.h
; File E:\dev\pyzstd\lib\compress\zstd_double_fast.c
; File E:\dev\pyzstd\lib\compress\zstd_compress_internal.h
; File E:\dev\pyzstd\lib\compress\zstd_double_fast.c
; File E:\dev\pyzstd\lib\compress\zstd_compress_internal.h
; File E:\dev\pyzstd\lib\compress\zstd_double_fast.c
; File E:\dev\pyzstd\lib\compress\zstd_compress_internal.h
; File E:\dev\pyzstd\lib\compress\zstd_double_fast.c
; File E:\dev\pyzstd\lib\compress\zstd_compress_internal.h
; File E:\dev\pyzstd\lib\compress\zstd_double_fast.c
; File E:\dev\pyzstd\lib\compress\zstd_compress_internal.h
; File E:\dev\pyzstd\lib\common\zstd_internal.h
; File E:\dev\pyzstd\lib\compress\zstd_compress_internal.h
; File E:\dev\pyzstd\lib\common\zstd_internal.h
; File E:\dev\pyzstd\lib\compress\zstd_compress_internal.h
; File E:\dev\pyzstd\lib\compress\zstd_double_fast.c
; File E:\dev\pyzstd\lib\compress\zstd_compress_internal.h
; File E:\dev\pyzstd\lib\compress\zstd_double_fast.c
; File E:\dev\pyzstd\lib\compress\zstd_compress_internal.h
; File E:\dev\pyzstd\lib\compress\zstd_double_fast.c
; File E:\dev\pyzstd\lib\compress\zstd_compress_internal.h
; File E:\dev\pyzstd\lib\common\zstd_internal.h
; File E:\dev\pyzstd\lib\compress\zstd_compress_internal.h
; File E:\dev\pyzstd\lib\common\zstd_internal.h
; File E:\dev\pyzstd\lib\compress\zstd_compress_internal.h
; File E:\dev\pyzstd\lib\compress\zstd_double_fast.c
; File E:\dev\pyzstd\lib\compress\zstd_compress_internal.h
; File E:\dev\pyzstd\lib\common\zstd_internal.h
; File E:\dev\pyzstd\lib\compress\zstd_compress_internal.h
; File E:\dev\pyzstd\lib\compress\zstd_double_fast.c
; File E:\dev\pyzstd\lib\compress\zstd_compress_internal.h
; File E:\dev\pyzstd\lib\compress\zstd_double_fast.c
; File E:\dev\pyzstd\lib\compress\zstd_compress_internal.h
; File E:\dev\pyzstd\lib\compress\zstd_double_fast.c
; File E:\dev\pyzstd\lib\compress\zstd_compress_internal.h
; File E:\dev\pyzstd\lib\compress\zstd_double_fast.c
; File E:\dev\pyzstd\lib\compress\zstd_compress_internal.h
; File E:\dev\pyzstd\lib\compress\zstd_double_fast.c
; File E:\dev\pyzstd\lib\compress\zstd_compress_internal.h
; File E:\dev\pyzstd\lib\compress\zstd_double_fast.c
; File E:\dev\pyzstd\lib\compress\zstd_compress_internal.h
; File E:\dev\pyzstd\lib\compress\zstd_double_fast.c
; File E:\dev\pyzstd\lib\compress\zstd_compress_internal.h
; File E:\dev\pyzstd\lib\compress\zstd_double_fast.c
; File E:\dev\pyzstd\lib\compress\zstd_compress_internal.h
; File E:\dev\pyzstd\lib\compress\zstd_double_fast.c
; File E:\dev\pyzstd\lib\compress\zstd_compress_internal.h
; File E:\dev\pyzstd\lib\compress\zstd_double_fast.c
; File E:\dev\pyzstd\lib\compress\zstd_compress_internal.h
; File E:\dev\pyzstd\lib\compress\zstd_double_fast.c
; File E:\dev\pyzstd\lib\compress\zstd_compress_internal.h
; File E:\dev\pyzstd\lib\common\zstd_internal.h
; File E:\dev\pyzstd\lib\compress\zstd_compress_internal.h
; File E:\dev\pyzstd\lib\common\zstd_internal.h
; File E:\dev\pyzstd\lib\compress\zstd_compress_internal.h
; File E:\dev\pyzstd\lib\compress\zstd_double_fast.c
; File E:\dev\pyzstd\lib\compress\zstd_compress_internal.h
; File E:\dev\pyzstd\lib\compress\zstd_double_fast.c
; File E:\dev\pyzstd\lib\compress\zstd_compress_internal.h
; File E:\dev\pyzstd\lib\compress\zstd_double_fast.c
; File E:\dev\pyzstd\lib\compress\zstd_compress_internal.h
; File E:\dev\pyzstd\lib\common\zstd_internal.h
; File E:\dev\pyzstd\lib\compress\zstd_compress_internal.h
; File E:\dev\pyzstd\lib\common\zstd_internal.h
; File E:\dev\pyzstd\lib\compress\zstd_compress_internal.h
; File E:\dev\pyzstd\lib\compress\zstd_double_fast.c
; File E:\dev\pyzstd\lib\compress\zstd_compress_internal.h
; File E:\dev\pyzstd\lib\common\zstd_internal.h
; File E:\dev\pyzstd\lib\compress\zstd_compress_internal.h
; File E:\dev\pyzstd\lib\compress\zstd_double_fast.c
; File E:\dev\pyzstd\lib\compress\zstd_compress_internal.h
; File E:\dev\pyzstd\lib\compress\zstd_double_fast.c
; File E:\dev\pyzstd\lib\compress\zstd_compress_internal.h
; File E:\dev\pyzstd\lib\compress\zstd_double_fast.c
; File E:\dev\pyzstd\lib\compress\zstd_compress_internal.h
; File E:\dev\pyzstd\lib\compress\zstd_double_fast.c
; File E:\dev\pyzstd\lib\compress\zstd_compress_internal.h
; File E:\dev\pyzstd\lib\compress\zstd_double_fast.c
; File E:\dev\pyzstd\lib\compress\zstd_compress_internal.h
; File E:\dev\pyzstd\lib\compress\zstd_double_fast.c
; File E:\dev\pyzstd\lib\compress\zstd_compress_internal.h
; File E:\dev\pyzstd\lib\compress\zstd_double_fast.c
; File E:\dev\pyzstd\lib\compress\zstd_compress_internal.h
; File E:\dev\pyzstd\lib\compress\zstd_double_fast.c
; File E:\dev\pyzstd\lib\compress\zstd_compress_internal.h
; File E:\dev\pyzstd\lib\compress\zstd_double_fast.c
; File E:\dev\pyzstd\lib\compress\zstd_compress_internal.h
; File E:\dev\pyzstd\lib\compress\zstd_double_fast.c
; File E:\dev\pyzstd\lib\compress\zstd_compress_internal.h
; File E:\dev\pyzstd\lib\compress\zstd_double_fast.c
; File E:\dev\pyzstd\lib\compress\zstd_compress_internal.h
; File E:\dev\pyzstd\lib\compress\zstd_double_fast.c
; File E:\dev\pyzstd\lib\compress\zstd_compress_internal.h
; File E:\dev\pyzstd\lib\common\zstd_internal.h
; File E:\dev\pyzstd\lib\compress\zstd_compress_internal.h
; File E:\dev\pyzstd\lib\common\zstd_internal.h
; File E:\dev\pyzstd\lib\compress\zstd_compress_internal.h
; File E:\dev\pyzstd\lib\compress\zstd_double_fast.c
; File E:\dev\pyzstd\lib\compress\zstd_compress_internal.h
; File E:\dev\pyzstd\lib\compress\zstd_double_fast.c
; File E:\dev\pyzstd\lib\compress\zstd_compress_internal.h
; File E:\dev\pyzstd\lib\compress\zstd_double_fast.c
; File E:\dev\pyzstd\lib\compress\zstd_compress_internal.h
; File E:\dev\pyzstd\lib\common\zstd_internal.h
; File E:\dev\pyzstd\lib\compress\zstd_compress_internal.h
; File E:\dev\pyzstd\lib\common\zstd_internal.h
; File E:\dev\pyzstd\lib\compress\zstd_compress_internal.h
; File E:\dev\pyzstd\lib\compress\zstd_double_fast.c
; File E:\dev\pyzstd\lib\compress\zstd_compress_internal.h
; File E:\dev\pyzstd\lib\common\zstd_internal.h
; File E:\dev\pyzstd\lib\compress\zstd_compress_internal.h
; File E:\dev\pyzstd\lib\compress\zstd_double_fast.c
; File E:\dev\pyzstd\lib\compress\zstd_compress_internal.h
; File E:\dev\pyzstd\lib\compress\zstd_double_fast.c
; File E:\dev\pyzstd\lib\compress\zstd_compress_internal.h
; File E:\dev\pyzstd\lib\compress\zstd_double_fast.c
; File E:\dev\pyzstd\lib\compress\zstd_compress_internal.h
; File E:\dev\pyzstd\lib\compress\zstd_double_fast.c
; File E:\dev\pyzstd\lib\compress\zstd_compress_internal.h
; File E:\dev\pyzstd\lib\compress\zstd_double_fast.c
; File E:\dev\pyzstd\lib\compress\zstd_compress_internal.h
; File E:\dev\pyzstd\lib\compress\zstd_double_fast.c
; File E:\dev\pyzstd\lib\compress\zstd_compress_internal.h
; File E:\dev\pyzstd\lib\compress\zstd_double_fast.c
; File E:\dev\pyzstd\lib\compress\zstd_compress_internal.h
; File E:\dev\pyzstd\lib\compress\zstd_double_fast.c
; File E:\dev\pyzstd\lib\compress\zstd_compress_internal.h
; File E:\dev\pyzstd\lib\compress\zstd_double_fast.c
; File E:\dev\pyzstd\lib\compress\zstd_compress_internal.h
; File E:\dev\pyzstd\lib\compress\zstd_double_fast.c
; File E:\dev\pyzstd\lib\compress\zstd_compress_internal.h
; File E:\dev\pyzstd\lib\compress\zstd_double_fast.c
; File E:\dev\pyzstd\lib\compress\zstd_compress_internal.h
; File E:\dev\pyzstd\lib\compress\zstd_double_fast.c
; File E:\dev\pyzstd\lib\compress\zstd_compress_internal.h
; File E:\dev\pyzstd\lib\common\zstd_internal.h
; File E:\dev\pyzstd\lib\compress\zstd_compress_internal.h
; File E:\dev\pyzstd\lib\common\zstd_internal.h
; File E:\dev\pyzstd\lib\compress\zstd_compress_internal.h
; File E:\dev\pyzstd\lib\compress\zstd_double_fast.c
; File E:\dev\pyzstd\lib\compress\zstd_compress_internal.h
; File E:\dev\pyzstd\lib\compress\zstd_double_fast.c
; File E:\dev\pyzstd\lib\compress\zstd_compress_internal.h
; File E:\dev\pyzstd\lib\compress\zstd_double_fast.c
; File E:\dev\pyzstd\lib\compress\zstd_compress_internal.h
; File E:\dev\pyzstd\lib\common\zstd_internal.h
; File E:\dev\pyzstd\lib\compress\zstd_compress_internal.h
; File E:\dev\pyzstd\lib\common\zstd_internal.h
; File E:\dev\pyzstd\lib\compress\zstd_compress_internal.h
; File E:\dev\pyzstd\lib\compress\zstd_double_fast.c
; File E:\dev\pyzstd\lib\compress\zstd_compress_internal.h
; File E:\dev\pyzstd\lib\common\zstd_internal.h
; File E:\dev\pyzstd\lib\compress\zstd_compress_internal.h
; File E:\dev\pyzstd\lib\compress\zstd_double_fast.c
; File E:\dev\pyzstd\lib\compress\zstd_compress_internal.h
; File E:\dev\pyzstd\lib\compress\zstd_double_fast.c
_TEXT	SEGMENT
hBitsL$1$ = 32
hBitsL$1$ = 32
hBitsL$1$ = 32
offset_2$1$ = 32
offset_2$1$ = 36
offset_2$1$ = 36
offset_2$1$ = 36
hBitsL$1$ = 36
hBitsS$1$ = 40
hBitsS$1$ = 40
hBitsS$1$ = 40
hBitsS$1$ = 40
offset$1$ = 44
offset$1$ = 44
offset$1$ = 44
offset$1$ = 44
iend$1$ = 48
current$1$ = 56
current$1$ = 56
current$1$ = 56
prefixLowestIndex$1$ = 56
prefixLowestIndex$1$ = 60
prefixLowestIndex$1$ = 60
prefixLowestIndex$1$ = 60
current$1$ = 60
hashLong$1$ = 64
base$1$ = 72
base$1$ = 72
base$1$ = 72
base$1$ = 72
litLimit_w$1$ = 80
litLength$1$ = 80
litLimit_w$1$ = 80
litLength$1$ = 80
litLimit_w$1$ = 80
litLength$1$ = 80
litLimit_w$1$ = 80
litLength$1$ = 80
tv11909 = 88
tv11781 = 88
tv11653 = 88
tv11524 = 88
ilimit$1$ = 96
ilimit$1$ = 96
ilimit$1$ = 96
prefixLowest$1$ = 96
hashSmall$1$ = 104
hashSmall$1$ = 104
hashSmall$1$ = 104
hashSmall$1$ = 104
prefixLowest$1$ = 112
prefixLowest$1$ = 112
prefixLowest$1$ = 112
ilimit$1$ = 112
offset_1$1$ = 192
offset_1$1$ = 192
offset_1$1$ = 192
offset_1$1$ = 192
ms$ = 192
seqStore$ = 200
rep$ = 208
src$ = 216
srcSize$ = 224
ZSTD_compressBlock_doubleFast PROC

; 322  : {

$LN2641:
	mov	QWORD PTR [rsp+16], rbx
	mov	QWORD PTR [rsp+24], r8
	push	rbp
	push	rsi
	push	rdi
	push	r12
	push	r13
	push	r14
	push	r15
	sub	rsp, 128				; 00000080H
	mov	r12, r8
	mov	r15, r9
	mov	rbx, rdx

; 323  :     const U32 mls = ms->cParams.minMatch;
; 324  :     switch(mls)

	mov	r8d, r15d
	mov	rdx, rcx
	mov	r10d, 1
	mov	rcx, QWORD PTR srcSize$[rsp]
	mov	r11d, DWORD PTR [r12]
	mov	rax, QWORD PTR [rdx+48]
	mov	rbp, QWORD PTR [rdx+8]
	lea	rsi, QWORD PTR [r9+rcx]
	mov	r14d, DWORD PTR [rdx+192]
	mov	edi, DWORD PTR [rdx+24]
	mov	r9d, DWORD PTR [rdx+32]
	mov	QWORD PTR hashLong$1$[rsp], rax
	mov	eax, DWORD PTR [rdx+200]
	mov	QWORD PTR iend$1$[rsp], rsi
	mov	QWORD PTR base$1$[rsp], rbp
	sub	eax, 5
	je	$LN5@ZSTD_compr
	sub	eax, r10d
	je	$LN6@ZSTD_compr
	sub	r8d, ebp
	add	r8d, ecx
	mov	ecx, DWORD PTR [rdx+184]
	shl	r10d, cl
	cmp	eax, 1
	mov	rax, QWORD PTR [rdx+64]
	mov	QWORD PTR hashSmall$1$[rsp], rax
	mov	eax, DWORD PTR [rdx+188]
	mov	DWORD PTR hBitsS$1$[rsp], eax
	mov	eax, r8d
	je	$LN7@ZSTD_compr
; File E:\dev\pyzstd\lib\compress\zstd_compress_internal.h

; 993  :     U32    const withinWindow = (current - lowestValid > maxDistance) ? current - maxDistance : lowestValid;

	sub	eax, edi
; File E:\dev\pyzstd\lib\compress\zstd_double_fast.c

; 58   :     const U32 hBitsL = cParams->hashLog;

	mov	DWORD PTR hBitsL$1$[rsp], r14d
; File E:\dev\pyzstd\lib\compress\zstd_compress_internal.h

; 994  :     U32    const isDictionary = (ms->loadedDictEnd != 0);

	sub	r8d, r10d
	cmp	eax, r10d
; File E:\dev\pyzstd\lib\compress\zstd_double_fast.c

; 70   :     const BYTE* const ilimit = iend - HASH_READ_SIZE;

	lea	rax, QWORD PTR [rsi-8]
	mov	QWORD PTR ilimit$1$[rsp], rax
; File E:\dev\pyzstd\lib\compress\zstd_compress_internal.h

; 994  :     U32    const isDictionary = (ms->loadedDictEnd != 0);

	cmovbe	r8d, edi
	test	r9d, r9d

; 995  :     U32    const matchLowest = isDictionary ? lowestValid : withinWindow;

	cmovne	r8d, edi
; File E:\dev\pyzstd\lib\compress\zstd_double_fast.c

; 68   :     const BYTE* const prefixLowest = base + prefixLowestIndex;

	mov	ecx, r8d
	add	rcx, rbp
; File E:\dev\pyzstd\lib\compress\zstd_compress_internal.h

; 995  :     U32    const matchLowest = isDictionary ? lowestValid : withinWindow;

	mov	DWORD PTR prefixLowestIndex$1$[rsp], r8d
; File E:\dev\pyzstd\lib\compress\zstd_double_fast.c

; 71   :     U32 offset_1=rep[0], offset_2=rep[1];

	mov	r8d, DWORD PTR [r12+4]

; 72   :     U32 offsetSaved = 0;
; 73   : 
; 74   :     const ZSTD_matchState_t* const dms = ms->dictMatchState;
; 75   :     const ZSTD_compressionParameters* const dictCParams =
; 76   :                                      dictMode == ZSTD_dictMatchState ?
; 77   :                                      &dms->cParams : NULL;
; 78   :     const U32* const dictHashLong  = dictMode == ZSTD_dictMatchState ?
; 79   :                                      dms->hashTable : NULL;
; 80   :     const U32* const dictHashSmall = dictMode == ZSTD_dictMatchState ?
; 81   :                                      dms->chainTable : NULL;
; 82   :     const U32 dictStartIndex       = dictMode == ZSTD_dictMatchState ?
; 83   :                                      dms->window.dictLimit : 0;
; 84   :     const BYTE* const dictBase     = dictMode == ZSTD_dictMatchState ?
; 85   :                                      dms->window.base : NULL;
; 86   :     const BYTE* const dictStart    = dictMode == ZSTD_dictMatchState ?
; 87   :                                      dictBase + dictStartIndex : NULL;
; 88   :     const BYTE* const dictEnd      = dictMode == ZSTD_dictMatchState ?
; 89   :                                      dms->window.nextSrc : NULL;
; 90   :     const U32 dictIndexDelta       = dictMode == ZSTD_dictMatchState ?
; 91   :                                      prefixLowestIndex - (U32)(dictEnd - dictBase) :
; 92   :                                      0;
; 93   :     const U32 dictHBitsL           = dictMode == ZSTD_dictMatchState ?
; 94   :                                      dictCParams->hashLog : hBitsL;
; 95   :     const U32 dictHBitsS           = dictMode == ZSTD_dictMatchState ?
; 96   :                                      dictCParams->chainLog : hBitsS;
; 97   :     const U32 dictAndPrefixLength  = (U32)((ip - prefixLowest) + (dictEnd - dictStart));
; 98   : 
; 99   :     DEBUGLOG(5, "ZSTD_compressBlock_doubleFast_generic");
; 100  : 
; 101  :     assert(dictMode == ZSTD_noDict || dictMode == ZSTD_dictMatchState);
; 102  : 
; 103  :     /* if a dictionary is attached, it must be within window range */
; 104  :     if (dictMode == ZSTD_dictMatchState) {
; 105  :         assert(ms->window.dictLimit + (1U << cParams->windowLog) >= endIndex);
; 106  :     }
; 107  : 
; 108  :     /* init */
; 109  :     ip += (dictAndPrefixLength == 0);

	xor	r12d, r12d
	cmp	r15d, ecx
	mov	QWORD PTR prefixLowest$1$[rsp], rcx
	mov	eax, r12d
	sete	al
	lea	r13, QWORD PTR [rax+r15]

; 110  :     if (dictMode == ZSTD_noDict) {
; 111  :         U32 const current = (U32)(ip - base);

	mov	edx, r13d
	sub	edx, ebp

; 114  :         if (offset_2 > maxRep) offsetSaved = offset_2, offset_2 = 0;
; 115  :         if (offset_1 > maxRep) offsetSaved = offset_1, offset_1 = 0;

	mov	ebp, r12d
; File E:\dev\pyzstd\lib\compress\zstd_compress_internal.h

; 993  :     U32    const withinWindow = (current - lowestValid > maxDistance) ? current - maxDistance : lowestValid;

	mov	eax, edx

; 994  :     U32    const isDictionary = (ms->loadedDictEnd != 0);

	mov	ecx, edx
	sub	ecx, r10d
	sub	eax, edi
	cmp	eax, r10d
; File E:\dev\pyzstd\lib\compress\zstd_double_fast.c

; 125  :     while (ip < ilimit) {   /* < instead of <=, because repcode check at (ip+1) */

	mov	r10d, r12d
	lea	rax, QWORD PTR [rsi-8]
; File E:\dev\pyzstd\lib\compress\zstd_compress_internal.h

; 994  :     U32    const isDictionary = (ms->loadedDictEnd != 0);

	cmovbe	ecx, edi
	test	r9d, r9d
; File E:\dev\pyzstd\lib\compress\zstd_double_fast.c

; 125  :     while (ip < ilimit) {   /* < instead of <=, because repcode check at (ip+1) */

	mov	r9d, r11d
; File E:\dev\pyzstd\lib\compress\zstd_compress_internal.h

; 995  :     U32    const matchLowest = isDictionary ? lowestValid : withinWindow;

	cmovne	ecx, edi
; File E:\dev\pyzstd\lib\compress\zstd_double_fast.c

; 113  :         U32 const maxRep = current - windowLow;

	sub	edx, ecx

; 114  :         if (offset_2 > maxRep) offsetSaved = offset_2, offset_2 = 0;
; 115  :         if (offset_1 > maxRep) offsetSaved = offset_1, offset_1 = 0;

	cmp	r8d, edx
	cmovbe	ebp, r8d
	cmovbe	r8d, r12d

; 125  :     while (ip < ilimit) {   /* < instead of <=, because repcode check at (ip+1) */

	cmp	r11d, edx
	cmovbe	r9d, r8d
	cmovbe	r10d, r11d
	mov	DWORD PTR tv11524[rsp], r9d
	cmp	r13, rax
	jae	$LN11@ZSTD_compr
; File E:\dev\pyzstd\lib\compress\zstd_compress_internal.h

; 485  :         seqStorePtr->longLengthPos = (U32)(seqStorePtr->sequences - seqStorePtr->sequencesStart);

	mov	DWORD PTR offset_2$1$[rsp], ebp
	mov	DWORD PTR offset_1$1$[rsp], r10d
	npad	5
$LL10@ZSTD_compr:
; File E:\dev\pyzstd\lib\compress\zstd_double_fast.c

; 128  :         size_t const h2 = ZSTD_hashPtr(ip, hBitsL, 8);

	mov	r8d, 8
	mov	edx, r14d
	mov	rcx, r13
	call	ZSTD_hashPtr

; 129  :         size_t const h = ZSTD_hashPtr(ip, hBitsS, mls);

	mov	edx, DWORD PTR hBitsS$1$[rsp]
	mov	r8d, 4
	mov	rcx, r13
	mov	rsi, rax
	call	ZSTD_hashPtr

; 130  :         size_t const dictHL = ZSTD_hashPtr(ip, dictHBitsL, 8);

	mov	r8d, 8
	mov	edx, r14d
	mov	rcx, r13
	mov	rdi, rax
	call	ZSTD_hashPtr

; 131  :         size_t const dictHS = ZSTD_hashPtr(ip, dictHBitsS, mls);

	mov	edx, DWORD PTR hBitsS$1$[rsp]
	mov	r8d, 4
	mov	rcx, r13
	call	ZSTD_hashPtr

; 132  :         U32 const current = (U32)(ip-base);

	mov	rdx, QWORD PTR base$1$[rsp]
	mov	ecx, r13d

; 133  :         U32 const matchIndexL = hashLong[h2];
; 134  :         U32 matchIndexS = hashSmall[h];

	mov	r10, QWORD PTR hashSmall$1$[rsp]
	sub	ecx, edx
	mov	r11, QWORD PTR hashLong$1$[rsp]
	mov	DWORD PTR current$1$[rsp], ecx
	mov	r9d, DWORD PTR [r10+rdi*4]
	mov	r8d, DWORD PTR [r11+rsi*4]

; 135  :         const BYTE* matchLong = base + matchIndexL;
; 136  :         const BYTE* match = base + matchIndexS;
; 137  :         const U32 repIndex = current + 1 - offset_1;
; 138  :         const BYTE* repMatch = (dictMode == ZSTD_dictMatchState
; 139  :                             && repIndex < prefixLowestIndex) ?
; 140  :                                dictBase + (repIndex - dictIndexDelta) :
; 141  :                                base + repIndex;
; 142  :         hashLong[h2] = hashSmall[h] = current;   /* update hash tables */

	mov	DWORD PTR [r10+rdi*4], ecx

; 143  : 
; 144  :         /* check dictMatchState repcode */
; 145  :         if (dictMode == ZSTD_dictMatchState
; 146  :             && ((U32)((prefixLowestIndex-1) - repIndex) >= 3 /* intentional underflow */)
; 147  :             && (MEM_read32(repMatch) == MEM_read32(ip+1)) ) {
; 148  :             const BYTE* repMatchEnd = repIndex < prefixLowestIndex ? dictEnd : iend;
; 149  :             mLength = ZSTD_count_2segments(ip+1+4, repMatch+4, iend, repMatchEnd, prefixLowest) + 4;
; 150  :             ip++;
; 151  :             ZSTD_storeSeq(seqStore, (size_t)(ip-anchor), anchor, iend, 0, mLength-MINMATCH);
; 152  :             goto _match_stored;
; 153  :         }
; 154  : 
; 155  :         /* check noDict repcode */
; 156  :         if ( dictMode == ZSTD_noDict
; 157  :           && ((offset_1 > 0) & (MEM_read32(ip+1-offset_1) == MEM_read32(ip+1)))) {

	mov	r10d, DWORD PTR offset_1$1$[rsp]
	mov	DWORD PTR [r11+rsi*4], ecx
	lea	rbp, QWORD PTR [rdx+r9]
	mov	eax, DWORD PTR [r13+1]
	lea	r14, QWORD PTR [rdx+r8]
	lea	rsi, QWORD PTR [r13+1]
	mov	ecx, r12d
	mov	rdx, r13
	mov	QWORD PTR litLength$1$[rsp], rsi
	sub	rdx, r10
	cmp	DWORD PTR [rdx+1], eax
	mov	eax, r12d
	sete	cl
	test	r10d, r10d
	setne	al
	test	ecx, eax
	je	$LN34@ZSTD_compr

; 158  :             mLength = ZSTD_count(ip+1+4, ip+1+4-offset_1, iend) + 4;

	mov	rbp, QWORD PTR iend$1$[rsp]
	lea	rcx, QWORD PTR [r13+5]
	mov	r8, rbp
	add	rdx, 5
	call	ZSTD_count
; File E:\dev\pyzstd\lib\compress\zstd_compress_internal.h

; 442  :     BYTE const* const litEnd = literals + litLength;

	mov	rcx, QWORD PTR [rbx+24]
	add	rbp, -32				; ffffffffffffffe0H
; File E:\dev\pyzstd\lib\compress\zstd_double_fast.c

; 159  :             ip++;

	mov	r13, rsi
; File E:\dev\pyzstd\lib\compress\zstd_compress_internal.h

; 441  :     BYTE const* const litLimit_w = litLimit - WILDCOPY_OVERLENGTH;

	mov	QWORD PTR litLimit_w$1$[rsp], rbp
; File E:\dev\pyzstd\lib\compress\zstd_double_fast.c

; 160  :             ZSTD_storeSeq(seqStore, (size_t)(ip-anchor), anchor, iend, 0, mLength-MINMATCH);

	sub	rsi, r15
	lea	rdi, QWORD PTR [rax+4]
	lea	r14, QWORD PTR [rdi-3]
; File E:\dev\pyzstd\lib\compress\zstd_compress_internal.h

; 442  :     BYTE const* const litEnd = literals + litLength;

	lea	r8, QWORD PTR [rsi+r15]

; 443  : #if defined(DEBUGLEVEL) && (DEBUGLEVEL >= 6)
; 444  :     static const BYTE* g_start = NULL;
; 445  :     if (g_start==NULL) g_start = (const BYTE*)literals;  /* note : index only works for compression within a single segment */
; 446  :     {   U32 const pos = (U32)((const BYTE*)literals - g_start);
; 447  :         DEBUGLOG(6, "Cpos%7u :%3u literals, match%4u bytes at offCode%7u",
; 448  :                pos, (U32)litLength, (U32)mlBase+MINMATCH, (U32)offCode);
; 449  :     }
; 450  : #endif
; 451  :     assert((size_t)(seqStorePtr->sequences - seqStorePtr->sequencesStart) < seqStorePtr->maxNbSeq);
; 452  :     /* copy Literals */
; 453  :     assert(seqStorePtr->maxNbLit <= 128 KB);
; 454  :     assert(seqStorePtr->lit + litLength <= seqStorePtr->litStart + seqStorePtr->maxNbLit);
; 455  :     assert(literals + litLength <= litLimit);
; 456  :     if (litEnd <= litLimit_w) {

	cmp	r8, rbp
	ja	SHORT $LN360@ZSTD_compr
; File E:\dev\pyzstd\lib\common\zstd_internal.h

; 243  :     memcpy(dst, src, 16);

	movups	xmm0, XMMWORD PTR [r15]
	movups	XMMWORD PTR [rcx], xmm0
; File E:\dev\pyzstd\lib\compress\zstd_compress_internal.h

; 462  :         if (litLength > 16) {

	cmp	rsi, 16
	jbe	SHORT $LN361@ZSTD_compr

; 463  :             ZSTD_wildcopy(seqStorePtr->lit+16, literals+16, (ptrdiff_t)litLength-16, ZSTD_no_overlap);

	mov	rax, QWORD PTR [rbx+24]
	add	r15, 16
	add	rax, 16
; File E:\dev\pyzstd\lib\common\zstd_internal.h

; 270  :     BYTE* const oend = op + length;

	lea	rcx, QWORD PTR [rax-16]
	add	rcx, rsi
	npad	6
$LL374@ZSTD_compr:

; 243  :     memcpy(dst, src, 16);

	movups	xmm0, XMMWORD PTR [r15]

; 289  :             COPY16(op, ip);

	lea	r15, QWORD PTR [r15+16]

; 243  :     memcpy(dst, src, 16);

	movups	XMMWORD PTR [rax], xmm0

; 289  :             COPY16(op, ip);

	add	rax, 16

; 290  :         }
; 291  :         while (op < oend);

	cmp	rax, rcx
	jb	SHORT $LL374@ZSTD_compr
; File E:\dev\pyzstd\lib\compress\zstd_compress_internal.h

; 465  :     } else {

	jmp	SHORT $LN361@ZSTD_compr
$LN360@ZSTD_compr:

; 466  :         ZSTD_safecopyLiterals(seqStorePtr->lit, literals, litEnd, litLimit_w);

	mov	r9, rbp
	mov	rdx, r15
	call	ZSTD_safecopyLiterals
$LN361@ZSTD_compr:

; 467  :     }
; 468  :     seqStorePtr->lit += litLength;

	add	QWORD PTR [rbx+24], rsi
	mov	rcx, QWORD PTR [rbx+8]

; 469  : 
; 470  :     /* literal Length */
; 471  :     if (litLength>0xFFFF) {

	cmp	rsi, 65535				; 0000ffffH
	jbe	SHORT $LN2566@ZSTD_compr

; 472  :         assert(seqStorePtr->longLengthID == 0); /* there can only be a single long length */
; 473  :         seqStorePtr->longLengthID = 1;
; 474  :         seqStorePtr->longLengthPos = (U32)(seqStorePtr->sequences - seqStorePtr->sequencesStart);

	mov	rax, rcx
	mov	DWORD PTR [rbx+72], 1
	sub	rax, QWORD PTR [rbx]
	sar	rax, 3
	mov	DWORD PTR [rbx+76], eax
$LN2566@ZSTD_compr:

; 475  :     }
; 476  :     seqStorePtr->sequences[0].litLength = (U16)litLength;

	mov	WORD PTR [rcx+4], si

; 477  : 
; 478  :     /* match offset */
; 479  :     seqStorePtr->sequences[0].offset = offCode + 1;

	mov	rax, QWORD PTR [rbx+8]
	mov	DWORD PTR [rax], 1
; File E:\dev\pyzstd\lib\compress\zstd_double_fast.c

; 161  :             goto _match_stored;

	jmp	$LN2628@ZSTD_compr
$LN34@ZSTD_compr:

; 162  :         }
; 163  : 
; 164  :         if (matchIndexL > prefixLowestIndex) {

	mov	ecx, DWORD PTR prefixLowestIndex$1$[rsp]
	cmp	r8d, ecx
	jbe	$LN37@ZSTD_compr

; 165  :             /* check prefix long match */
; 166  :             if (MEM_read64(matchLong) == MEM_read64(ip)) {

	mov	rax, QWORD PTR [r13]
	cmp	QWORD PTR [r14], rax
	jne	SHORT $LN37@ZSTD_compr

; 167  :                 mLength = ZSTD_count(ip+8, matchLong+8, iend) + 8;

	mov	r8, QWORD PTR iend$1$[rsp]
	lea	rdx, QWORD PTR [r14+8]
	lea	rcx, QWORD PTR [r13+8]
	call	ZSTD_count

; 168  :                 offset = (U32)(ip-matchLong);
; 169  :                 while (((ip>anchor) & (matchLong>prefixLowest)) && (ip[-1] == matchLong[-1])) { ip--; matchLong--; mLength++; } /* catch up */

	mov	r8, QWORD PTR prefixLowest$1$[rsp]
	mov	ecx, r12d
	mov	r9d, r13d
	sub	r9d, r14d
	cmp	r14, r8
	mov	DWORD PTR offset$1$[rsp], r9d
	lea	rdi, QWORD PTR [rax+8]
	mov	eax, r12d
	seta	cl
	cmp	r13, r15
	seta	al
	test	ecx, eax
	je	$_match_found$2642
	npad	1
$LL12@ZSTD_compr:
	movzx	eax, BYTE PTR [r14-1]
	lea	rdx, QWORD PTR [r13-1]
	dec	r14
	cmp	BYTE PTR [rdx], al
	jne	$_match_found$2642
	inc	rdi
	mov	ecx, r12d
	cmp	r14, r8
	mov	eax, r12d
	mov	r13, rdx
	seta	cl
	cmp	rdx, r15
	seta	al
	test	ecx, eax
	jne	SHORT $LL12@ZSTD_compr

; 170  :                 goto _match_found;

	jmp	$_match_found$2642
$LN37@ZSTD_compr:

; 171  :             }
; 172  :         } else if (dictMode == ZSTD_dictMatchState) {
; 173  :             /* check dictMatchState long match */
; 174  :             U32 const dictMatchIndexL = dictHashLong[dictHL];
; 175  :             const BYTE* dictMatchL = dictBase + dictMatchIndexL;
; 176  :             assert(dictMatchL < dictEnd);
; 177  : 
; 178  :             if (dictMatchL > dictStart && MEM_read64(dictMatchL) == MEM_read64(ip)) {
; 179  :                 mLength = ZSTD_count_2segments(ip+8, dictMatchL+8, iend, dictEnd, prefixLowest) + 8;
; 180  :                 offset = (U32)(current - dictMatchIndexL - dictIndexDelta);
; 181  :                 while (((ip>anchor) & (dictMatchL>dictStart)) && (ip[-1] == dictMatchL[-1])) { ip--; dictMatchL--; mLength++; } /* catch up */
; 182  :                 goto _match_found;
; 183  :         }   }
; 184  : 
; 185  :         if (matchIndexS > prefixLowestIndex) {

	cmp	r9d, ecx
	jbe	$LN42@ZSTD_compr

; 186  :             /* check prefix short match */
; 187  :             if (MEM_read32(match) == MEM_read32(ip)) {

	mov	eax, DWORD PTR [r13]
	cmp	DWORD PTR [rbp], eax
	jne	$LN42@ZSTD_compr
$_search_next_long$2643:

; 201  : #if defined(__aarch64__)
; 202  :         PREFETCH_L1(ip+256);
; 203  : #endif
; 204  :         continue;
; 205  : 
; 206  : _search_next_long:
; 207  : 
; 208  :         {   size_t const hl3 = ZSTD_hashPtr(ip+1, hBitsL, 8);

	mov	edx, DWORD PTR hBitsL$1$[rsp]
	mov	r8d, 8
	mov	rcx, rsi
	call	ZSTD_hashPtr

; 209  :             size_t const dictHLNext = ZSTD_hashPtr(ip+1, dictHBitsL, 8);

	mov	edx, DWORD PTR hBitsL$1$[rsp]
	mov	r8d, 8
	mov	rcx, rsi
	mov	rdi, rax
	call	ZSTD_hashPtr

; 210  :             U32 const matchIndexL3 = hashLong[hl3];

	mov	r8, QWORD PTR hashLong$1$[rsp]

; 211  :             const BYTE* matchL3 = base + matchIndexL3;
; 212  :             hashLong[hl3] = current + 1;

	mov	eax, DWORD PTR current$1$[rsp]
	mov	ecx, DWORD PTR [r8+rdi*4]
	mov	esi, ecx
	add	rsi, QWORD PTR base$1$[rsp]
	inc	eax
	mov	DWORD PTR [r8+rdi*4], eax

; 213  : 
; 214  :             /* check prefix long +1 match */
; 215  :             if (matchIndexL3 > prefixLowestIndex) {

	cmp	ecx, DWORD PTR prefixLowestIndex$1$[rsp]
	jbe	$LN47@ZSTD_compr

; 216  :                 if (MEM_read64(matchL3) == MEM_read64(ip+1)) {

	mov	r14, QWORD PTR litLength$1$[rsp]
	mov	rax, QWORD PTR [r14]
	cmp	QWORD PTR [rsi], rax
	jne	SHORT $LN47@ZSTD_compr

; 217  :                     mLength = ZSTD_count(ip+9, matchL3+8, iend) + 8;

	mov	r8, QWORD PTR iend$1$[rsp]
	lea	rdx, QWORD PTR [rsi+8]
	lea	rcx, QWORD PTR [r13+9]
	call	ZSTD_count

; 218  :                     ip++;
; 219  :                     offset = (U32)(ip-matchL3);
; 220  :                     while (((ip>anchor) & (matchL3>prefixLowest)) && (ip[-1] == matchL3[-1])) { ip--; matchL3--; mLength++; } /* catch up */

	mov	r8, QWORD PTR prefixLowest$1$[rsp]
	mov	ecx, r12d
	mov	r9d, r14d
	mov	r13, r14
	sub	r9d, esi
	cmp	r14, r15
	mov	DWORD PTR offset$1$[rsp], r9d
	lea	rdi, QWORD PTR [rax+8]
	mov	eax, r12d
	seta	cl
	cmp	rsi, r8
	seta	al
	test	ecx, eax
	je	$_match_found$2642
	npad	10
$LL16@ZSTD_compr:
	movzx	eax, BYTE PTR [rsi-1]
	lea	rdx, QWORD PTR [r13-1]
	dec	rsi
	cmp	BYTE PTR [rdx], al
	jne	$_match_found$2642
	inc	rdi
	mov	ecx, r12d
	cmp	rsi, r8
	mov	eax, r12d
	mov	r13, rdx
	seta	cl
	cmp	rdx, r15
	seta	al
	test	ecx, eax
	jne	SHORT $LL16@ZSTD_compr

; 221  :                     goto _match_found;

	jmp	SHORT $_match_found$2642
$LN47@ZSTD_compr:

; 222  :                 }
; 223  :             } else if (dictMode == ZSTD_dictMatchState) {
; 224  :                 /* check dict long +1 match */
; 225  :                 U32 const dictMatchIndexL3 = dictHashLong[dictHLNext];
; 226  :                 const BYTE* dictMatchL3 = dictBase + dictMatchIndexL3;
; 227  :                 assert(dictMatchL3 < dictEnd);
; 228  :                 if (dictMatchL3 > dictStart && MEM_read64(dictMatchL3) == MEM_read64(ip+1)) {
; 229  :                     mLength = ZSTD_count_2segments(ip+1+8, dictMatchL3+8, iend, dictEnd, prefixLowest) + 8;
; 230  :                     ip++;
; 231  :                     offset = (U32)(current + 1 - dictMatchIndexL3 - dictIndexDelta);
; 232  :                     while (((ip>anchor) & (dictMatchL3>dictStart)) && (ip[-1] == dictMatchL3[-1])) { ip--; dictMatchL3--; mLength++; } /* catch up */
; 233  :                     goto _match_found;
; 234  :         }   }   }
; 235  : 
; 236  :         /* if no long +1 match, explore the short match we found */
; 237  :         if (dictMode == ZSTD_dictMatchState && matchIndexS < prefixLowestIndex) {
; 238  :             mLength = ZSTD_count_2segments(ip+4, match+4, iend, dictEnd, prefixLowest) + 4;
; 239  :             offset = (U32)(current - matchIndexS);
; 240  :             while (((ip>anchor) & (match>dictStart)) && (ip[-1] == match[-1])) { ip--; match--; mLength++; } /* catch up */
; 241  :         } else {
; 242  :             mLength = ZSTD_count(ip+4, match+4, iend) + 4;

	mov	r8, QWORD PTR iend$1$[rsp]
	lea	rdx, QWORD PTR [rbp+4]
	lea	rcx, QWORD PTR [r13+4]
	call	ZSTD_count

; 243  :             offset = (U32)(ip - match);
; 244  :             while (((ip>anchor) & (match>prefixLowest)) && (ip[-1] == match[-1])) { ip--; match--; mLength++; } /* catch up */

	mov	r8, QWORD PTR prefixLowest$1$[rsp]
	mov	ecx, r12d
	mov	r9d, r13d
	sub	r9d, ebp
	cmp	rbp, r8
	mov	DWORD PTR offset$1$[rsp], r9d
	lea	rdi, QWORD PTR [rax+4]
	mov	eax, r12d
	seta	cl
	cmp	r13, r15
	seta	al
	test	ecx, eax
	je	SHORT $_match_found$2642
	npad	3
$LL22@ZSTD_compr:
	movzx	eax, BYTE PTR [rbp-1]
	lea	rdx, QWORD PTR [r13-1]
	dec	rbp
	cmp	BYTE PTR [rdx], al
	jne	SHORT $_match_found$2642
	inc	rdi
	mov	ecx, r12d
	cmp	rbp, r8
	mov	eax, r12d
	mov	r13, rdx
	seta	cl
	cmp	rdx, r15
	seta	al
	test	ecx, eax
	jne	SHORT $LL22@ZSTD_compr
$_match_found$2642:

; 245  :         }
; 246  : 
; 247  :         /* fall-through */
; 248  : 
; 249  : _match_found:
; 250  :         offset_2 = offset_1;

	mov	ebp, DWORD PTR offset_1$1$[rsp]

; 253  :         ZSTD_storeSeq(seqStore, (size_t)(ip-anchor), anchor, iend, offset + ZSTD_REP_MOVE, mLength-MINMATCH);

	lea	r14, QWORD PTR [rdi-3]
; File E:\dev\pyzstd\lib\compress\zstd_compress_internal.h

; 442  :     BYTE const* const litEnd = literals + litLength;

	mov	rcx, QWORD PTR [rbx+24]
; File E:\dev\pyzstd\lib\compress\zstd_double_fast.c

; 253  :         ZSTD_storeSeq(seqStore, (size_t)(ip-anchor), anchor, iend, offset + ZSTD_REP_MOVE, mLength-MINMATCH);

	mov	rsi, r13
	sub	rsi, r15
	mov	DWORD PTR offset_2$1$[rsp], ebp
; File E:\dev\pyzstd\lib\compress\zstd_compress_internal.h

; 441  :     BYTE const* const litLimit_w = litLimit - WILDCOPY_OVERLENGTH;

	mov	rbp, QWORD PTR iend$1$[rsp]
	add	rbp, -32				; ffffffffffffffe0H
; File E:\dev\pyzstd\lib\compress\zstd_double_fast.c

; 251  :         offset_1 = offset;

	mov	DWORD PTR offset_1$1$[rsp], r9d
; File E:\dev\pyzstd\lib\compress\zstd_compress_internal.h

; 441  :     BYTE const* const litLimit_w = litLimit - WILDCOPY_OVERLENGTH;

	mov	QWORD PTR litLimit_w$1$[rsp], rbp

; 442  :     BYTE const* const litEnd = literals + litLength;

	lea	r8, QWORD PTR [rsi+r15]

; 443  : #if defined(DEBUGLEVEL) && (DEBUGLEVEL >= 6)
; 444  :     static const BYTE* g_start = NULL;
; 445  :     if (g_start==NULL) g_start = (const BYTE*)literals;  /* note : index only works for compression within a single segment */
; 446  :     {   U32 const pos = (U32)((const BYTE*)literals - g_start);
; 447  :         DEBUGLOG(6, "Cpos%7u :%3u literals, match%4u bytes at offCode%7u",
; 448  :                pos, (U32)litLength, (U32)mlBase+MINMATCH, (U32)offCode);
; 449  :     }
; 450  : #endif
; 451  :     assert((size_t)(seqStorePtr->sequences - seqStorePtr->sequencesStart) < seqStorePtr->maxNbSeq);
; 452  :     /* copy Literals */
; 453  :     assert(seqStorePtr->maxNbLit <= 128 KB);
; 454  :     assert(seqStorePtr->lit + litLength <= seqStorePtr->litStart + seqStorePtr->maxNbLit);
; 455  :     assert(literals + litLength <= litLimit);
; 456  :     if (litEnd <= litLimit_w) {

	cmp	r8, rbp
	ja	SHORT $LN407@ZSTD_compr
; File E:\dev\pyzstd\lib\common\zstd_internal.h

; 243  :     memcpy(dst, src, 16);

	movups	xmm0, XMMWORD PTR [r15]
	movups	XMMWORD PTR [rcx], xmm0
; File E:\dev\pyzstd\lib\compress\zstd_compress_internal.h

; 462  :         if (litLength > 16) {

	cmp	rsi, 16
	jbe	SHORT $LN408@ZSTD_compr

; 463  :             ZSTD_wildcopy(seqStorePtr->lit+16, literals+16, (ptrdiff_t)litLength-16, ZSTD_no_overlap);

	mov	rax, QWORD PTR [rbx+24]
	add	r15, 16
	add	rax, 16
; File E:\dev\pyzstd\lib\common\zstd_internal.h

; 270  :     BYTE* const oend = op + length;

	lea	rcx, QWORD PTR [rax-16]
	add	rcx, rsi
	npad	13
$LL421@ZSTD_compr:

; 243  :     memcpy(dst, src, 16);

	movups	xmm0, XMMWORD PTR [r15]

; 289  :             COPY16(op, ip);

	lea	r15, QWORD PTR [r15+16]

; 243  :     memcpy(dst, src, 16);

	movups	XMMWORD PTR [rax], xmm0

; 289  :             COPY16(op, ip);

	add	rax, 16

; 290  :         }
; 291  :         while (op < oend);

	cmp	rax, rcx
	jb	SHORT $LL421@ZSTD_compr
; File E:\dev\pyzstd\lib\compress\zstd_compress_internal.h

; 465  :     } else {

	jmp	SHORT $LN408@ZSTD_compr
$LN407@ZSTD_compr:

; 466  :         ZSTD_safecopyLiterals(seqStorePtr->lit, literals, litEnd, litLimit_w);

	mov	r9, rbp
	mov	rdx, r15
	call	ZSTD_safecopyLiterals
	mov	r9d, DWORD PTR offset$1$[rsp]
$LN408@ZSTD_compr:

; 467  :     }
; 468  :     seqStorePtr->lit += litLength;

	add	QWORD PTR [rbx+24], rsi
	mov	rcx, QWORD PTR [rbx+8]

; 469  : 
; 470  :     /* literal Length */
; 471  :     if (litLength>0xFFFF) {

	cmp	rsi, 65535				; 0000ffffH
	jbe	SHORT $LN2568@ZSTD_compr

; 472  :         assert(seqStorePtr->longLengthID == 0); /* there can only be a single long length */
; 473  :         seqStorePtr->longLengthID = 1;
; 474  :         seqStorePtr->longLengthPos = (U32)(seqStorePtr->sequences - seqStorePtr->sequencesStart);

	mov	rax, rcx
	mov	DWORD PTR [rbx+72], 1
	sub	rax, QWORD PTR [rbx]
	sar	rax, 3
	mov	DWORD PTR [rbx+76], eax
$LN2568@ZSTD_compr:

; 475  :     }
; 476  :     seqStorePtr->sequences[0].litLength = (U16)litLength;

	mov	WORD PTR [rcx+4], si

; 477  : 
; 478  :     /* match offset */
; 479  :     seqStorePtr->sequences[0].offset = offCode + 1;

	lea	ecx, DWORD PTR [r9+3]
	mov	rax, QWORD PTR [rbx+8]
	mov	DWORD PTR [rax], ecx
$LN2628@ZSTD_compr:
; File E:\dev\pyzstd\lib\compress\zstd_double_fast.c

; 257  :         ip += mLength;

	mov	rcx, QWORD PTR [rbx+8]
	cmp	r14, 65535				; 0000ffffH
	jbe	SHORT $LN2569@ZSTD_compr
	mov	rax, rcx
	mov	DWORD PTR [rbx+72], 2
	sub	rax, QWORD PTR [rbx]
	sar	rax, 3
	mov	DWORD PTR [rbx+76], eax
$LN2569@ZSTD_compr:
	mov	WORD PTR [rcx+6], r14w
	add	QWORD PTR [rbx+8], 8
$_match_stored$2644:
	lea	r15, QWORD PTR [rdi+r13]
	mov	r13, r15

; 258  :         anchor = ip;

	cmp	r15, QWORD PTR ilimit$1$[rsp]

; 259  : 
; 260  :         if (ip <= ilimit) {

	ja	$LN2618@ZSTD_compr

; 261  :             /* Complementary insertion */
; 262  :             /* done after iLimit test, as candidates could be > iend-8 */
; 263  :             {   U32 const indexToInsert = current+2;

	mov	r14d, DWORD PTR current$1$[rsp]

; 264  :                 hashLong[ZSTD_hashPtr(base+indexToInsert, hBitsL, 8)] = indexToInsert;

	mov	r8d, 8
	mov	rdi, QWORD PTR base$1$[rsp]
	add	r14d, 2
	mov	edx, DWORD PTR hBitsL$1$[rsp]
	mov	ebp, r14d
	add	rbp, rdi
	mov	rcx, rbp
	call	ZSTD_hashPtr
	mov	rcx, QWORD PTR hashLong$1$[rsp]
	mov	esi, r15d

; 265  :                 hashLong[ZSTD_hashPtr(ip-2, hBitsL, 8)] = (U32)(ip-2-base);

	mov	edx, DWORD PTR hBitsL$1$[rsp]
	sub	esi, edi
	mov	r8d, 8
	mov	DWORD PTR [rcx+rax*4], r14d
	lea	rcx, QWORD PTR [r15-2]
	lea	edi, DWORD PTR [rsi-2]
	call	ZSTD_hashPtr
	mov	rcx, QWORD PTR hashLong$1$[rsp]

; 266  :                 hashSmall[ZSTD_hashPtr(base+indexToInsert, hBitsS, mls)] = indexToInsert;

	mov	r8d, 4
	mov	edx, DWORD PTR hBitsS$1$[rsp]
	mov	DWORD PTR [rcx+rax*4], edi
	mov	rcx, rbp
	call	ZSTD_hashPtr
	mov	rbp, QWORD PTR hashSmall$1$[rsp]

; 267  :                 hashSmall[ZSTD_hashPtr(ip-1, hBitsS, mls)] = (U32)(ip-1-base);

	lea	rcx, QWORD PTR [r15-1]
	mov	edx, DWORD PTR hBitsS$1$[rsp]
	lea	edi, DWORD PTR [rsi-1]
	mov	r8d, 4
	mov	DWORD PTR [rbp+rax*4], r14d
	call	ZSTD_hashPtr
	mov	r14, QWORD PTR litLimit_w$1$[rsp]
	mov	DWORD PTR [rbp+rax*4], edi
	mov	ebp, DWORD PTR offset_2$1$[rsp]
	npad	9
$LL26@ZSTD_compr:

; 268  :             }
; 269  : 
; 270  :             /* check immediate repcode */
; 271  :             if (dictMode == ZSTD_dictMatchState) {
; 272  :                 while (ip <= ilimit) {
; 273  :                     U32 const current2 = (U32)(ip-base);
; 274  :                     U32 const repIndex2 = current2 - offset_2;
; 275  :                     const BYTE* repMatch2 = dictMode == ZSTD_dictMatchState
; 276  :                         && repIndex2 < prefixLowestIndex ?
; 277  :                             dictBase + repIndex2 - dictIndexDelta :
; 278  :                             base + repIndex2;
; 279  :                     if ( ((U32)((prefixLowestIndex-1) - (U32)repIndex2) >= 3 /* intentional overflow */)
; 280  :                        && (MEM_read32(repMatch2) == MEM_read32(ip)) ) {
; 281  :                         const BYTE* const repEnd2 = repIndex2 < prefixLowestIndex ? dictEnd : iend;
; 282  :                         size_t const repLength2 = ZSTD_count_2segments(ip+4, repMatch2+4, iend, repEnd2, prefixLowest) + 4;
; 283  :                         U32 tmpOffset = offset_2; offset_2 = offset_1; offset_1 = tmpOffset;   /* swap offset_2 <=> offset_1 */
; 284  :                         ZSTD_storeSeq(seqStore, 0, anchor, iend, 0, repLength2-MINMATCH);
; 285  :                         hashSmall[ZSTD_hashPtr(ip, hBitsS, mls)] = current2;
; 286  :                         hashLong[ZSTD_hashPtr(ip, hBitsL, 8)] = current2;
; 287  :                         ip += repLength2;
; 288  :                         anchor = ip;
; 289  :                         continue;
; 290  :                     }
; 291  :                     break;
; 292  :             }   }
; 293  : 
; 294  :             if (dictMode == ZSTD_noDict) {
; 295  :                 while ( (ip <= ilimit)
; 296  :                      && ( (offset_2>0)

	mov	eax, ebp
	mov	ecx, r12d
	mov	rdx, r13
	sub	rdx, rax
	mov	eax, DWORD PTR [rdx]
	cmp	DWORD PTR [r13], eax
	mov	eax, r12d
	sete	cl
	test	ebp, ebp
	setne	al
	test	ecx, eax
	je	$LN2622@ZSTD_compr

; 297  :                         & (MEM_read32(ip) == MEM_read32(ip - offset_2)) )) {
; 298  :                     /* store sequence */
; 299  :                     size_t const rLength = ZSTD_count(ip+4, ip+4-offset_2, iend) + 4;

	mov	r8, QWORD PTR iend$1$[rsp]
	lea	rcx, QWORD PTR [r13+4]
	add	rdx, 4
	call	ZSTD_count

; 300  :                     U32 const tmpOff = offset_2; offset_2 = offset_1; offset_1 = tmpOff;  /* swap offset_2 <=> offset_1 */
; 301  :                     hashSmall[ZSTD_hashPtr(ip, hBitsS, mls)] = (U32)(ip-base);

	mov	edx, DWORD PTR hBitsS$1$[rsp]
	mov	ecx, ebp
	mov	ebp, DWORD PTR offset_1$1$[rsp]
	mov	edi, r13d
	sub	edi, DWORD PTR base$1$[rsp]
	mov	r8d, 4
	mov	DWORD PTR offset_1$1$[rsp], ecx
	lea	rsi, QWORD PTR [rax+4]
	mov	rcx, r13
	mov	DWORD PTR offset_2$1$[rsp], ebp
	call	ZSTD_hashPtr
	mov	rcx, QWORD PTR hashSmall$1$[rsp]

; 302  :                     hashLong[ZSTD_hashPtr(ip, hBitsL, 8)] = (U32)(ip-base);

	mov	r8d, 8
	mov	edx, DWORD PTR hBitsL$1$[rsp]
	mov	DWORD PTR [rcx+rax*4], edi
	mov	rcx, r13
	call	ZSTD_hashPtr
	mov	rcx, QWORD PTR hashLong$1$[rsp]
	mov	DWORD PTR [rcx+rax*4], edi

; 303  :                     ZSTD_storeSeq(seqStore, 0, anchor, iend, 0, rLength-MINMATCH);

	lea	rdi, QWORD PTR [rsi-3]
; File E:\dev\pyzstd\lib\compress\zstd_compress_internal.h

; 442  :     BYTE const* const litEnd = literals + litLength;

	mov	rcx, QWORD PTR [rbx+24]

; 443  : #if defined(DEBUGLEVEL) && (DEBUGLEVEL >= 6)
; 444  :     static const BYTE* g_start = NULL;
; 445  :     if (g_start==NULL) g_start = (const BYTE*)literals;  /* note : index only works for compression within a single segment */
; 446  :     {   U32 const pos = (U32)((const BYTE*)literals - g_start);
; 447  :         DEBUGLOG(6, "Cpos%7u :%3u literals, match%4u bytes at offCode%7u",
; 448  :                pos, (U32)litLength, (U32)mlBase+MINMATCH, (U32)offCode);
; 449  :     }
; 450  : #endif
; 451  :     assert((size_t)(seqStorePtr->sequences - seqStorePtr->sequencesStart) < seqStorePtr->maxNbSeq);
; 452  :     /* copy Literals */
; 453  :     assert(seqStorePtr->maxNbLit <= 128 KB);
; 454  :     assert(seqStorePtr->lit + litLength <= seqStorePtr->litStart + seqStorePtr->maxNbLit);
; 455  :     assert(literals + litLength <= litLimit);
; 456  :     if (litEnd <= litLimit_w) {

	cmp	r15, r14
	ja	SHORT $LN461@ZSTD_compr
; File E:\dev\pyzstd\lib\common\zstd_internal.h

; 243  :     memcpy(dst, src, 16);

	movups	xmm0, XMMWORD PTR [r15]
	movups	XMMWORD PTR [rcx], xmm0
; File E:\dev\pyzstd\lib\compress\zstd_compress_internal.h

; 465  :     } else {

	jmp	SHORT $LN462@ZSTD_compr
$LN461@ZSTD_compr:

; 466  :         ZSTD_safecopyLiterals(seqStorePtr->lit, literals, litEnd, litLimit_w);

	mov	r9, r14
	mov	r8, r15
	mov	rdx, r15
	call	ZSTD_safecopyLiterals
$LN462@ZSTD_compr:

; 475  :     }
; 476  :     seqStorePtr->sequences[0].litLength = (U16)litLength;

	mov	rax, QWORD PTR [rbx+8]
	mov	WORD PTR [rax+4], r12w

; 477  : 
; 478  :     /* match offset */
; 479  :     seqStorePtr->sequences[0].offset = offCode + 1;

	mov	rax, QWORD PTR [rbx+8]
	mov	DWORD PTR [rax], 1
	mov	rcx, QWORD PTR [rbx+8]

; 480  : 
; 481  :     /* match Length */
; 482  :     if (mlBase>0xFFFF) {

	cmp	rdi, 65535				; 0000ffffH
	jbe	SHORT $LN2570@ZSTD_compr

; 485  :         seqStorePtr->longLengthPos = (U32)(seqStorePtr->sequences - seqStorePtr->sequencesStart);

	mov	rax, rcx
	mov	DWORD PTR [rbx+72], 2
	sub	rax, QWORD PTR [rbx]
	sar	rax, 3
	mov	DWORD PTR [rbx+76], eax
$LN2570@ZSTD_compr:
; File E:\dev\pyzstd\lib\compress\zstd_double_fast.c

; 304  :                     ip += rLength;

	add	r13, rsi
; File E:\dev\pyzstd\lib\compress\zstd_compress_internal.h

; 487  :     seqStorePtr->sequences[0].matchLength = (U16)mlBase;

	mov	WORD PTR [rcx+6], di

; 488  : 
; 489  :     seqStorePtr->sequences++;

	add	QWORD PTR [rbx+8], 8
; File E:\dev\pyzstd\lib\compress\zstd_double_fast.c

; 304  :                     ip += rLength;

	mov	r15, r13
	cmp	r13, QWORD PTR ilimit$1$[rsp]
	jbe	$LL26@ZSTD_compr

; 305  :                     anchor = ip;
; 306  :                     continue;   /* faster when present ... (?) */
; 307  :         }   }   }
; 308  :     }   /* while (ip < ilimit) */

	jmp	SHORT $LN2622@ZSTD_compr
$LN42@ZSTD_compr:
	mov	ebp, DWORD PTR offset_2$1$[rsp]

; 188  :                 goto _search_next_long;
; 189  :             }
; 190  :         } else if (dictMode == ZSTD_dictMatchState) {
; 191  :             /* check dictMatchState short match */
; 192  :             U32 const dictMatchIndexS = dictHashSmall[dictHS];
; 193  :             match = dictBase + dictMatchIndexS;
; 194  :             matchIndexS = dictMatchIndexS + dictIndexDelta;
; 195  : 
; 196  :             if (match > dictStart && MEM_read32(match) == MEM_read32(ip)) {
; 197  :                 goto _search_next_long;
; 198  :         }   }
; 199  : 
; 200  :         ip += ((ip-anchor) >> kSearchStrength) + 1;

	mov	rax, r13
	sub	rax, r15
	inc	r13
	sar	rax, 8
	add	r13, rax

; 259  : 
; 260  :         if (ip <= ilimit) {

	jmp	SHORT $LN2522@ZSTD_compr
$LN2618@ZSTD_compr:
	mov	ebp, DWORD PTR offset_2$1$[rsp]
$LN2622@ZSTD_compr:

; 125  :     while (ip < ilimit) {   /* < instead of <=, because repcode check at (ip+1) */

	mov	r10d, DWORD PTR offset_1$1$[rsp]
$LN2522@ZSTD_compr:
	mov	r14d, DWORD PTR hBitsL$1$[rsp]
	cmp	r13, QWORD PTR ilimit$1$[rsp]
	jb	$LL10@ZSTD_compr
	mov	rsi, QWORD PTR iend$1$[rsp]
	mov	r9d, DWORD PTR tv11524[rsp]
$LN11@ZSTD_compr:

; 309  : 
; 310  :     /* save reps for next block */
; 311  :     rep[0] = offset_1 ? offset_1 : offsetSaved;

	mov	rdx, QWORD PTR rep$[rsp]
	test	r10d, r10d
	mov	ecx, r9d
	cmovne	ecx, r10d

; 312  :     rep[1] = offset_2 ? offset_2 : offsetSaved;

	test	ebp, ebp
	cmovne	r9d, ebp
	mov	DWORD PTR [rdx], ecx
	mov	DWORD PTR [rdx+4], r9d

; 325  :     {
; 326  :     default: /* includes case 3 */
; 327  :     case 4 :
; 328  :         return ZSTD_compressBlock_doubleFast_generic(ms, seqStore, rep, src, srcSize, 4, ZSTD_noDict);

	jmp	$LN2629@ZSTD_compr
$LN7@ZSTD_compr:
; File E:\dev\pyzstd\lib\compress\zstd_compress_internal.h

; 993  :     U32    const withinWindow = (current - lowestValid > maxDistance) ? current - maxDistance : lowestValid;

	sub	eax, edi
; File E:\dev\pyzstd\lib\compress\zstd_double_fast.c

; 58   :     const U32 hBitsL = cParams->hashLog;

	mov	DWORD PTR hBitsL$1$[rsp], r14d
; File E:\dev\pyzstd\lib\compress\zstd_compress_internal.h

; 994  :     U32    const isDictionary = (ms->loadedDictEnd != 0);

	sub	r8d, r10d
	cmp	eax, r10d
; File E:\dev\pyzstd\lib\compress\zstd_double_fast.c

; 70   :     const BYTE* const ilimit = iend - HASH_READ_SIZE;

	lea	rax, QWORD PTR [rsi-8]
	mov	QWORD PTR ilimit$1$[rsp], rax
; File E:\dev\pyzstd\lib\compress\zstd_compress_internal.h

; 994  :     U32    const isDictionary = (ms->loadedDictEnd != 0);

	cmovbe	r8d, edi
	test	r9d, r9d

; 995  :     U32    const matchLowest = isDictionary ? lowestValid : withinWindow;

	cmovne	r8d, edi
; File E:\dev\pyzstd\lib\compress\zstd_double_fast.c

; 68   :     const BYTE* const prefixLowest = base + prefixLowestIndex;

	mov	ecx, r8d
	add	rcx, rbp
; File E:\dev\pyzstd\lib\compress\zstd_compress_internal.h

; 995  :     U32    const matchLowest = isDictionary ? lowestValid : withinWindow;

	mov	DWORD PTR prefixLowestIndex$1$[rsp], r8d
; File E:\dev\pyzstd\lib\compress\zstd_double_fast.c

; 71   :     U32 offset_1=rep[0], offset_2=rep[1];

	mov	r8d, DWORD PTR [r12+4]

; 72   :     U32 offsetSaved = 0;
; 73   : 
; 74   :     const ZSTD_matchState_t* const dms = ms->dictMatchState;
; 75   :     const ZSTD_compressionParameters* const dictCParams =
; 76   :                                      dictMode == ZSTD_dictMatchState ?
; 77   :                                      &dms->cParams : NULL;
; 78   :     const U32* const dictHashLong  = dictMode == ZSTD_dictMatchState ?
; 79   :                                      dms->hashTable : NULL;
; 80   :     const U32* const dictHashSmall = dictMode == ZSTD_dictMatchState ?
; 81   :                                      dms->chainTable : NULL;
; 82   :     const U32 dictStartIndex       = dictMode == ZSTD_dictMatchState ?
; 83   :                                      dms->window.dictLimit : 0;
; 84   :     const BYTE* const dictBase     = dictMode == ZSTD_dictMatchState ?
; 85   :                                      dms->window.base : NULL;
; 86   :     const BYTE* const dictStart    = dictMode == ZSTD_dictMatchState ?
; 87   :                                      dictBase + dictStartIndex : NULL;
; 88   :     const BYTE* const dictEnd      = dictMode == ZSTD_dictMatchState ?
; 89   :                                      dms->window.nextSrc : NULL;
; 90   :     const U32 dictIndexDelta       = dictMode == ZSTD_dictMatchState ?
; 91   :                                      prefixLowestIndex - (U32)(dictEnd - dictBase) :
; 92   :                                      0;
; 93   :     const U32 dictHBitsL           = dictMode == ZSTD_dictMatchState ?
; 94   :                                      dictCParams->hashLog : hBitsL;
; 95   :     const U32 dictHBitsS           = dictMode == ZSTD_dictMatchState ?
; 96   :                                      dictCParams->chainLog : hBitsS;
; 97   :     const U32 dictAndPrefixLength  = (U32)((ip - prefixLowest) + (dictEnd - dictStart));
; 98   : 
; 99   :     DEBUGLOG(5, "ZSTD_compressBlock_doubleFast_generic");
; 100  : 
; 101  :     assert(dictMode == ZSTD_noDict || dictMode == ZSTD_dictMatchState);
; 102  : 
; 103  :     /* if a dictionary is attached, it must be within window range */
; 104  :     if (dictMode == ZSTD_dictMatchState) {
; 105  :         assert(ms->window.dictLimit + (1U << cParams->windowLog) >= endIndex);
; 106  :     }
; 107  : 
; 108  :     /* init */
; 109  :     ip += (dictAndPrefixLength == 0);

	xor	r12d, r12d
	cmp	r15d, ecx
	mov	QWORD PTR prefixLowest$1$[rsp], rcx
	mov	eax, r12d
	sete	al
	lea	r13, QWORD PTR [rax+r15]

; 110  :     if (dictMode == ZSTD_noDict) {
; 111  :         U32 const current = (U32)(ip - base);

	mov	edx, r13d
	sub	edx, ebp

; 114  :         if (offset_2 > maxRep) offsetSaved = offset_2, offset_2 = 0;
; 115  :         if (offset_1 > maxRep) offsetSaved = offset_1, offset_1 = 0;

	mov	ebp, r12d
; File E:\dev\pyzstd\lib\compress\zstd_compress_internal.h

; 993  :     U32    const withinWindow = (current - lowestValid > maxDistance) ? current - maxDistance : lowestValid;

	mov	eax, edx

; 994  :     U32    const isDictionary = (ms->loadedDictEnd != 0);

	mov	ecx, edx
	sub	ecx, r10d
	sub	eax, edi
	cmp	eax, r10d
; File E:\dev\pyzstd\lib\compress\zstd_double_fast.c

; 125  :     while (ip < ilimit) {   /* < instead of <=, because repcode check at (ip+1) */

	mov	r10d, r12d
	lea	rax, QWORD PTR [rsi-8]
; File E:\dev\pyzstd\lib\compress\zstd_compress_internal.h

; 994  :     U32    const isDictionary = (ms->loadedDictEnd != 0);

	cmovbe	ecx, edi
	test	r9d, r9d

; 995  :     U32    const matchLowest = isDictionary ? lowestValid : withinWindow;

	cmovne	ecx, edi
; File E:\dev\pyzstd\lib\compress\zstd_double_fast.c

; 113  :         U32 const maxRep = current - windowLow;

	sub	edx, ecx

; 125  :     while (ip < ilimit) {   /* < instead of <=, because repcode check at (ip+1) */

	mov	ecx, r11d
	cmp	r8d, edx
	cmovbe	ebp, r8d
	cmovbe	r8d, r12d
	cmp	r11d, edx
	cmovbe	ecx, r8d
	cmovbe	r10d, r11d
	mov	DWORD PTR tv11653[rsp], ecx
	cmp	r13, rax
	jae	$LN485@ZSTD_compr
; File E:\dev\pyzstd\lib\compress\zstd_compress_internal.h

; 485  :         seqStorePtr->longLengthPos = (U32)(seqStorePtr->sequences - seqStorePtr->sequencesStart);

	mov	DWORD PTR offset_2$1$[rsp], ebp
	mov	DWORD PTR offset_1$1$[rsp], r10d
	npad	6
$LL1679@ZSTD_compr:
; File E:\dev\pyzstd\lib\compress\zstd_double_fast.c

; 128  :         size_t const h2 = ZSTD_hashPtr(ip, hBitsL, 8);

	mov	r8d, 8
	mov	edx, r14d
	mov	rcx, r13
	call	ZSTD_hashPtr

; 129  :         size_t const h = ZSTD_hashPtr(ip, hBitsS, mls);

	mov	edx, DWORD PTR hBitsS$1$[rsp]
	mov	r8d, 7
	mov	rcx, r13
	mov	rsi, rax
	call	ZSTD_hashPtr

; 130  :         size_t const dictHL = ZSTD_hashPtr(ip, dictHBitsL, 8);

	mov	r8d, 8
	mov	edx, r14d
	mov	rcx, r13
	mov	rdi, rax
	call	ZSTD_hashPtr

; 131  :         size_t const dictHS = ZSTD_hashPtr(ip, dictHBitsS, mls);

	mov	edx, DWORD PTR hBitsS$1$[rsp]
	mov	r8d, 7
	mov	rcx, r13
	call	ZSTD_hashPtr

; 132  :         U32 const current = (U32)(ip-base);

	mov	rdx, QWORD PTR base$1$[rsp]
	mov	ecx, r13d

; 133  :         U32 const matchIndexL = hashLong[h2];
; 134  :         U32 matchIndexS = hashSmall[h];

	mov	r10, QWORD PTR hashSmall$1$[rsp]
	sub	ecx, edx
	mov	r11, QWORD PTR hashLong$1$[rsp]
	mov	DWORD PTR current$1$[rsp], ecx
	mov	r9d, DWORD PTR [r10+rdi*4]
	mov	r8d, DWORD PTR [r11+rsi*4]

; 135  :         const BYTE* matchLong = base + matchIndexL;
; 136  :         const BYTE* match = base + matchIndexS;
; 137  :         const U32 repIndex = current + 1 - offset_1;
; 138  :         const BYTE* repMatch = (dictMode == ZSTD_dictMatchState
; 139  :                             && repIndex < prefixLowestIndex) ?
; 140  :                                dictBase + (repIndex - dictIndexDelta) :
; 141  :                                base + repIndex;
; 142  :         hashLong[h2] = hashSmall[h] = current;   /* update hash tables */

	mov	DWORD PTR [r10+rdi*4], ecx

; 143  : 
; 144  :         /* check dictMatchState repcode */
; 145  :         if (dictMode == ZSTD_dictMatchState
; 146  :             && ((U32)((prefixLowestIndex-1) - repIndex) >= 3 /* intentional underflow */)
; 147  :             && (MEM_read32(repMatch) == MEM_read32(ip+1)) ) {
; 148  :             const BYTE* repMatchEnd = repIndex < prefixLowestIndex ? dictEnd : iend;
; 149  :             mLength = ZSTD_count_2segments(ip+1+4, repMatch+4, iend, repMatchEnd, prefixLowest) + 4;
; 150  :             ip++;
; 151  :             ZSTD_storeSeq(seqStore, (size_t)(ip-anchor), anchor, iend, 0, mLength-MINMATCH);
; 152  :             goto _match_stored;
; 153  :         }
; 154  : 
; 155  :         /* check noDict repcode */
; 156  :         if ( dictMode == ZSTD_noDict
; 157  :           && ((offset_1 > 0) & (MEM_read32(ip+1-offset_1) == MEM_read32(ip+1)))) {

	mov	r10d, DWORD PTR offset_1$1$[rsp]
	mov	DWORD PTR [r11+rsi*4], ecx
	lea	rbp, QWORD PTR [rdx+r9]
	mov	eax, DWORD PTR [r13+1]
	lea	r14, QWORD PTR [rdx+r8]
	lea	rsi, QWORD PTR [r13+1]
	mov	ecx, r12d
	mov	rdx, r13
	mov	QWORD PTR litLength$1$[rsp], rsi
	sub	rdx, r10
	cmp	DWORD PTR [rdx+1], eax
	mov	eax, r12d
	sete	cl
	test	r10d, r10d
	setne	al
	test	ecx, eax
	je	$LN1703@ZSTD_compr

; 158  :             mLength = ZSTD_count(ip+1+4, ip+1+4-offset_1, iend) + 4;

	mov	rbp, QWORD PTR iend$1$[rsp]
	lea	rcx, QWORD PTR [r13+5]
	mov	r8, rbp
	add	rdx, 5
	call	ZSTD_count
; File E:\dev\pyzstd\lib\compress\zstd_compress_internal.h

; 442  :     BYTE const* const litEnd = literals + litLength;

	mov	rcx, QWORD PTR [rbx+24]
	add	rbp, -32				; ffffffffffffffe0H
; File E:\dev\pyzstd\lib\compress\zstd_double_fast.c

; 159  :             ip++;

	mov	r13, rsi
; File E:\dev\pyzstd\lib\compress\zstd_compress_internal.h

; 441  :     BYTE const* const litLimit_w = litLimit - WILDCOPY_OVERLENGTH;

	mov	QWORD PTR litLimit_w$1$[rsp], rbp
; File E:\dev\pyzstd\lib\compress\zstd_double_fast.c

; 160  :             ZSTD_storeSeq(seqStore, (size_t)(ip-anchor), anchor, iend, 0, mLength-MINMATCH);

	sub	rsi, r15
	lea	rdi, QWORD PTR [rax+4]
	lea	r14, QWORD PTR [rdi-3]
; File E:\dev\pyzstd\lib\compress\zstd_compress_internal.h

; 442  :     BYTE const* const litEnd = literals + litLength;

	lea	r8, QWORD PTR [rsi+r15]

; 443  : #if defined(DEBUGLEVEL) && (DEBUGLEVEL >= 6)
; 444  :     static const BYTE* g_start = NULL;
; 445  :     if (g_start==NULL) g_start = (const BYTE*)literals;  /* note : index only works for compression within a single segment */
; 446  :     {   U32 const pos = (U32)((const BYTE*)literals - g_start);
; 447  :         DEBUGLOG(6, "Cpos%7u :%3u literals, match%4u bytes at offCode%7u",
; 448  :                pos, (U32)litLength, (U32)mlBase+MINMATCH, (U32)offCode);
; 449  :     }
; 450  : #endif
; 451  :     assert((size_t)(seqStorePtr->sequences - seqStorePtr->sequencesStart) < seqStorePtr->maxNbSeq);
; 452  :     /* copy Literals */
; 453  :     assert(seqStorePtr->maxNbLit <= 128 KB);
; 454  :     assert(seqStorePtr->lit + litLength <= seqStorePtr->litStart + seqStorePtr->maxNbLit);
; 455  :     assert(literals + litLength <= litLimit);
; 456  :     if (litEnd <= litLimit_w) {

	cmp	r8, rbp
	ja	SHORT $LN2142@ZSTD_compr
; File E:\dev\pyzstd\lib\common\zstd_internal.h

; 243  :     memcpy(dst, src, 16);

	movups	xmm0, XMMWORD PTR [r15]
	movups	XMMWORD PTR [rcx], xmm0
; File E:\dev\pyzstd\lib\compress\zstd_compress_internal.h

; 462  :         if (litLength > 16) {

	cmp	rsi, 16
	jbe	SHORT $LN2143@ZSTD_compr

; 463  :             ZSTD_wildcopy(seqStorePtr->lit+16, literals+16, (ptrdiff_t)litLength-16, ZSTD_no_overlap);

	mov	rax, QWORD PTR [rbx+24]
	add	r15, 16
	add	rax, 16
; File E:\dev\pyzstd\lib\common\zstd_internal.h

; 270  :     BYTE* const oend = op + length;

	lea	rcx, QWORD PTR [rax-16]
	add	rcx, rsi
	npad	6
$LL2156@ZSTD_compr:

; 243  :     memcpy(dst, src, 16);

	movups	xmm0, XMMWORD PTR [r15]

; 289  :             COPY16(op, ip);

	lea	r15, QWORD PTR [r15+16]

; 243  :     memcpy(dst, src, 16);

	movups	XMMWORD PTR [rax], xmm0

; 289  :             COPY16(op, ip);

	add	rax, 16

; 290  :         }
; 291  :         while (op < oend);

	cmp	rax, rcx
	jb	SHORT $LL2156@ZSTD_compr
; File E:\dev\pyzstd\lib\compress\zstd_compress_internal.h

; 465  :     } else {

	jmp	SHORT $LN2143@ZSTD_compr
$LN2142@ZSTD_compr:

; 466  :         ZSTD_safecopyLiterals(seqStorePtr->lit, literals, litEnd, litLimit_w);

	mov	r9, rbp
	mov	rdx, r15
	call	ZSTD_safecopyLiterals
$LN2143@ZSTD_compr:

; 467  :     }
; 468  :     seqStorePtr->lit += litLength;

	add	QWORD PTR [rbx+24], rsi
	mov	rcx, QWORD PTR [rbx+8]

; 469  : 
; 470  :     /* literal Length */
; 471  :     if (litLength>0xFFFF) {

	cmp	rsi, 65535				; 0000ffffH
	jbe	SHORT $LN2571@ZSTD_compr

; 472  :         assert(seqStorePtr->longLengthID == 0); /* there can only be a single long length */
; 473  :         seqStorePtr->longLengthID = 1;
; 474  :         seqStorePtr->longLengthPos = (U32)(seqStorePtr->sequences - seqStorePtr->sequencesStart);

	mov	rax, rcx
	mov	DWORD PTR [rbx+72], 1
	sub	rax, QWORD PTR [rbx]
	sar	rax, 3
	mov	DWORD PTR [rbx+76], eax
$LN2571@ZSTD_compr:

; 475  :     }
; 476  :     seqStorePtr->sequences[0].litLength = (U16)litLength;

	mov	WORD PTR [rcx+4], si

; 477  : 
; 478  :     /* match offset */
; 479  :     seqStorePtr->sequences[0].offset = offCode + 1;

	mov	rax, QWORD PTR [rbx+8]
	mov	DWORD PTR [rax], 1
; File E:\dev\pyzstd\lib\compress\zstd_double_fast.c

; 161  :             goto _match_stored;

	jmp	$LN2632@ZSTD_compr
$LN1703@ZSTD_compr:

; 162  :         }
; 163  : 
; 164  :         if (matchIndexL > prefixLowestIndex) {

	mov	ecx, DWORD PTR prefixLowestIndex$1$[rsp]
	cmp	r8d, ecx
	jbe	$LN1706@ZSTD_compr

; 165  :             /* check prefix long match */
; 166  :             if (MEM_read64(matchLong) == MEM_read64(ip)) {

	mov	rax, QWORD PTR [r13]
	cmp	QWORD PTR [r14], rax
	jne	SHORT $LN1706@ZSTD_compr

; 167  :                 mLength = ZSTD_count(ip+8, matchLong+8, iend) + 8;

	mov	r8, QWORD PTR iend$1$[rsp]
	lea	rdx, QWORD PTR [r14+8]
	lea	rcx, QWORD PTR [r13+8]
	call	ZSTD_count

; 168  :                 offset = (U32)(ip-matchLong);
; 169  :                 while (((ip>anchor) & (matchLong>prefixLowest)) && (ip[-1] == matchLong[-1])) { ip--; matchLong--; mLength++; } /* catch up */

	mov	r8, QWORD PTR prefixLowest$1$[rsp]
	mov	ecx, r12d
	mov	r9d, r13d
	sub	r9d, r14d
	cmp	r14, r8
	mov	DWORD PTR offset$1$[rsp], r9d
	lea	rdi, QWORD PTR [rax+8]
	mov	eax, r12d
	seta	cl
	cmp	r13, r15
	seta	al
	test	ecx, eax
	je	$_match_found$2645
	npad	1
$LL1681@ZSTD_compr:
	movzx	eax, BYTE PTR [r14-1]
	lea	rdx, QWORD PTR [r13-1]
	dec	r14
	cmp	BYTE PTR [rdx], al
	jne	$_match_found$2645
	inc	rdi
	mov	ecx, r12d
	cmp	r14, r8
	mov	eax, r12d
	mov	r13, rdx
	seta	cl
	cmp	rdx, r15
	seta	al
	test	ecx, eax
	jne	SHORT $LL1681@ZSTD_compr

; 170  :                 goto _match_found;

	jmp	$_match_found$2645
$LN1706@ZSTD_compr:

; 171  :             }
; 172  :         } else if (dictMode == ZSTD_dictMatchState) {
; 173  :             /* check dictMatchState long match */
; 174  :             U32 const dictMatchIndexL = dictHashLong[dictHL];
; 175  :             const BYTE* dictMatchL = dictBase + dictMatchIndexL;
; 176  :             assert(dictMatchL < dictEnd);
; 177  : 
; 178  :             if (dictMatchL > dictStart && MEM_read64(dictMatchL) == MEM_read64(ip)) {
; 179  :                 mLength = ZSTD_count_2segments(ip+8, dictMatchL+8, iend, dictEnd, prefixLowest) + 8;
; 180  :                 offset = (U32)(current - dictMatchIndexL - dictIndexDelta);
; 181  :                 while (((ip>anchor) & (dictMatchL>dictStart)) && (ip[-1] == dictMatchL[-1])) { ip--; dictMatchL--; mLength++; } /* catch up */
; 182  :                 goto _match_found;
; 183  :         }   }
; 184  : 
; 185  :         if (matchIndexS > prefixLowestIndex) {

	cmp	r9d, ecx
	jbe	$LN1711@ZSTD_compr

; 186  :             /* check prefix short match */
; 187  :             if (MEM_read32(match) == MEM_read32(ip)) {

	mov	eax, DWORD PTR [r13]
	cmp	DWORD PTR [rbp], eax
	jne	$LN1711@ZSTD_compr
$_search_next_long$2646:

; 201  : #if defined(__aarch64__)
; 202  :         PREFETCH_L1(ip+256);
; 203  : #endif
; 204  :         continue;
; 205  : 
; 206  : _search_next_long:
; 207  : 
; 208  :         {   size_t const hl3 = ZSTD_hashPtr(ip+1, hBitsL, 8);

	mov	edx, DWORD PTR hBitsL$1$[rsp]
	mov	r8d, 8
	mov	rcx, rsi
	call	ZSTD_hashPtr

; 209  :             size_t const dictHLNext = ZSTD_hashPtr(ip+1, dictHBitsL, 8);

	mov	edx, DWORD PTR hBitsL$1$[rsp]
	mov	r8d, 8
	mov	rcx, rsi
	mov	rdi, rax
	call	ZSTD_hashPtr

; 210  :             U32 const matchIndexL3 = hashLong[hl3];

	mov	r8, QWORD PTR hashLong$1$[rsp]

; 211  :             const BYTE* matchL3 = base + matchIndexL3;
; 212  :             hashLong[hl3] = current + 1;

	mov	eax, DWORD PTR current$1$[rsp]
	mov	ecx, DWORD PTR [r8+rdi*4]
	mov	esi, ecx
	add	rsi, QWORD PTR base$1$[rsp]
	inc	eax
	mov	DWORD PTR [r8+rdi*4], eax

; 213  : 
; 214  :             /* check prefix long +1 match */
; 215  :             if (matchIndexL3 > prefixLowestIndex) {

	cmp	ecx, DWORD PTR prefixLowestIndex$1$[rsp]
	jbe	$LN1716@ZSTD_compr

; 216  :                 if (MEM_read64(matchL3) == MEM_read64(ip+1)) {

	mov	r14, QWORD PTR litLength$1$[rsp]
	mov	rax, QWORD PTR [r14]
	cmp	QWORD PTR [rsi], rax
	jne	SHORT $LN1716@ZSTD_compr

; 217  :                     mLength = ZSTD_count(ip+9, matchL3+8, iend) + 8;

	mov	r8, QWORD PTR iend$1$[rsp]
	lea	rdx, QWORD PTR [rsi+8]
	lea	rcx, QWORD PTR [r13+9]
	call	ZSTD_count

; 218  :                     ip++;
; 219  :                     offset = (U32)(ip-matchL3);
; 220  :                     while (((ip>anchor) & (matchL3>prefixLowest)) && (ip[-1] == matchL3[-1])) { ip--; matchL3--; mLength++; } /* catch up */

	mov	r8, QWORD PTR prefixLowest$1$[rsp]
	mov	ecx, r12d
	mov	r9d, r14d
	mov	r13, r14
	sub	r9d, esi
	cmp	r14, r15
	mov	DWORD PTR offset$1$[rsp], r9d
	lea	rdi, QWORD PTR [rax+8]
	mov	eax, r12d
	seta	cl
	cmp	rsi, r8
	seta	al
	test	ecx, eax
	je	$_match_found$2645
	npad	10
$LL1685@ZSTD_compr:
	movzx	eax, BYTE PTR [rsi-1]
	lea	rdx, QWORD PTR [r13-1]
	dec	rsi
	cmp	BYTE PTR [rdx], al
	jne	$_match_found$2645
	inc	rdi
	mov	ecx, r12d
	cmp	rsi, r8
	mov	eax, r12d
	mov	r13, rdx
	seta	cl
	cmp	rdx, r15
	seta	al
	test	ecx, eax
	jne	SHORT $LL1685@ZSTD_compr

; 221  :                     goto _match_found;

	jmp	SHORT $_match_found$2645
$LN1716@ZSTD_compr:

; 222  :                 }
; 223  :             } else if (dictMode == ZSTD_dictMatchState) {
; 224  :                 /* check dict long +1 match */
; 225  :                 U32 const dictMatchIndexL3 = dictHashLong[dictHLNext];
; 226  :                 const BYTE* dictMatchL3 = dictBase + dictMatchIndexL3;
; 227  :                 assert(dictMatchL3 < dictEnd);
; 228  :                 if (dictMatchL3 > dictStart && MEM_read64(dictMatchL3) == MEM_read64(ip+1)) {
; 229  :                     mLength = ZSTD_count_2segments(ip+1+8, dictMatchL3+8, iend, dictEnd, prefixLowest) + 8;
; 230  :                     ip++;
; 231  :                     offset = (U32)(current + 1 - dictMatchIndexL3 - dictIndexDelta);
; 232  :                     while (((ip>anchor) & (dictMatchL3>dictStart)) && (ip[-1] == dictMatchL3[-1])) { ip--; dictMatchL3--; mLength++; } /* catch up */
; 233  :                     goto _match_found;
; 234  :         }   }   }
; 235  : 
; 236  :         /* if no long +1 match, explore the short match we found */
; 237  :         if (dictMode == ZSTD_dictMatchState && matchIndexS < prefixLowestIndex) {
; 238  :             mLength = ZSTD_count_2segments(ip+4, match+4, iend, dictEnd, prefixLowest) + 4;
; 239  :             offset = (U32)(current - matchIndexS);
; 240  :             while (((ip>anchor) & (match>dictStart)) && (ip[-1] == match[-1])) { ip--; match--; mLength++; } /* catch up */
; 241  :         } else {
; 242  :             mLength = ZSTD_count(ip+4, match+4, iend) + 4;

	mov	r8, QWORD PTR iend$1$[rsp]
	lea	rdx, QWORD PTR [rbp+4]
	lea	rcx, QWORD PTR [r13+4]
	call	ZSTD_count

; 243  :             offset = (U32)(ip - match);
; 244  :             while (((ip>anchor) & (match>prefixLowest)) && (ip[-1] == match[-1])) { ip--; match--; mLength++; } /* catch up */

	mov	r8, QWORD PTR prefixLowest$1$[rsp]
	mov	ecx, r12d
	mov	r9d, r13d
	sub	r9d, ebp
	cmp	rbp, r8
	mov	DWORD PTR offset$1$[rsp], r9d
	lea	rdi, QWORD PTR [rax+4]
	mov	eax, r12d
	seta	cl
	cmp	r13, r15
	seta	al
	test	ecx, eax
	je	SHORT $_match_found$2645
	npad	3
$LL1691@ZSTD_compr:
	movzx	eax, BYTE PTR [rbp-1]
	lea	rdx, QWORD PTR [r13-1]
	dec	rbp
	cmp	BYTE PTR [rdx], al
	jne	SHORT $_match_found$2645
	inc	rdi
	mov	ecx, r12d
	cmp	rbp, r8
	mov	eax, r12d
	mov	r13, rdx
	seta	cl
	cmp	rdx, r15
	seta	al
	test	ecx, eax
	jne	SHORT $LL1691@ZSTD_compr
$_match_found$2645:

; 245  :         }
; 246  : 
; 247  :         /* fall-through */
; 248  : 
; 249  : _match_found:
; 250  :         offset_2 = offset_1;

	mov	ebp, DWORD PTR offset_1$1$[rsp]

; 253  :         ZSTD_storeSeq(seqStore, (size_t)(ip-anchor), anchor, iend, offset + ZSTD_REP_MOVE, mLength-MINMATCH);

	lea	r14, QWORD PTR [rdi-3]
; File E:\dev\pyzstd\lib\compress\zstd_compress_internal.h

; 442  :     BYTE const* const litEnd = literals + litLength;

	mov	rcx, QWORD PTR [rbx+24]
; File E:\dev\pyzstd\lib\compress\zstd_double_fast.c

; 253  :         ZSTD_storeSeq(seqStore, (size_t)(ip-anchor), anchor, iend, offset + ZSTD_REP_MOVE, mLength-MINMATCH);

	mov	rsi, r13
	sub	rsi, r15
	mov	DWORD PTR offset_2$1$[rsp], ebp
; File E:\dev\pyzstd\lib\compress\zstd_compress_internal.h

; 441  :     BYTE const* const litLimit_w = litLimit - WILDCOPY_OVERLENGTH;

	mov	rbp, QWORD PTR iend$1$[rsp]
	add	rbp, -32				; ffffffffffffffe0H
; File E:\dev\pyzstd\lib\compress\zstd_double_fast.c

; 251  :         offset_1 = offset;

	mov	DWORD PTR offset_1$1$[rsp], r9d
; File E:\dev\pyzstd\lib\compress\zstd_compress_internal.h

; 441  :     BYTE const* const litLimit_w = litLimit - WILDCOPY_OVERLENGTH;

	mov	QWORD PTR litLimit_w$1$[rsp], rbp

; 442  :     BYTE const* const litEnd = literals + litLength;

	lea	r8, QWORD PTR [r15+rsi]

; 443  : #if defined(DEBUGLEVEL) && (DEBUGLEVEL >= 6)
; 444  :     static const BYTE* g_start = NULL;
; 445  :     if (g_start==NULL) g_start = (const BYTE*)literals;  /* note : index only works for compression within a single segment */
; 446  :     {   U32 const pos = (U32)((const BYTE*)literals - g_start);
; 447  :         DEBUGLOG(6, "Cpos%7u :%3u literals, match%4u bytes at offCode%7u",
; 448  :                pos, (U32)litLength, (U32)mlBase+MINMATCH, (U32)offCode);
; 449  :     }
; 450  : #endif
; 451  :     assert((size_t)(seqStorePtr->sequences - seqStorePtr->sequencesStart) < seqStorePtr->maxNbSeq);
; 452  :     /* copy Literals */
; 453  :     assert(seqStorePtr->maxNbLit <= 128 KB);
; 454  :     assert(seqStorePtr->lit + litLength <= seqStorePtr->litStart + seqStorePtr->maxNbLit);
; 455  :     assert(literals + litLength <= litLimit);
; 456  :     if (litEnd <= litLimit_w) {

	cmp	r8, rbp
	ja	SHORT $LN2410@ZSTD_compr
; File E:\dev\pyzstd\lib\common\zstd_internal.h

; 243  :     memcpy(dst, src, 16);

	movups	xmm0, XMMWORD PTR [r15]
	movups	XMMWORD PTR [rcx], xmm0
; File E:\dev\pyzstd\lib\compress\zstd_compress_internal.h

; 462  :         if (litLength > 16) {

	cmp	rsi, 16
	jbe	SHORT $LN2411@ZSTD_compr

; 463  :             ZSTD_wildcopy(seqStorePtr->lit+16, literals+16, (ptrdiff_t)litLength-16, ZSTD_no_overlap);

	mov	rax, QWORD PTR [rbx+24]
	add	r15, 16
	add	rax, 16
; File E:\dev\pyzstd\lib\common\zstd_internal.h

; 270  :     BYTE* const oend = op + length;

	lea	rcx, QWORD PTR [rax-16]
	add	rcx, rsi
	npad	13
$LL2424@ZSTD_compr:

; 243  :     memcpy(dst, src, 16);

	movups	xmm0, XMMWORD PTR [r15]

; 289  :             COPY16(op, ip);

	lea	r15, QWORD PTR [r15+16]

; 243  :     memcpy(dst, src, 16);

	movups	XMMWORD PTR [rax], xmm0

; 289  :             COPY16(op, ip);

	add	rax, 16

; 290  :         }
; 291  :         while (op < oend);

	cmp	rax, rcx
	jb	SHORT $LL2424@ZSTD_compr
; File E:\dev\pyzstd\lib\compress\zstd_compress_internal.h

; 465  :     } else {

	jmp	SHORT $LN2411@ZSTD_compr
$LN2410@ZSTD_compr:

; 466  :         ZSTD_safecopyLiterals(seqStorePtr->lit, literals, litEnd, litLimit_w);

	mov	r9, rbp
	mov	rdx, r15
	call	ZSTD_safecopyLiterals
	mov	r9d, DWORD PTR offset$1$[rsp]
$LN2411@ZSTD_compr:

; 467  :     }
; 468  :     seqStorePtr->lit += litLength;

	add	QWORD PTR [rbx+24], rsi
	mov	rcx, QWORD PTR [rbx+8]

; 469  : 
; 470  :     /* literal Length */
; 471  :     if (litLength>0xFFFF) {

	cmp	rsi, 65535				; 0000ffffH
	jbe	SHORT $LN2573@ZSTD_compr

; 472  :         assert(seqStorePtr->longLengthID == 0); /* there can only be a single long length */
; 473  :         seqStorePtr->longLengthID = 1;
; 474  :         seqStorePtr->longLengthPos = (U32)(seqStorePtr->sequences - seqStorePtr->sequencesStart);

	mov	rax, rcx
	mov	DWORD PTR [rbx+72], 1
	sub	rax, QWORD PTR [rbx]
	sar	rax, 3
	mov	DWORD PTR [rbx+76], eax
$LN2573@ZSTD_compr:

; 475  :     }
; 476  :     seqStorePtr->sequences[0].litLength = (U16)litLength;

	mov	WORD PTR [rcx+4], si

; 477  : 
; 478  :     /* match offset */
; 479  :     seqStorePtr->sequences[0].offset = offCode + 1;

	lea	ecx, DWORD PTR [r9+3]
	mov	rax, QWORD PTR [rbx+8]
	mov	DWORD PTR [rax], ecx
$LN2632@ZSTD_compr:
; File E:\dev\pyzstd\lib\compress\zstd_double_fast.c

; 257  :         ip += mLength;

	mov	rcx, QWORD PTR [rbx+8]
	cmp	r14, 65535				; 0000ffffH
	jbe	SHORT $LN2574@ZSTD_compr
	mov	rax, rcx
	mov	DWORD PTR [rbx+72], 2
	sub	rax, QWORD PTR [rbx]
	sar	rax, 3
	mov	DWORD PTR [rbx+76], eax
$LN2574@ZSTD_compr:
	mov	WORD PTR [rcx+6], r14w
	add	QWORD PTR [rbx+8], 8
$_match_stored$2647:
	lea	r15, QWORD PTR [rdi+r13]
	mov	r13, r15

; 258  :         anchor = ip;

	cmp	r15, QWORD PTR ilimit$1$[rsp]

; 259  : 
; 260  :         if (ip <= ilimit) {

	ja	$LN2619@ZSTD_compr

; 261  :             /* Complementary insertion */
; 262  :             /* done after iLimit test, as candidates could be > iend-8 */
; 263  :             {   U32 const indexToInsert = current+2;

	mov	r14d, DWORD PTR current$1$[rsp]

; 264  :                 hashLong[ZSTD_hashPtr(base+indexToInsert, hBitsL, 8)] = indexToInsert;

	mov	r8d, 8
	mov	rdi, QWORD PTR base$1$[rsp]
	add	r14d, 2
	mov	edx, DWORD PTR hBitsL$1$[rsp]
	mov	ebp, r14d
	add	rbp, rdi
	mov	rcx, rbp
	call	ZSTD_hashPtr
	mov	rcx, QWORD PTR hashLong$1$[rsp]
	mov	esi, r15d

; 265  :                 hashLong[ZSTD_hashPtr(ip-2, hBitsL, 8)] = (U32)(ip-2-base);

	mov	edx, DWORD PTR hBitsL$1$[rsp]
	sub	esi, edi
	mov	r8d, 8
	mov	DWORD PTR [rcx+rax*4], r14d
	lea	rcx, QWORD PTR [r15-2]
	lea	edi, DWORD PTR [rsi-2]
	call	ZSTD_hashPtr
	mov	rcx, QWORD PTR hashLong$1$[rsp]

; 266  :                 hashSmall[ZSTD_hashPtr(base+indexToInsert, hBitsS, mls)] = indexToInsert;

	mov	r8d, 7
	mov	edx, DWORD PTR hBitsS$1$[rsp]
	mov	DWORD PTR [rcx+rax*4], edi
	mov	rcx, rbp
	call	ZSTD_hashPtr
	mov	rbp, QWORD PTR hashSmall$1$[rsp]

; 267  :                 hashSmall[ZSTD_hashPtr(ip-1, hBitsS, mls)] = (U32)(ip-1-base);

	lea	rcx, QWORD PTR [r15-1]
	mov	edx, DWORD PTR hBitsS$1$[rsp]
	lea	edi, DWORD PTR [rsi-1]
	mov	r8d, 7
	mov	DWORD PTR [rbp+rax*4], r14d
	call	ZSTD_hashPtr
	mov	r14, QWORD PTR litLimit_w$1$[rsp]
	mov	DWORD PTR [rbp+rax*4], edi
	mov	ebp, DWORD PTR offset_2$1$[rsp]
	npad	9
$LL1695@ZSTD_compr:

; 268  :             }
; 269  : 
; 270  :             /* check immediate repcode */
; 271  :             if (dictMode == ZSTD_dictMatchState) {
; 272  :                 while (ip <= ilimit) {
; 273  :                     U32 const current2 = (U32)(ip-base);
; 274  :                     U32 const repIndex2 = current2 - offset_2;
; 275  :                     const BYTE* repMatch2 = dictMode == ZSTD_dictMatchState
; 276  :                         && repIndex2 < prefixLowestIndex ?
; 277  :                             dictBase + repIndex2 - dictIndexDelta :
; 278  :                             base + repIndex2;
; 279  :                     if ( ((U32)((prefixLowestIndex-1) - (U32)repIndex2) >= 3 /* intentional overflow */)
; 280  :                        && (MEM_read32(repMatch2) == MEM_read32(ip)) ) {
; 281  :                         const BYTE* const repEnd2 = repIndex2 < prefixLowestIndex ? dictEnd : iend;
; 282  :                         size_t const repLength2 = ZSTD_count_2segments(ip+4, repMatch2+4, iend, repEnd2, prefixLowest) + 4;
; 283  :                         U32 tmpOffset = offset_2; offset_2 = offset_1; offset_1 = tmpOffset;   /* swap offset_2 <=> offset_1 */
; 284  :                         ZSTD_storeSeq(seqStore, 0, anchor, iend, 0, repLength2-MINMATCH);
; 285  :                         hashSmall[ZSTD_hashPtr(ip, hBitsS, mls)] = current2;
; 286  :                         hashLong[ZSTD_hashPtr(ip, hBitsL, 8)] = current2;
; 287  :                         ip += repLength2;
; 288  :                         anchor = ip;
; 289  :                         continue;
; 290  :                     }
; 291  :                     break;
; 292  :             }   }
; 293  : 
; 294  :             if (dictMode == ZSTD_noDict) {
; 295  :                 while ( (ip <= ilimit)
; 296  :                      && ( (offset_2>0)

	mov	eax, ebp
	mov	ecx, r12d
	mov	rdx, r13
	sub	rdx, rax
	mov	eax, DWORD PTR [rdx]
	cmp	DWORD PTR [r13], eax
	mov	eax, r12d
	sete	cl
	test	ebp, ebp
	setne	al
	test	ecx, eax
	je	$LN2623@ZSTD_compr

; 297  :                         & (MEM_read32(ip) == MEM_read32(ip - offset_2)) )) {
; 298  :                     /* store sequence */
; 299  :                     size_t const rLength = ZSTD_count(ip+4, ip+4-offset_2, iend) + 4;

	mov	r8, QWORD PTR iend$1$[rsp]
	lea	rcx, QWORD PTR [r13+4]
	add	rdx, 4
	call	ZSTD_count

; 300  :                     U32 const tmpOff = offset_2; offset_2 = offset_1; offset_1 = tmpOff;  /* swap offset_2 <=> offset_1 */
; 301  :                     hashSmall[ZSTD_hashPtr(ip, hBitsS, mls)] = (U32)(ip-base);

	mov	edx, DWORD PTR hBitsS$1$[rsp]
	mov	ecx, ebp
	mov	ebp, DWORD PTR offset_1$1$[rsp]
	mov	edi, r13d
	sub	edi, DWORD PTR base$1$[rsp]
	mov	r8d, 7
	mov	DWORD PTR offset_1$1$[rsp], ecx
	lea	rsi, QWORD PTR [rax+4]
	mov	rcx, r13
	mov	DWORD PTR offset_2$1$[rsp], ebp
	call	ZSTD_hashPtr
	mov	rcx, QWORD PTR hashSmall$1$[rsp]

; 302  :                     hashLong[ZSTD_hashPtr(ip, hBitsL, 8)] = (U32)(ip-base);

	mov	r8d, 8
	mov	edx, DWORD PTR hBitsL$1$[rsp]
	mov	DWORD PTR [rcx+rax*4], edi
	mov	rcx, r13
	call	ZSTD_hashPtr
	mov	rcx, QWORD PTR hashLong$1$[rsp]
	mov	DWORD PTR [rcx+rax*4], edi

; 303  :                     ZSTD_storeSeq(seqStore, 0, anchor, iend, 0, rLength-MINMATCH);

	lea	rdi, QWORD PTR [rsi-3]
; File E:\dev\pyzstd\lib\compress\zstd_compress_internal.h

; 442  :     BYTE const* const litEnd = literals + litLength;

	mov	rcx, QWORD PTR [rbx+24]

; 443  : #if defined(DEBUGLEVEL) && (DEBUGLEVEL >= 6)
; 444  :     static const BYTE* g_start = NULL;
; 445  :     if (g_start==NULL) g_start = (const BYTE*)literals;  /* note : index only works for compression within a single segment */
; 446  :     {   U32 const pos = (U32)((const BYTE*)literals - g_start);
; 447  :         DEBUGLOG(6, "Cpos%7u :%3u literals, match%4u bytes at offCode%7u",
; 448  :                pos, (U32)litLength, (U32)mlBase+MINMATCH, (U32)offCode);
; 449  :     }
; 450  : #endif
; 451  :     assert((size_t)(seqStorePtr->sequences - seqStorePtr->sequencesStart) < seqStorePtr->maxNbSeq);
; 452  :     /* copy Literals */
; 453  :     assert(seqStorePtr->maxNbLit <= 128 KB);
; 454  :     assert(seqStorePtr->lit + litLength <= seqStorePtr->litStart + seqStorePtr->maxNbLit);
; 455  :     assert(literals + litLength <= litLimit);
; 456  :     if (litEnd <= litLimit_w) {

	cmp	r15, r14
	ja	SHORT $LN2464@ZSTD_compr
; File E:\dev\pyzstd\lib\common\zstd_internal.h

; 243  :     memcpy(dst, src, 16);

	movups	xmm0, XMMWORD PTR [r15]
	movups	XMMWORD PTR [rcx], xmm0
; File E:\dev\pyzstd\lib\compress\zstd_compress_internal.h

; 465  :     } else {

	jmp	SHORT $LN2465@ZSTD_compr
$LN2464@ZSTD_compr:

; 466  :         ZSTD_safecopyLiterals(seqStorePtr->lit, literals, litEnd, litLimit_w);

	mov	r9, r14
	mov	r8, r15
	mov	rdx, r15
	call	ZSTD_safecopyLiterals
$LN2465@ZSTD_compr:

; 475  :     }
; 476  :     seqStorePtr->sequences[0].litLength = (U16)litLength;

	mov	rax, QWORD PTR [rbx+8]
	mov	WORD PTR [rax+4], r12w

; 477  : 
; 478  :     /* match offset */
; 479  :     seqStorePtr->sequences[0].offset = offCode + 1;

	mov	rax, QWORD PTR [rbx+8]
	mov	DWORD PTR [rax], 1
	mov	rcx, QWORD PTR [rbx+8]

; 480  : 
; 481  :     /* match Length */
; 482  :     if (mlBase>0xFFFF) {

	cmp	rdi, 65535				; 0000ffffH
	jbe	SHORT $LN2575@ZSTD_compr

; 485  :         seqStorePtr->longLengthPos = (U32)(seqStorePtr->sequences - seqStorePtr->sequencesStart);

	mov	rax, rcx
	mov	DWORD PTR [rbx+72], 2
	sub	rax, QWORD PTR [rbx]
	sar	rax, 3
	mov	DWORD PTR [rbx+76], eax
$LN2575@ZSTD_compr:
; File E:\dev\pyzstd\lib\compress\zstd_double_fast.c

; 304  :                     ip += rLength;

	add	r13, rsi
; File E:\dev\pyzstd\lib\compress\zstd_compress_internal.h

; 487  :     seqStorePtr->sequences[0].matchLength = (U16)mlBase;

	mov	WORD PTR [rcx+6], di

; 488  : 
; 489  :     seqStorePtr->sequences++;

	add	QWORD PTR [rbx+8], 8
; File E:\dev\pyzstd\lib\compress\zstd_double_fast.c

; 304  :                     ip += rLength;

	mov	r15, r13
	cmp	r13, QWORD PTR ilimit$1$[rsp]
	jbe	$LL1695@ZSTD_compr

; 305  :                     anchor = ip;
; 306  :                     continue;   /* faster when present ... (?) */
; 307  :         }   }   }
; 308  :     }   /* while (ip < ilimit) */

	jmp	SHORT $LN2623@ZSTD_compr
$LN1711@ZSTD_compr:
	mov	ebp, DWORD PTR offset_2$1$[rsp]

; 188  :                 goto _search_next_long;
; 189  :             }
; 190  :         } else if (dictMode == ZSTD_dictMatchState) {
; 191  :             /* check dictMatchState short match */
; 192  :             U32 const dictMatchIndexS = dictHashSmall[dictHS];
; 193  :             match = dictBase + dictMatchIndexS;
; 194  :             matchIndexS = dictMatchIndexS + dictIndexDelta;
; 195  : 
; 196  :             if (match > dictStart && MEM_read32(match) == MEM_read32(ip)) {
; 197  :                 goto _search_next_long;
; 198  :         }   }
; 199  : 
; 200  :         ip += ((ip-anchor) >> kSearchStrength) + 1;

	mov	rax, r13
	sub	rax, r15
	inc	r13
	sar	rax, 8
	add	r13, rax

; 259  : 
; 260  :         if (ip <= ilimit) {

	jmp	SHORT $LN2527@ZSTD_compr
$LN2619@ZSTD_compr:
	mov	ebp, DWORD PTR offset_2$1$[rsp]
$LN2623@ZSTD_compr:

; 125  :     while (ip < ilimit) {   /* < instead of <=, because repcode check at (ip+1) */

	mov	r10d, DWORD PTR offset_1$1$[rsp]
$LN2527@ZSTD_compr:
	mov	r14d, DWORD PTR hBitsL$1$[rsp]
	cmp	r13, QWORD PTR ilimit$1$[rsp]
	jb	$LL1679@ZSTD_compr

; 333  :     case 7 :
; 334  :         return ZSTD_compressBlock_doubleFast_generic(ms, seqStore, rep, src, srcSize, 7, ZSTD_noDict);

	mov	ecx, DWORD PTR tv11653[rsp]
	jmp	$LN2633@ZSTD_compr
$LN6@ZSTD_compr:

; 59   :     U32* const hashSmall = ms->chainTable;

	mov	rax, QWORD PTR [rdx+64]

; 61   :     const BYTE* const base = ms->window.base;
; 62   :     const BYTE* const istart = (const BYTE*)src;
; 63   :     const BYTE* ip = istart;
; 64   :     const BYTE* anchor = istart;
; 65   :     const U32 endIndex = (U32)((size_t)(istart - base) + srcSize);

	sub	r8d, ebp
	add	r8d, ecx
	mov	QWORD PTR hashSmall$1$[rsp], rax
	mov	eax, DWORD PTR [rdx+188]
; File E:\dev\pyzstd\lib\compress\zstd_compress_internal.h

; 991  :     U32    const maxDistance = 1U << windowLog;

	mov	ecx, DWORD PTR [rdx+184]
	shl	r10d, cl
; File E:\dev\pyzstd\lib\compress\zstd_double_fast.c

; 60   :     const U32 hBitsS = cParams->chainLog;

	mov	DWORD PTR hBitsS$1$[rsp], eax
; File E:\dev\pyzstd\lib\compress\zstd_compress_internal.h

; 993  :     U32    const withinWindow = (current - lowestValid > maxDistance) ? current - maxDistance : lowestValid;

	mov	eax, r8d
	sub	eax, edi
; File E:\dev\pyzstd\lib\compress\zstd_double_fast.c

; 58   :     const U32 hBitsL = cParams->hashLog;

	mov	DWORD PTR hBitsL$1$[rsp], r14d
; File E:\dev\pyzstd\lib\compress\zstd_compress_internal.h

; 994  :     U32    const isDictionary = (ms->loadedDictEnd != 0);

	sub	r8d, r10d
	cmp	eax, r10d
; File E:\dev\pyzstd\lib\compress\zstd_double_fast.c

; 70   :     const BYTE* const ilimit = iend - HASH_READ_SIZE;

	lea	rax, QWORD PTR [rsi-8]
	mov	QWORD PTR ilimit$1$[rsp], rax
; File E:\dev\pyzstd\lib\compress\zstd_compress_internal.h

; 994  :     U32    const isDictionary = (ms->loadedDictEnd != 0);

	cmovbe	r8d, edi
	test	r9d, r9d

; 995  :     U32    const matchLowest = isDictionary ? lowestValid : withinWindow;

	cmovne	r8d, edi
; File E:\dev\pyzstd\lib\compress\zstd_double_fast.c

; 68   :     const BYTE* const prefixLowest = base + prefixLowestIndex;

	mov	ecx, r8d
	add	rcx, rbp
; File E:\dev\pyzstd\lib\compress\zstd_compress_internal.h

; 995  :     U32    const matchLowest = isDictionary ? lowestValid : withinWindow;

	mov	DWORD PTR prefixLowestIndex$1$[rsp], r8d
; File E:\dev\pyzstd\lib\compress\zstd_double_fast.c

; 71   :     U32 offset_1=rep[0], offset_2=rep[1];

	mov	r8d, DWORD PTR [r12+4]

; 72   :     U32 offsetSaved = 0;
; 73   : 
; 74   :     const ZSTD_matchState_t* const dms = ms->dictMatchState;
; 75   :     const ZSTD_compressionParameters* const dictCParams =
; 76   :                                      dictMode == ZSTD_dictMatchState ?
; 77   :                                      &dms->cParams : NULL;
; 78   :     const U32* const dictHashLong  = dictMode == ZSTD_dictMatchState ?
; 79   :                                      dms->hashTable : NULL;
; 80   :     const U32* const dictHashSmall = dictMode == ZSTD_dictMatchState ?
; 81   :                                      dms->chainTable : NULL;
; 82   :     const U32 dictStartIndex       = dictMode == ZSTD_dictMatchState ?
; 83   :                                      dms->window.dictLimit : 0;
; 84   :     const BYTE* const dictBase     = dictMode == ZSTD_dictMatchState ?
; 85   :                                      dms->window.base : NULL;
; 86   :     const BYTE* const dictStart    = dictMode == ZSTD_dictMatchState ?
; 87   :                                      dictBase + dictStartIndex : NULL;
; 88   :     const BYTE* const dictEnd      = dictMode == ZSTD_dictMatchState ?
; 89   :                                      dms->window.nextSrc : NULL;
; 90   :     const U32 dictIndexDelta       = dictMode == ZSTD_dictMatchState ?
; 91   :                                      prefixLowestIndex - (U32)(dictEnd - dictBase) :
; 92   :                                      0;
; 93   :     const U32 dictHBitsL           = dictMode == ZSTD_dictMatchState ?
; 94   :                                      dictCParams->hashLog : hBitsL;
; 95   :     const U32 dictHBitsS           = dictMode == ZSTD_dictMatchState ?
; 96   :                                      dictCParams->chainLog : hBitsS;
; 97   :     const U32 dictAndPrefixLength  = (U32)((ip - prefixLowest) + (dictEnd - dictStart));
; 98   : 
; 99   :     DEBUGLOG(5, "ZSTD_compressBlock_doubleFast_generic");
; 100  : 
; 101  :     assert(dictMode == ZSTD_noDict || dictMode == ZSTD_dictMatchState);
; 102  : 
; 103  :     /* if a dictionary is attached, it must be within window range */
; 104  :     if (dictMode == ZSTD_dictMatchState) {
; 105  :         assert(ms->window.dictLimit + (1U << cParams->windowLog) >= endIndex);
; 106  :     }
; 107  : 
; 108  :     /* init */
; 109  :     ip += (dictAndPrefixLength == 0);

	xor	r12d, r12d
	cmp	r15d, ecx
	mov	QWORD PTR prefixLowest$1$[rsp], rcx
	mov	eax, r12d
	sete	al
	lea	r13, QWORD PTR [rax+r15]

; 110  :     if (dictMode == ZSTD_noDict) {
; 111  :         U32 const current = (U32)(ip - base);

	mov	edx, r13d
	sub	edx, ebp

; 114  :         if (offset_2 > maxRep) offsetSaved = offset_2, offset_2 = 0;
; 115  :         if (offset_1 > maxRep) offsetSaved = offset_1, offset_1 = 0;

	mov	ebp, r12d
; File E:\dev\pyzstd\lib\compress\zstd_compress_internal.h

; 993  :     U32    const withinWindow = (current - lowestValid > maxDistance) ? current - maxDistance : lowestValid;

	mov	eax, edx

; 994  :     U32    const isDictionary = (ms->loadedDictEnd != 0);

	mov	ecx, edx
	sub	ecx, r10d
	sub	eax, edi
	cmp	eax, r10d
; File E:\dev\pyzstd\lib\compress\zstd_double_fast.c

; 125  :     while (ip < ilimit) {   /* < instead of <=, because repcode check at (ip+1) */

	mov	r10d, r12d
	lea	rax, QWORD PTR [rsi-8]
; File E:\dev\pyzstd\lib\compress\zstd_compress_internal.h

; 994  :     U32    const isDictionary = (ms->loadedDictEnd != 0);

	cmovbe	ecx, edi
	test	r9d, r9d

; 995  :     U32    const matchLowest = isDictionary ? lowestValid : withinWindow;

	cmovne	ecx, edi
; File E:\dev\pyzstd\lib\compress\zstd_double_fast.c

; 113  :         U32 const maxRep = current - windowLow;

	sub	edx, ecx

; 125  :     while (ip < ilimit) {   /* < instead of <=, because repcode check at (ip+1) */

	mov	ecx, r11d
	cmp	r8d, edx
	cmovbe	ebp, r8d
	cmovbe	r8d, r12d
	cmp	r11d, edx
	cmovbe	ecx, r8d
	cmovbe	r10d, r11d
	mov	DWORD PTR tv11781[rsp], ecx
	cmp	r13, rax
	jae	$LN485@ZSTD_compr
; File E:\dev\pyzstd\lib\compress\zstd_compress_internal.h

; 485  :         seqStorePtr->longLengthPos = (U32)(seqStorePtr->sequences - seqStorePtr->sequencesStart);

	mov	DWORD PTR offset_2$1$[rsp], ebp
	mov	DWORD PTR offset_1$1$[rsp], r10d
	npad	5
$LL1037@ZSTD_compr:
; File E:\dev\pyzstd\lib\compress\zstd_double_fast.c

; 128  :         size_t const h2 = ZSTD_hashPtr(ip, hBitsL, 8);

	mov	r8d, 8
	mov	edx, r14d
	mov	rcx, r13
	call	ZSTD_hashPtr

; 129  :         size_t const h = ZSTD_hashPtr(ip, hBitsS, mls);

	mov	edx, DWORD PTR hBitsS$1$[rsp]
	mov	r8d, 6
	mov	rcx, r13
	mov	rsi, rax
	call	ZSTD_hashPtr

; 130  :         size_t const dictHL = ZSTD_hashPtr(ip, dictHBitsL, 8);

	mov	r8d, 8
	mov	edx, r14d
	mov	rcx, r13
	mov	rdi, rax
	call	ZSTD_hashPtr

; 131  :         size_t const dictHS = ZSTD_hashPtr(ip, dictHBitsS, mls);

	mov	edx, DWORD PTR hBitsS$1$[rsp]
	mov	r8d, 6
	mov	rcx, r13
	call	ZSTD_hashPtr

; 132  :         U32 const current = (U32)(ip-base);

	mov	rdx, QWORD PTR base$1$[rsp]
	mov	ecx, r13d

; 133  :         U32 const matchIndexL = hashLong[h2];
; 134  :         U32 matchIndexS = hashSmall[h];

	mov	r10, QWORD PTR hashSmall$1$[rsp]
	sub	ecx, edx
	mov	r11, QWORD PTR hashLong$1$[rsp]
	mov	DWORD PTR current$1$[rsp], ecx
	mov	r9d, DWORD PTR [r10+rdi*4]
	mov	r8d, DWORD PTR [r11+rsi*4]

; 135  :         const BYTE* matchLong = base + matchIndexL;
; 136  :         const BYTE* match = base + matchIndexS;
; 137  :         const U32 repIndex = current + 1 - offset_1;
; 138  :         const BYTE* repMatch = (dictMode == ZSTD_dictMatchState
; 139  :                             && repIndex < prefixLowestIndex) ?
; 140  :                                dictBase + (repIndex - dictIndexDelta) :
; 141  :                                base + repIndex;
; 142  :         hashLong[h2] = hashSmall[h] = current;   /* update hash tables */

	mov	DWORD PTR [r10+rdi*4], ecx

; 143  : 
; 144  :         /* check dictMatchState repcode */
; 145  :         if (dictMode == ZSTD_dictMatchState
; 146  :             && ((U32)((prefixLowestIndex-1) - repIndex) >= 3 /* intentional underflow */)
; 147  :             && (MEM_read32(repMatch) == MEM_read32(ip+1)) ) {
; 148  :             const BYTE* repMatchEnd = repIndex < prefixLowestIndex ? dictEnd : iend;
; 149  :             mLength = ZSTD_count_2segments(ip+1+4, repMatch+4, iend, repMatchEnd, prefixLowest) + 4;
; 150  :             ip++;
; 151  :             ZSTD_storeSeq(seqStore, (size_t)(ip-anchor), anchor, iend, 0, mLength-MINMATCH);
; 152  :             goto _match_stored;
; 153  :         }
; 154  : 
; 155  :         /* check noDict repcode */
; 156  :         if ( dictMode == ZSTD_noDict
; 157  :           && ((offset_1 > 0) & (MEM_read32(ip+1-offset_1) == MEM_read32(ip+1)))) {

	mov	r10d, DWORD PTR offset_1$1$[rsp]
	mov	DWORD PTR [r11+rsi*4], ecx
	lea	rbp, QWORD PTR [rdx+r9]
	mov	eax, DWORD PTR [r13+1]
	lea	r14, QWORD PTR [rdx+r8]
	lea	rsi, QWORD PTR [r13+1]
	mov	ecx, r12d
	mov	rdx, r13
	mov	QWORD PTR litLength$1$[rsp], rsi
	sub	rdx, r10
	cmp	DWORD PTR [rdx+1], eax
	mov	eax, r12d
	sete	cl
	test	r10d, r10d
	setne	al
	test	ecx, eax
	je	$LN1061@ZSTD_compr

; 158  :             mLength = ZSTD_count(ip+1+4, ip+1+4-offset_1, iend) + 4;

	mov	rbp, QWORD PTR iend$1$[rsp]
	lea	rcx, QWORD PTR [r13+5]
	mov	r8, rbp
	add	rdx, 5
	call	ZSTD_count
; File E:\dev\pyzstd\lib\compress\zstd_compress_internal.h

; 442  :     BYTE const* const litEnd = literals + litLength;

	mov	rcx, QWORD PTR [rbx+24]
	add	rbp, -32				; ffffffffffffffe0H
; File E:\dev\pyzstd\lib\compress\zstd_double_fast.c

; 159  :             ip++;

	mov	r13, rsi
; File E:\dev\pyzstd\lib\compress\zstd_compress_internal.h

; 441  :     BYTE const* const litLimit_w = litLimit - WILDCOPY_OVERLENGTH;

	mov	QWORD PTR litLimit_w$1$[rsp], rbp
; File E:\dev\pyzstd\lib\compress\zstd_double_fast.c

; 160  :             ZSTD_storeSeq(seqStore, (size_t)(ip-anchor), anchor, iend, 0, mLength-MINMATCH);

	sub	rsi, r15
	lea	rdi, QWORD PTR [rax+4]
	lea	r14, QWORD PTR [rdi-3]
; File E:\dev\pyzstd\lib\compress\zstd_compress_internal.h

; 442  :     BYTE const* const litEnd = literals + litLength;

	lea	r8, QWORD PTR [rsi+r15]

; 443  : #if defined(DEBUGLEVEL) && (DEBUGLEVEL >= 6)
; 444  :     static const BYTE* g_start = NULL;
; 445  :     if (g_start==NULL) g_start = (const BYTE*)literals;  /* note : index only works for compression within a single segment */
; 446  :     {   U32 const pos = (U32)((const BYTE*)literals - g_start);
; 447  :         DEBUGLOG(6, "Cpos%7u :%3u literals, match%4u bytes at offCode%7u",
; 448  :                pos, (U32)litLength, (U32)mlBase+MINMATCH, (U32)offCode);
; 449  :     }
; 450  : #endif
; 451  :     assert((size_t)(seqStorePtr->sequences - seqStorePtr->sequencesStart) < seqStorePtr->maxNbSeq);
; 452  :     /* copy Literals */
; 453  :     assert(seqStorePtr->maxNbLit <= 128 KB);
; 454  :     assert(seqStorePtr->lit + litLength <= seqStorePtr->litStart + seqStorePtr->maxNbLit);
; 455  :     assert(literals + litLength <= litLimit);
; 456  :     if (litEnd <= litLimit_w) {

	cmp	r8, rbp
	ja	SHORT $LN1471@ZSTD_compr
; File E:\dev\pyzstd\lib\common\zstd_internal.h

; 243  :     memcpy(dst, src, 16);

	movups	xmm0, XMMWORD PTR [r15]
	movups	XMMWORD PTR [rcx], xmm0
; File E:\dev\pyzstd\lib\compress\zstd_compress_internal.h

; 462  :         if (litLength > 16) {

	cmp	rsi, 16
	jbe	SHORT $LN1472@ZSTD_compr

; 463  :             ZSTD_wildcopy(seqStorePtr->lit+16, literals+16, (ptrdiff_t)litLength-16, ZSTD_no_overlap);

	mov	rax, QWORD PTR [rbx+24]
	add	r15, 16
	add	rax, 16
; File E:\dev\pyzstd\lib\common\zstd_internal.h

; 270  :     BYTE* const oend = op + length;

	lea	rcx, QWORD PTR [rax-16]
	add	rcx, rsi
	npad	6
$LL1485@ZSTD_compr:

; 243  :     memcpy(dst, src, 16);

	movups	xmm0, XMMWORD PTR [r15]

; 289  :             COPY16(op, ip);

	lea	r15, QWORD PTR [r15+16]

; 243  :     memcpy(dst, src, 16);

	movups	XMMWORD PTR [rax], xmm0

; 289  :             COPY16(op, ip);

	add	rax, 16

; 290  :         }
; 291  :         while (op < oend);

	cmp	rax, rcx
	jb	SHORT $LL1485@ZSTD_compr
; File E:\dev\pyzstd\lib\compress\zstd_compress_internal.h

; 465  :     } else {

	jmp	SHORT $LN1472@ZSTD_compr
$LN1471@ZSTD_compr:

; 466  :         ZSTD_safecopyLiterals(seqStorePtr->lit, literals, litEnd, litLimit_w);

	mov	r9, rbp
	mov	rdx, r15
	call	ZSTD_safecopyLiterals
$LN1472@ZSTD_compr:

; 467  :     }
; 468  :     seqStorePtr->lit += litLength;

	add	QWORD PTR [rbx+24], rsi
	mov	rcx, QWORD PTR [rbx+8]

; 469  : 
; 470  :     /* literal Length */
; 471  :     if (litLength>0xFFFF) {

	cmp	rsi, 65535				; 0000ffffH
	jbe	SHORT $LN2576@ZSTD_compr

; 472  :         assert(seqStorePtr->longLengthID == 0); /* there can only be a single long length */
; 473  :         seqStorePtr->longLengthID = 1;
; 474  :         seqStorePtr->longLengthPos = (U32)(seqStorePtr->sequences - seqStorePtr->sequencesStart);

	mov	rax, rcx
	mov	DWORD PTR [rbx+72], 1
	sub	rax, QWORD PTR [rbx]
	sar	rax, 3
	mov	DWORD PTR [rbx+76], eax
$LN2576@ZSTD_compr:

; 475  :     }
; 476  :     seqStorePtr->sequences[0].litLength = (U16)litLength;

	mov	WORD PTR [rcx+4], si

; 477  : 
; 478  :     /* match offset */
; 479  :     seqStorePtr->sequences[0].offset = offCode + 1;

	mov	rax, QWORD PTR [rbx+8]
	mov	DWORD PTR [rax], 1
; File E:\dev\pyzstd\lib\compress\zstd_double_fast.c

; 161  :             goto _match_stored;

	jmp	$LN2636@ZSTD_compr
$LN1061@ZSTD_compr:

; 162  :         }
; 163  : 
; 164  :         if (matchIndexL > prefixLowestIndex) {

	mov	ecx, DWORD PTR prefixLowestIndex$1$[rsp]
	cmp	r8d, ecx
	jbe	$LN1064@ZSTD_compr

; 165  :             /* check prefix long match */
; 166  :             if (MEM_read64(matchLong) == MEM_read64(ip)) {

	mov	rax, QWORD PTR [r13]
	cmp	QWORD PTR [r14], rax
	jne	SHORT $LN1064@ZSTD_compr

; 167  :                 mLength = ZSTD_count(ip+8, matchLong+8, iend) + 8;

	mov	r8, QWORD PTR iend$1$[rsp]
	lea	rdx, QWORD PTR [r14+8]
	lea	rcx, QWORD PTR [r13+8]
	call	ZSTD_count

; 168  :                 offset = (U32)(ip-matchLong);
; 169  :                 while (((ip>anchor) & (matchLong>prefixLowest)) && (ip[-1] == matchLong[-1])) { ip--; matchLong--; mLength++; } /* catch up */

	mov	r8, QWORD PTR prefixLowest$1$[rsp]
	mov	ecx, r12d
	mov	r9d, r13d
	sub	r9d, r14d
	cmp	r14, r8
	mov	DWORD PTR offset$1$[rsp], r9d
	lea	rdi, QWORD PTR [rax+8]
	mov	eax, r12d
	seta	cl
	cmp	r13, r15
	seta	al
	test	ecx, eax
	je	$_match_found$2648
	npad	1
$LL1039@ZSTD_compr:
	movzx	eax, BYTE PTR [r14-1]
	lea	rdx, QWORD PTR [r13-1]
	dec	r14
	cmp	BYTE PTR [rdx], al
	jne	$_match_found$2648
	inc	rdi
	mov	ecx, r12d
	cmp	r14, r8
	mov	eax, r12d
	mov	r13, rdx
	seta	cl
	cmp	rdx, r15
	seta	al
	test	ecx, eax
	jne	SHORT $LL1039@ZSTD_compr

; 170  :                 goto _match_found;

	jmp	$_match_found$2648
$LN1064@ZSTD_compr:

; 171  :             }
; 172  :         } else if (dictMode == ZSTD_dictMatchState) {
; 173  :             /* check dictMatchState long match */
; 174  :             U32 const dictMatchIndexL = dictHashLong[dictHL];
; 175  :             const BYTE* dictMatchL = dictBase + dictMatchIndexL;
; 176  :             assert(dictMatchL < dictEnd);
; 177  : 
; 178  :             if (dictMatchL > dictStart && MEM_read64(dictMatchL) == MEM_read64(ip)) {
; 179  :                 mLength = ZSTD_count_2segments(ip+8, dictMatchL+8, iend, dictEnd, prefixLowest) + 8;
; 180  :                 offset = (U32)(current - dictMatchIndexL - dictIndexDelta);
; 181  :                 while (((ip>anchor) & (dictMatchL>dictStart)) && (ip[-1] == dictMatchL[-1])) { ip--; dictMatchL--; mLength++; } /* catch up */
; 182  :                 goto _match_found;
; 183  :         }   }
; 184  : 
; 185  :         if (matchIndexS > prefixLowestIndex) {

	cmp	r9d, ecx
	jbe	$LN1069@ZSTD_compr

; 186  :             /* check prefix short match */
; 187  :             if (MEM_read32(match) == MEM_read32(ip)) {

	mov	eax, DWORD PTR [r13]
	cmp	DWORD PTR [rbp], eax
	jne	$LN1069@ZSTD_compr
$_search_next_long$2649:

; 201  : #if defined(__aarch64__)
; 202  :         PREFETCH_L1(ip+256);
; 203  : #endif
; 204  :         continue;
; 205  : 
; 206  : _search_next_long:
; 207  : 
; 208  :         {   size_t const hl3 = ZSTD_hashPtr(ip+1, hBitsL, 8);

	mov	edx, DWORD PTR hBitsL$1$[rsp]
	mov	r8d, 8
	mov	rcx, rsi
	call	ZSTD_hashPtr

; 209  :             size_t const dictHLNext = ZSTD_hashPtr(ip+1, dictHBitsL, 8);

	mov	edx, DWORD PTR hBitsL$1$[rsp]
	mov	r8d, 8
	mov	rcx, rsi
	mov	rdi, rax
	call	ZSTD_hashPtr

; 210  :             U32 const matchIndexL3 = hashLong[hl3];

	mov	r8, QWORD PTR hashLong$1$[rsp]

; 211  :             const BYTE* matchL3 = base + matchIndexL3;
; 212  :             hashLong[hl3] = current + 1;

	mov	eax, DWORD PTR current$1$[rsp]
	mov	ecx, DWORD PTR [r8+rdi*4]
	mov	esi, ecx
	add	rsi, QWORD PTR base$1$[rsp]
	inc	eax
	mov	DWORD PTR [r8+rdi*4], eax

; 213  : 
; 214  :             /* check prefix long +1 match */
; 215  :             if (matchIndexL3 > prefixLowestIndex) {

	cmp	ecx, DWORD PTR prefixLowestIndex$1$[rsp]
	jbe	$LN1074@ZSTD_compr

; 216  :                 if (MEM_read64(matchL3) == MEM_read64(ip+1)) {

	mov	r14, QWORD PTR litLength$1$[rsp]
	mov	rax, QWORD PTR [r14]
	cmp	QWORD PTR [rsi], rax
	jne	SHORT $LN1074@ZSTD_compr

; 217  :                     mLength = ZSTD_count(ip+9, matchL3+8, iend) + 8;

	mov	r8, QWORD PTR iend$1$[rsp]
	lea	rdx, QWORD PTR [rsi+8]
	lea	rcx, QWORD PTR [r13+9]
	call	ZSTD_count

; 218  :                     ip++;
; 219  :                     offset = (U32)(ip-matchL3);
; 220  :                     while (((ip>anchor) & (matchL3>prefixLowest)) && (ip[-1] == matchL3[-1])) { ip--; matchL3--; mLength++; } /* catch up */

	mov	r8, QWORD PTR prefixLowest$1$[rsp]
	mov	ecx, r12d
	mov	r9d, r14d
	mov	r13, r14
	sub	r9d, esi
	cmp	rsi, r8
	mov	DWORD PTR offset$1$[rsp], r9d
	lea	rdi, QWORD PTR [rax+8]
	mov	eax, r12d
	seta	cl
	cmp	r14, r15
	seta	al
	test	ecx, eax
	je	$_match_found$2648
	npad	10
$LL1043@ZSTD_compr:
	movzx	eax, BYTE PTR [rsi-1]
	lea	rdx, QWORD PTR [r13-1]
	dec	rsi
	cmp	BYTE PTR [rdx], al
	jne	$_match_found$2648
	inc	rdi
	mov	ecx, r12d
	cmp	rsi, r8
	mov	eax, r12d
	mov	r13, rdx
	seta	cl
	cmp	rdx, r15
	seta	al
	test	ecx, eax
	jne	SHORT $LL1043@ZSTD_compr

; 221  :                     goto _match_found;

	jmp	SHORT $_match_found$2648
$LN1074@ZSTD_compr:

; 222  :                 }
; 223  :             } else if (dictMode == ZSTD_dictMatchState) {
; 224  :                 /* check dict long +1 match */
; 225  :                 U32 const dictMatchIndexL3 = dictHashLong[dictHLNext];
; 226  :                 const BYTE* dictMatchL3 = dictBase + dictMatchIndexL3;
; 227  :                 assert(dictMatchL3 < dictEnd);
; 228  :                 if (dictMatchL3 > dictStart && MEM_read64(dictMatchL3) == MEM_read64(ip+1)) {
; 229  :                     mLength = ZSTD_count_2segments(ip+1+8, dictMatchL3+8, iend, dictEnd, prefixLowest) + 8;
; 230  :                     ip++;
; 231  :                     offset = (U32)(current + 1 - dictMatchIndexL3 - dictIndexDelta);
; 232  :                     while (((ip>anchor) & (dictMatchL3>dictStart)) && (ip[-1] == dictMatchL3[-1])) { ip--; dictMatchL3--; mLength++; } /* catch up */
; 233  :                     goto _match_found;
; 234  :         }   }   }
; 235  : 
; 236  :         /* if no long +1 match, explore the short match we found */
; 237  :         if (dictMode == ZSTD_dictMatchState && matchIndexS < prefixLowestIndex) {
; 238  :             mLength = ZSTD_count_2segments(ip+4, match+4, iend, dictEnd, prefixLowest) + 4;
; 239  :             offset = (U32)(current - matchIndexS);
; 240  :             while (((ip>anchor) & (match>dictStart)) && (ip[-1] == match[-1])) { ip--; match--; mLength++; } /* catch up */
; 241  :         } else {
; 242  :             mLength = ZSTD_count(ip+4, match+4, iend) + 4;

	mov	r8, QWORD PTR iend$1$[rsp]
	lea	rdx, QWORD PTR [rbp+4]
	lea	rcx, QWORD PTR [r13+4]
	call	ZSTD_count

; 243  :             offset = (U32)(ip - match);
; 244  :             while (((ip>anchor) & (match>prefixLowest)) && (ip[-1] == match[-1])) { ip--; match--; mLength++; } /* catch up */

	mov	r8, QWORD PTR prefixLowest$1$[rsp]
	mov	ecx, r12d
	mov	r9d, r13d
	sub	r9d, ebp
	cmp	rbp, r8
	mov	DWORD PTR offset$1$[rsp], r9d
	lea	rdi, QWORD PTR [rax+4]
	mov	eax, r12d
	seta	cl
	cmp	r13, r15
	seta	al
	test	ecx, eax
	je	SHORT $_match_found$2648
	npad	3
$LL1049@ZSTD_compr:
	movzx	eax, BYTE PTR [rbp-1]
	lea	rdx, QWORD PTR [r13-1]
	dec	rbp
	cmp	BYTE PTR [rdx], al
	jne	SHORT $_match_found$2648
	inc	rdi
	mov	ecx, r12d
	cmp	rbp, r8
	mov	eax, r12d
	mov	r13, rdx
	seta	cl
	cmp	rdx, r15
	seta	al
	test	ecx, eax
	jne	SHORT $LL1049@ZSTD_compr
$_match_found$2648:

; 245  :         }
; 246  : 
; 247  :         /* fall-through */
; 248  : 
; 249  : _match_found:
; 250  :         offset_2 = offset_1;

	mov	ebp, DWORD PTR offset_1$1$[rsp]

; 253  :         ZSTD_storeSeq(seqStore, (size_t)(ip-anchor), anchor, iend, offset + ZSTD_REP_MOVE, mLength-MINMATCH);

	lea	r14, QWORD PTR [rdi-3]
; File E:\dev\pyzstd\lib\compress\zstd_compress_internal.h

; 442  :     BYTE const* const litEnd = literals + litLength;

	mov	rcx, QWORD PTR [rbx+24]
; File E:\dev\pyzstd\lib\compress\zstd_double_fast.c

; 253  :         ZSTD_storeSeq(seqStore, (size_t)(ip-anchor), anchor, iend, offset + ZSTD_REP_MOVE, mLength-MINMATCH);

	mov	rsi, r13
	sub	rsi, r15
	mov	DWORD PTR offset_2$1$[rsp], ebp
; File E:\dev\pyzstd\lib\compress\zstd_compress_internal.h

; 441  :     BYTE const* const litLimit_w = litLimit - WILDCOPY_OVERLENGTH;

	mov	rbp, QWORD PTR iend$1$[rsp]
	add	rbp, -32				; ffffffffffffffe0H
; File E:\dev\pyzstd\lib\compress\zstd_double_fast.c

; 251  :         offset_1 = offset;

	mov	DWORD PTR offset_1$1$[rsp], r9d
; File E:\dev\pyzstd\lib\compress\zstd_compress_internal.h

; 441  :     BYTE const* const litLimit_w = litLimit - WILDCOPY_OVERLENGTH;

	mov	QWORD PTR litLimit_w$1$[rsp], rbp

; 442  :     BYTE const* const litEnd = literals + litLength;

	lea	r8, QWORD PTR [r15+rsi]

; 443  : #if defined(DEBUGLEVEL) && (DEBUGLEVEL >= 6)
; 444  :     static const BYTE* g_start = NULL;
; 445  :     if (g_start==NULL) g_start = (const BYTE*)literals;  /* note : index only works for compression within a single segment */
; 446  :     {   U32 const pos = (U32)((const BYTE*)literals - g_start);
; 447  :         DEBUGLOG(6, "Cpos%7u :%3u literals, match%4u bytes at offCode%7u",
; 448  :                pos, (U32)litLength, (U32)mlBase+MINMATCH, (U32)offCode);
; 449  :     }
; 450  : #endif
; 451  :     assert((size_t)(seqStorePtr->sequences - seqStorePtr->sequencesStart) < seqStorePtr->maxNbSeq);
; 452  :     /* copy Literals */
; 453  :     assert(seqStorePtr->maxNbLit <= 128 KB);
; 454  :     assert(seqStorePtr->lit + litLength <= seqStorePtr->litStart + seqStorePtr->maxNbLit);
; 455  :     assert(literals + litLength <= litLimit);
; 456  :     if (litEnd <= litLimit_w) {

	cmp	r8, rbp
	ja	SHORT $LN1602@ZSTD_compr
; File E:\dev\pyzstd\lib\common\zstd_internal.h

; 243  :     memcpy(dst, src, 16);

	movups	xmm0, XMMWORD PTR [r15]
	movups	XMMWORD PTR [rcx], xmm0
; File E:\dev\pyzstd\lib\compress\zstd_compress_internal.h

; 462  :         if (litLength > 16) {

	cmp	rsi, 16
	jbe	SHORT $LN1603@ZSTD_compr

; 463  :             ZSTD_wildcopy(seqStorePtr->lit+16, literals+16, (ptrdiff_t)litLength-16, ZSTD_no_overlap);

	mov	rax, QWORD PTR [rbx+24]
	add	r15, 16
	add	rax, 16
; File E:\dev\pyzstd\lib\common\zstd_internal.h

; 270  :     BYTE* const oend = op + length;

	lea	rcx, QWORD PTR [rax-16]
	add	rcx, rsi
	npad	13
$LL1616@ZSTD_compr:

; 243  :     memcpy(dst, src, 16);

	movups	xmm0, XMMWORD PTR [r15]

; 289  :             COPY16(op, ip);

	lea	r15, QWORD PTR [r15+16]

; 243  :     memcpy(dst, src, 16);

	movups	XMMWORD PTR [rax], xmm0

; 289  :             COPY16(op, ip);

	add	rax, 16

; 290  :         }
; 291  :         while (op < oend);

	cmp	rax, rcx
	jb	SHORT $LL1616@ZSTD_compr
; File E:\dev\pyzstd\lib\compress\zstd_compress_internal.h

; 465  :     } else {

	jmp	SHORT $LN1603@ZSTD_compr
$LN1602@ZSTD_compr:

; 466  :         ZSTD_safecopyLiterals(seqStorePtr->lit, literals, litEnd, litLimit_w);

	mov	r9, rbp
	mov	rdx, r15
	call	ZSTD_safecopyLiterals
	mov	r9d, DWORD PTR offset$1$[rsp]
$LN1603@ZSTD_compr:

; 467  :     }
; 468  :     seqStorePtr->lit += litLength;

	add	QWORD PTR [rbx+24], rsi
	mov	rcx, QWORD PTR [rbx+8]

; 469  : 
; 470  :     /* literal Length */
; 471  :     if (litLength>0xFFFF) {

	cmp	rsi, 65535				; 0000ffffH
	jbe	SHORT $LN2578@ZSTD_compr

; 472  :         assert(seqStorePtr->longLengthID == 0); /* there can only be a single long length */
; 473  :         seqStorePtr->longLengthID = 1;
; 474  :         seqStorePtr->longLengthPos = (U32)(seqStorePtr->sequences - seqStorePtr->sequencesStart);

	mov	rax, rcx
	mov	DWORD PTR [rbx+72], 1
	sub	rax, QWORD PTR [rbx]
	sar	rax, 3
	mov	DWORD PTR [rbx+76], eax
$LN2578@ZSTD_compr:

; 475  :     }
; 476  :     seqStorePtr->sequences[0].litLength = (U16)litLength;

	mov	WORD PTR [rcx+4], si

; 477  : 
; 478  :     /* match offset */
; 479  :     seqStorePtr->sequences[0].offset = offCode + 1;

	lea	ecx, DWORD PTR [r9+3]
	mov	rax, QWORD PTR [rbx+8]
	mov	DWORD PTR [rax], ecx
$LN2636@ZSTD_compr:
; File E:\dev\pyzstd\lib\compress\zstd_double_fast.c

; 257  :         ip += mLength;

	mov	rcx, QWORD PTR [rbx+8]
	cmp	r14, 65535				; 0000ffffH
	jbe	SHORT $LN2579@ZSTD_compr
	mov	rax, rcx
	mov	DWORD PTR [rbx+72], 2
	sub	rax, QWORD PTR [rbx]
	sar	rax, 3
	mov	DWORD PTR [rbx+76], eax
$LN2579@ZSTD_compr:
	mov	WORD PTR [rcx+6], r14w
	add	QWORD PTR [rbx+8], 8
$_match_stored$2650:
	lea	r15, QWORD PTR [rdi+r13]
	mov	r13, r15

; 258  :         anchor = ip;

	cmp	r15, QWORD PTR ilimit$1$[rsp]

; 259  : 
; 260  :         if (ip <= ilimit) {

	ja	$LN2620@ZSTD_compr

; 261  :             /* Complementary insertion */
; 262  :             /* done after iLimit test, as candidates could be > iend-8 */
; 263  :             {   U32 const indexToInsert = current+2;

	mov	r14d, DWORD PTR current$1$[rsp]

; 264  :                 hashLong[ZSTD_hashPtr(base+indexToInsert, hBitsL, 8)] = indexToInsert;

	mov	r8d, 8
	mov	rdi, QWORD PTR base$1$[rsp]
	add	r14d, 2
	mov	edx, DWORD PTR hBitsL$1$[rsp]
	mov	ebp, r14d
	add	rbp, rdi
	mov	rcx, rbp
	call	ZSTD_hashPtr
	mov	rcx, QWORD PTR hashLong$1$[rsp]
	mov	esi, r15d

; 265  :                 hashLong[ZSTD_hashPtr(ip-2, hBitsL, 8)] = (U32)(ip-2-base);

	mov	edx, DWORD PTR hBitsL$1$[rsp]
	sub	esi, edi
	mov	r8d, 8
	mov	DWORD PTR [rcx+rax*4], r14d
	lea	rcx, QWORD PTR [r15-2]
	lea	edi, DWORD PTR [rsi-2]
	call	ZSTD_hashPtr
	mov	rcx, QWORD PTR hashLong$1$[rsp]

; 266  :                 hashSmall[ZSTD_hashPtr(base+indexToInsert, hBitsS, mls)] = indexToInsert;

	mov	r8d, 6
	mov	edx, DWORD PTR hBitsS$1$[rsp]
	mov	DWORD PTR [rcx+rax*4], edi
	mov	rcx, rbp
	call	ZSTD_hashPtr
	mov	rbp, QWORD PTR hashSmall$1$[rsp]

; 267  :                 hashSmall[ZSTD_hashPtr(ip-1, hBitsS, mls)] = (U32)(ip-1-base);

	lea	rcx, QWORD PTR [r15-1]
	mov	edx, DWORD PTR hBitsS$1$[rsp]
	lea	edi, DWORD PTR [rsi-1]
	mov	r8d, 6
	mov	DWORD PTR [rbp+rax*4], r14d
	call	ZSTD_hashPtr
	mov	r14, QWORD PTR litLimit_w$1$[rsp]
	mov	DWORD PTR [rbp+rax*4], edi
	mov	ebp, DWORD PTR offset_2$1$[rsp]
	npad	9
$LL1053@ZSTD_compr:

; 268  :             }
; 269  : 
; 270  :             /* check immediate repcode */
; 271  :             if (dictMode == ZSTD_dictMatchState) {
; 272  :                 while (ip <= ilimit) {
; 273  :                     U32 const current2 = (U32)(ip-base);
; 274  :                     U32 const repIndex2 = current2 - offset_2;
; 275  :                     const BYTE* repMatch2 = dictMode == ZSTD_dictMatchState
; 276  :                         && repIndex2 < prefixLowestIndex ?
; 277  :                             dictBase + repIndex2 - dictIndexDelta :
; 278  :                             base + repIndex2;
; 279  :                     if ( ((U32)((prefixLowestIndex-1) - (U32)repIndex2) >= 3 /* intentional overflow */)
; 280  :                        && (MEM_read32(repMatch2) == MEM_read32(ip)) ) {
; 281  :                         const BYTE* const repEnd2 = repIndex2 < prefixLowestIndex ? dictEnd : iend;
; 282  :                         size_t const repLength2 = ZSTD_count_2segments(ip+4, repMatch2+4, iend, repEnd2, prefixLowest) + 4;
; 283  :                         U32 tmpOffset = offset_2; offset_2 = offset_1; offset_1 = tmpOffset;   /* swap offset_2 <=> offset_1 */
; 284  :                         ZSTD_storeSeq(seqStore, 0, anchor, iend, 0, repLength2-MINMATCH);
; 285  :                         hashSmall[ZSTD_hashPtr(ip, hBitsS, mls)] = current2;
; 286  :                         hashLong[ZSTD_hashPtr(ip, hBitsL, 8)] = current2;
; 287  :                         ip += repLength2;
; 288  :                         anchor = ip;
; 289  :                         continue;
; 290  :                     }
; 291  :                     break;
; 292  :             }   }
; 293  : 
; 294  :             if (dictMode == ZSTD_noDict) {
; 295  :                 while ( (ip <= ilimit)
; 296  :                      && ( (offset_2>0)

	mov	eax, ebp
	mov	ecx, r12d
	mov	rdx, r13
	sub	rdx, rax
	mov	eax, DWORD PTR [rdx]
	cmp	DWORD PTR [r13], eax
	mov	eax, r12d
	sete	cl
	test	ebp, ebp
	setne	al
	test	ecx, eax
	je	$LN2624@ZSTD_compr

; 297  :                         & (MEM_read32(ip) == MEM_read32(ip - offset_2)) )) {
; 298  :                     /* store sequence */
; 299  :                     size_t const rLength = ZSTD_count(ip+4, ip+4-offset_2, iend) + 4;

	mov	r8, QWORD PTR iend$1$[rsp]
	lea	rcx, QWORD PTR [r13+4]
	add	rdx, 4
	call	ZSTD_count

; 300  :                     U32 const tmpOff = offset_2; offset_2 = offset_1; offset_1 = tmpOff;  /* swap offset_2 <=> offset_1 */
; 301  :                     hashSmall[ZSTD_hashPtr(ip, hBitsS, mls)] = (U32)(ip-base);

	mov	edx, DWORD PTR hBitsS$1$[rsp]
	mov	ecx, ebp
	mov	ebp, DWORD PTR offset_1$1$[rsp]
	mov	edi, r13d
	sub	edi, DWORD PTR base$1$[rsp]
	mov	r8d, 6
	mov	DWORD PTR offset_1$1$[rsp], ecx
	lea	rsi, QWORD PTR [rax+4]
	mov	rcx, r13
	mov	DWORD PTR offset_2$1$[rsp], ebp
	call	ZSTD_hashPtr
	mov	rcx, QWORD PTR hashSmall$1$[rsp]

; 302  :                     hashLong[ZSTD_hashPtr(ip, hBitsL, 8)] = (U32)(ip-base);

	mov	r8d, 8
	mov	edx, DWORD PTR hBitsL$1$[rsp]
	mov	DWORD PTR [rcx+rax*4], edi
	mov	rcx, r13
	call	ZSTD_hashPtr
	mov	rcx, QWORD PTR hashLong$1$[rsp]
	mov	DWORD PTR [rcx+rax*4], edi

; 303  :                     ZSTD_storeSeq(seqStore, 0, anchor, iend, 0, rLength-MINMATCH);

	lea	rdi, QWORD PTR [rsi-3]
; File E:\dev\pyzstd\lib\compress\zstd_compress_internal.h

; 442  :     BYTE const* const litEnd = literals + litLength;

	mov	rcx, QWORD PTR [rbx+24]

; 443  : #if defined(DEBUGLEVEL) && (DEBUGLEVEL >= 6)
; 444  :     static const BYTE* g_start = NULL;
; 445  :     if (g_start==NULL) g_start = (const BYTE*)literals;  /* note : index only works for compression within a single segment */
; 446  :     {   U32 const pos = (U32)((const BYTE*)literals - g_start);
; 447  :         DEBUGLOG(6, "Cpos%7u :%3u literals, match%4u bytes at offCode%7u",
; 448  :                pos, (U32)litLength, (U32)mlBase+MINMATCH, (U32)offCode);
; 449  :     }
; 450  : #endif
; 451  :     assert((size_t)(seqStorePtr->sequences - seqStorePtr->sequencesStart) < seqStorePtr->maxNbSeq);
; 452  :     /* copy Literals */
; 453  :     assert(seqStorePtr->maxNbLit <= 128 KB);
; 454  :     assert(seqStorePtr->lit + litLength <= seqStorePtr->litStart + seqStorePtr->maxNbLit);
; 455  :     assert(literals + litLength <= litLimit);
; 456  :     if (litEnd <= litLimit_w) {

	cmp	r15, r14
	ja	SHORT $LN1656@ZSTD_compr
; File E:\dev\pyzstd\lib\common\zstd_internal.h

; 243  :     memcpy(dst, src, 16);

	movups	xmm0, XMMWORD PTR [r15]
	movups	XMMWORD PTR [rcx], xmm0
; File E:\dev\pyzstd\lib\compress\zstd_compress_internal.h

; 465  :     } else {

	jmp	SHORT $LN1657@ZSTD_compr
$LN1656@ZSTD_compr:

; 466  :         ZSTD_safecopyLiterals(seqStorePtr->lit, literals, litEnd, litLimit_w);

	mov	r9, r14
	mov	r8, r15
	mov	rdx, r15
	call	ZSTD_safecopyLiterals
$LN1657@ZSTD_compr:

; 475  :     }
; 476  :     seqStorePtr->sequences[0].litLength = (U16)litLength;

	mov	rax, QWORD PTR [rbx+8]
	mov	WORD PTR [rax+4], r12w

; 477  : 
; 478  :     /* match offset */
; 479  :     seqStorePtr->sequences[0].offset = offCode + 1;

	mov	rax, QWORD PTR [rbx+8]
	mov	DWORD PTR [rax], 1
	mov	rcx, QWORD PTR [rbx+8]

; 480  : 
; 481  :     /* match Length */
; 482  :     if (mlBase>0xFFFF) {

	cmp	rdi, 65535				; 0000ffffH
	jbe	SHORT $LN2580@ZSTD_compr

; 485  :         seqStorePtr->longLengthPos = (U32)(seqStorePtr->sequences - seqStorePtr->sequencesStart);

	mov	rax, rcx
	mov	DWORD PTR [rbx+72], 2
	sub	rax, QWORD PTR [rbx]
	sar	rax, 3
	mov	DWORD PTR [rbx+76], eax
$LN2580@ZSTD_compr:
; File E:\dev\pyzstd\lib\compress\zstd_double_fast.c

; 304  :                     ip += rLength;

	add	r13, rsi
; File E:\dev\pyzstd\lib\compress\zstd_compress_internal.h

; 487  :     seqStorePtr->sequences[0].matchLength = (U16)mlBase;

	mov	WORD PTR [rcx+6], di

; 488  : 
; 489  :     seqStorePtr->sequences++;

	add	QWORD PTR [rbx+8], 8
; File E:\dev\pyzstd\lib\compress\zstd_double_fast.c

; 304  :                     ip += rLength;

	mov	r15, r13
	cmp	r13, QWORD PTR ilimit$1$[rsp]
	jbe	$LL1053@ZSTD_compr

; 305  :                     anchor = ip;
; 306  :                     continue;   /* faster when present ... (?) */
; 307  :         }   }   }
; 308  :     }   /* while (ip < ilimit) */

	jmp	SHORT $LN2624@ZSTD_compr
$LN1069@ZSTD_compr:
	mov	ebp, DWORD PTR offset_2$1$[rsp]

; 188  :                 goto _search_next_long;
; 189  :             }
; 190  :         } else if (dictMode == ZSTD_dictMatchState) {
; 191  :             /* check dictMatchState short match */
; 192  :             U32 const dictMatchIndexS = dictHashSmall[dictHS];
; 193  :             match = dictBase + dictMatchIndexS;
; 194  :             matchIndexS = dictMatchIndexS + dictIndexDelta;
; 195  : 
; 196  :             if (match > dictStart && MEM_read32(match) == MEM_read32(ip)) {
; 197  :                 goto _search_next_long;
; 198  :         }   }
; 199  : 
; 200  :         ip += ((ip-anchor) >> kSearchStrength) + 1;

	mov	rax, r13
	sub	rax, r15
	inc	r13
	sar	rax, 8
	add	r13, rax

; 259  : 
; 260  :         if (ip <= ilimit) {

	jmp	SHORT $LN2532@ZSTD_compr
$LN2620@ZSTD_compr:
	mov	ebp, DWORD PTR offset_2$1$[rsp]
$LN2624@ZSTD_compr:

; 125  :     while (ip < ilimit) {   /* < instead of <=, because repcode check at (ip+1) */

	mov	r10d, DWORD PTR offset_1$1$[rsp]
$LN2532@ZSTD_compr:
	mov	r14d, DWORD PTR hBitsL$1$[rsp]
	cmp	r13, QWORD PTR ilimit$1$[rsp]
	jb	$LL1037@ZSTD_compr

; 329  :     case 5 :
; 330  :         return ZSTD_compressBlock_doubleFast_generic(ms, seqStore, rep, src, srcSize, 5, ZSTD_noDict);
; 331  :     case 6 :
; 332  :         return ZSTD_compressBlock_doubleFast_generic(ms, seqStore, rep, src, srcSize, 6, ZSTD_noDict);

	mov	ecx, DWORD PTR tv11781[rsp]
	jmp	$LN2633@ZSTD_compr
$LN5@ZSTD_compr:

; 59   :     U32* const hashSmall = ms->chainTable;

	mov	rax, QWORD PTR [rdx+64]

; 61   :     const BYTE* const base = ms->window.base;
; 62   :     const BYTE* const istart = (const BYTE*)src;
; 63   :     const BYTE* ip = istart;
; 64   :     const BYTE* anchor = istart;
; 65   :     const U32 endIndex = (U32)((size_t)(istart - base) + srcSize);

	sub	r8d, ebp
	add	r8d, ecx
	mov	QWORD PTR hashSmall$1$[rsp], rax
	mov	eax, DWORD PTR [rdx+188]
; File E:\dev\pyzstd\lib\compress\zstd_compress_internal.h

; 991  :     U32    const maxDistance = 1U << windowLog;

	mov	ecx, DWORD PTR [rdx+184]
	shl	r10d, cl
; File E:\dev\pyzstd\lib\compress\zstd_double_fast.c

; 60   :     const U32 hBitsS = cParams->chainLog;

	mov	DWORD PTR hBitsS$1$[rsp], eax
; File E:\dev\pyzstd\lib\compress\zstd_compress_internal.h

; 993  :     U32    const withinWindow = (current - lowestValid > maxDistance) ? current - maxDistance : lowestValid;

	mov	eax, r8d
	sub	eax, edi
; File E:\dev\pyzstd\lib\compress\zstd_double_fast.c

; 58   :     const U32 hBitsL = cParams->hashLog;

	mov	DWORD PTR hBitsL$1$[rsp], r14d
; File E:\dev\pyzstd\lib\compress\zstd_compress_internal.h

; 994  :     U32    const isDictionary = (ms->loadedDictEnd != 0);

	sub	r8d, r10d
	cmp	eax, r10d
; File E:\dev\pyzstd\lib\compress\zstd_double_fast.c

; 70   :     const BYTE* const ilimit = iend - HASH_READ_SIZE;

	lea	rax, QWORD PTR [rsi-8]
	mov	QWORD PTR ilimit$1$[rsp], rax
; File E:\dev\pyzstd\lib\compress\zstd_compress_internal.h

; 994  :     U32    const isDictionary = (ms->loadedDictEnd != 0);

	cmovbe	r8d, edi
	test	r9d, r9d

; 995  :     U32    const matchLowest = isDictionary ? lowestValid : withinWindow;

	cmovne	r8d, edi
; File E:\dev\pyzstd\lib\compress\zstd_double_fast.c

; 68   :     const BYTE* const prefixLowest = base + prefixLowestIndex;

	mov	ecx, r8d
	add	rcx, rbp
; File E:\dev\pyzstd\lib\compress\zstd_compress_internal.h

; 995  :     U32    const matchLowest = isDictionary ? lowestValid : withinWindow;

	mov	DWORD PTR prefixLowestIndex$1$[rsp], r8d
; File E:\dev\pyzstd\lib\compress\zstd_double_fast.c

; 71   :     U32 offset_1=rep[0], offset_2=rep[1];

	mov	r8d, DWORD PTR [r12+4]

; 72   :     U32 offsetSaved = 0;
; 73   : 
; 74   :     const ZSTD_matchState_t* const dms = ms->dictMatchState;
; 75   :     const ZSTD_compressionParameters* const dictCParams =
; 76   :                                      dictMode == ZSTD_dictMatchState ?
; 77   :                                      &dms->cParams : NULL;
; 78   :     const U32* const dictHashLong  = dictMode == ZSTD_dictMatchState ?
; 79   :                                      dms->hashTable : NULL;
; 80   :     const U32* const dictHashSmall = dictMode == ZSTD_dictMatchState ?
; 81   :                                      dms->chainTable : NULL;
; 82   :     const U32 dictStartIndex       = dictMode == ZSTD_dictMatchState ?
; 83   :                                      dms->window.dictLimit : 0;
; 84   :     const BYTE* const dictBase     = dictMode == ZSTD_dictMatchState ?
; 85   :                                      dms->window.base : NULL;
; 86   :     const BYTE* const dictStart    = dictMode == ZSTD_dictMatchState ?
; 87   :                                      dictBase + dictStartIndex : NULL;
; 88   :     const BYTE* const dictEnd      = dictMode == ZSTD_dictMatchState ?
; 89   :                                      dms->window.nextSrc : NULL;
; 90   :     const U32 dictIndexDelta       = dictMode == ZSTD_dictMatchState ?
; 91   :                                      prefixLowestIndex - (U32)(dictEnd - dictBase) :
; 92   :                                      0;
; 93   :     const U32 dictHBitsL           = dictMode == ZSTD_dictMatchState ?
; 94   :                                      dictCParams->hashLog : hBitsL;
; 95   :     const U32 dictHBitsS           = dictMode == ZSTD_dictMatchState ?
; 96   :                                      dictCParams->chainLog : hBitsS;
; 97   :     const U32 dictAndPrefixLength  = (U32)((ip - prefixLowest) + (dictEnd - dictStart));
; 98   : 
; 99   :     DEBUGLOG(5, "ZSTD_compressBlock_doubleFast_generic");
; 100  : 
; 101  :     assert(dictMode == ZSTD_noDict || dictMode == ZSTD_dictMatchState);
; 102  : 
; 103  :     /* if a dictionary is attached, it must be within window range */
; 104  :     if (dictMode == ZSTD_dictMatchState) {
; 105  :         assert(ms->window.dictLimit + (1U << cParams->windowLog) >= endIndex);
; 106  :     }
; 107  : 
; 108  :     /* init */
; 109  :     ip += (dictAndPrefixLength == 0);

	xor	r12d, r12d
	cmp	r15d, ecx
	mov	QWORD PTR prefixLowest$1$[rsp], rcx
	mov	eax, r12d
	sete	al
	lea	r13, QWORD PTR [rax+r15]

; 110  :     if (dictMode == ZSTD_noDict) {
; 111  :         U32 const current = (U32)(ip - base);

	mov	edx, r13d
	sub	edx, ebp

; 114  :         if (offset_2 > maxRep) offsetSaved = offset_2, offset_2 = 0;
; 115  :         if (offset_1 > maxRep) offsetSaved = offset_1, offset_1 = 0;

	mov	ebp, r12d
; File E:\dev\pyzstd\lib\compress\zstd_compress_internal.h

; 993  :     U32    const withinWindow = (current - lowestValid > maxDistance) ? current - maxDistance : lowestValid;

	mov	eax, edx

; 994  :     U32    const isDictionary = (ms->loadedDictEnd != 0);

	mov	ecx, edx
	sub	ecx, r10d
	sub	eax, edi
	cmp	eax, r10d
; File E:\dev\pyzstd\lib\compress\zstd_double_fast.c

; 125  :     while (ip < ilimit) {   /* < instead of <=, because repcode check at (ip+1) */

	mov	r10d, r12d
	lea	rax, QWORD PTR [rsi-8]
; File E:\dev\pyzstd\lib\compress\zstd_compress_internal.h

; 994  :     U32    const isDictionary = (ms->loadedDictEnd != 0);

	cmovbe	ecx, edi
	test	r9d, r9d

; 995  :     U32    const matchLowest = isDictionary ? lowestValid : withinWindow;

	cmovne	ecx, edi
; File E:\dev\pyzstd\lib\compress\zstd_double_fast.c

; 113  :         U32 const maxRep = current - windowLow;

	sub	edx, ecx

; 125  :     while (ip < ilimit) {   /* < instead of <=, because repcode check at (ip+1) */

	mov	ecx, r11d
	cmp	r8d, edx
	cmovbe	ebp, r8d
	cmovbe	r8d, r12d
	cmp	r11d, edx
	cmovbe	ecx, r8d
	cmovbe	r10d, r11d
	mov	DWORD PTR tv11909[rsp], ecx
	cmp	r13, rax
	jae	$LN485@ZSTD_compr
; File E:\dev\pyzstd\lib\compress\zstd_compress_internal.h

; 485  :         seqStorePtr->longLengthPos = (U32)(seqStorePtr->sequences - seqStorePtr->sequencesStart);

	mov	DWORD PTR offset_2$1$[rsp], ebp
	mov	DWORD PTR offset_1$1$[rsp], r10d
	npad	5
$LL484@ZSTD_compr:
; File E:\dev\pyzstd\lib\compress\zstd_double_fast.c

; 128  :         size_t const h2 = ZSTD_hashPtr(ip, hBitsL, 8);

	mov	r8d, 8
	mov	edx, r14d
	mov	rcx, r13
	call	ZSTD_hashPtr

; 129  :         size_t const h = ZSTD_hashPtr(ip, hBitsS, mls);

	mov	edx, DWORD PTR hBitsS$1$[rsp]
	mov	r8d, 5
	mov	rcx, r13
	mov	rsi, rax
	call	ZSTD_hashPtr

; 130  :         size_t const dictHL = ZSTD_hashPtr(ip, dictHBitsL, 8);

	mov	r8d, 8
	mov	edx, r14d
	mov	rcx, r13
	mov	rdi, rax
	call	ZSTD_hashPtr

; 131  :         size_t const dictHS = ZSTD_hashPtr(ip, dictHBitsS, mls);

	mov	edx, DWORD PTR hBitsS$1$[rsp]
	mov	r8d, 5
	mov	rcx, r13
	call	ZSTD_hashPtr

; 132  :         U32 const current = (U32)(ip-base);

	mov	rdx, QWORD PTR base$1$[rsp]
	mov	ecx, r13d

; 133  :         U32 const matchIndexL = hashLong[h2];
; 134  :         U32 matchIndexS = hashSmall[h];

	mov	r10, QWORD PTR hashSmall$1$[rsp]
	sub	ecx, edx
	mov	r11, QWORD PTR hashLong$1$[rsp]
	mov	DWORD PTR current$1$[rsp], ecx
	mov	r9d, DWORD PTR [r10+rdi*4]
	mov	r8d, DWORD PTR [r11+rsi*4]

; 135  :         const BYTE* matchLong = base + matchIndexL;
; 136  :         const BYTE* match = base + matchIndexS;
; 137  :         const U32 repIndex = current + 1 - offset_1;
; 138  :         const BYTE* repMatch = (dictMode == ZSTD_dictMatchState
; 139  :                             && repIndex < prefixLowestIndex) ?
; 140  :                                dictBase + (repIndex - dictIndexDelta) :
; 141  :                                base + repIndex;
; 142  :         hashLong[h2] = hashSmall[h] = current;   /* update hash tables */

	mov	DWORD PTR [r10+rdi*4], ecx

; 143  : 
; 144  :         /* check dictMatchState repcode */
; 145  :         if (dictMode == ZSTD_dictMatchState
; 146  :             && ((U32)((prefixLowestIndex-1) - repIndex) >= 3 /* intentional underflow */)
; 147  :             && (MEM_read32(repMatch) == MEM_read32(ip+1)) ) {
; 148  :             const BYTE* repMatchEnd = repIndex < prefixLowestIndex ? dictEnd : iend;
; 149  :             mLength = ZSTD_count_2segments(ip+1+4, repMatch+4, iend, repMatchEnd, prefixLowest) + 4;
; 150  :             ip++;
; 151  :             ZSTD_storeSeq(seqStore, (size_t)(ip-anchor), anchor, iend, 0, mLength-MINMATCH);
; 152  :             goto _match_stored;
; 153  :         }
; 154  : 
; 155  :         /* check noDict repcode */
; 156  :         if ( dictMode == ZSTD_noDict
; 157  :           && ((offset_1 > 0) & (MEM_read32(ip+1-offset_1) == MEM_read32(ip+1)))) {

	mov	r10d, DWORD PTR offset_1$1$[rsp]
	mov	DWORD PTR [r11+rsi*4], ecx
	lea	rbp, QWORD PTR [rdx+r9]
	mov	eax, DWORD PTR [r13+1]
	lea	r14, QWORD PTR [rdx+r8]
	lea	rsi, QWORD PTR [r13+1]
	mov	ecx, r12d
	mov	rdx, r13
	mov	QWORD PTR litLength$1$[rsp], rsi
	sub	rdx, r10
	cmp	DWORD PTR [rdx+1], eax
	mov	eax, r12d
	sete	cl
	test	r10d, r10d
	setne	al
	test	ecx, eax
	je	$LN508@ZSTD_compr

; 158  :             mLength = ZSTD_count(ip+1+4, ip+1+4-offset_1, iend) + 4;

	mov	rbp, QWORD PTR iend$1$[rsp]
	lea	rcx, QWORD PTR [r13+5]
	mov	r8, rbp
	add	rdx, 5
	call	ZSTD_count
; File E:\dev\pyzstd\lib\compress\zstd_compress_internal.h

; 442  :     BYTE const* const litEnd = literals + litLength;

	mov	rcx, QWORD PTR [rbx+24]
	add	rbp, -32				; ffffffffffffffe0H
; File E:\dev\pyzstd\lib\compress\zstd_double_fast.c

; 159  :             ip++;

	mov	r13, rsi
; File E:\dev\pyzstd\lib\compress\zstd_compress_internal.h

; 441  :     BYTE const* const litLimit_w = litLimit - WILDCOPY_OVERLENGTH;

	mov	QWORD PTR litLimit_w$1$[rsp], rbp
; File E:\dev\pyzstd\lib\compress\zstd_double_fast.c

; 160  :             ZSTD_storeSeq(seqStore, (size_t)(ip-anchor), anchor, iend, 0, mLength-MINMATCH);

	sub	rsi, r15
	lea	rdi, QWORD PTR [rax+4]
	lea	r14, QWORD PTR [rdi-3]
; File E:\dev\pyzstd\lib\compress\zstd_compress_internal.h

; 442  :     BYTE const* const litEnd = literals + litLength;

	lea	r8, QWORD PTR [rsi+r15]

; 443  : #if defined(DEBUGLEVEL) && (DEBUGLEVEL >= 6)
; 444  :     static const BYTE* g_start = NULL;
; 445  :     if (g_start==NULL) g_start = (const BYTE*)literals;  /* note : index only works for compression within a single segment */
; 446  :     {   U32 const pos = (U32)((const BYTE*)literals - g_start);
; 447  :         DEBUGLOG(6, "Cpos%7u :%3u literals, match%4u bytes at offCode%7u",
; 448  :                pos, (U32)litLength, (U32)mlBase+MINMATCH, (U32)offCode);
; 449  :     }
; 450  : #endif
; 451  :     assert((size_t)(seqStorePtr->sequences - seqStorePtr->sequencesStart) < seqStorePtr->maxNbSeq);
; 452  :     /* copy Literals */
; 453  :     assert(seqStorePtr->maxNbLit <= 128 KB);
; 454  :     assert(seqStorePtr->lit + litLength <= seqStorePtr->litStart + seqStorePtr->maxNbLit);
; 455  :     assert(literals + litLength <= litLimit);
; 456  :     if (litEnd <= litLimit_w) {

	cmp	r8, rbp
	ja	SHORT $LN913@ZSTD_compr
; File E:\dev\pyzstd\lib\common\zstd_internal.h

; 243  :     memcpy(dst, src, 16);

	movups	xmm0, XMMWORD PTR [r15]
	movups	XMMWORD PTR [rcx], xmm0
; File E:\dev\pyzstd\lib\compress\zstd_compress_internal.h

; 462  :         if (litLength > 16) {

	cmp	rsi, 16
	jbe	SHORT $LN914@ZSTD_compr

; 463  :             ZSTD_wildcopy(seqStorePtr->lit+16, literals+16, (ptrdiff_t)litLength-16, ZSTD_no_overlap);

	mov	rax, QWORD PTR [rbx+24]
	add	r15, 16
	add	rax, 16
; File E:\dev\pyzstd\lib\common\zstd_internal.h

; 270  :     BYTE* const oend = op + length;

	lea	rcx, QWORD PTR [rax-16]
	add	rcx, rsi
	npad	6
$LL927@ZSTD_compr:

; 243  :     memcpy(dst, src, 16);

	movups	xmm0, XMMWORD PTR [r15]

; 289  :             COPY16(op, ip);

	lea	r15, QWORD PTR [r15+16]

; 243  :     memcpy(dst, src, 16);

	movups	XMMWORD PTR [rax], xmm0

; 289  :             COPY16(op, ip);

	add	rax, 16

; 290  :         }
; 291  :         while (op < oend);

	cmp	rax, rcx
	jb	SHORT $LL927@ZSTD_compr
; File E:\dev\pyzstd\lib\compress\zstd_compress_internal.h

; 465  :     } else {

	jmp	SHORT $LN914@ZSTD_compr
$LN913@ZSTD_compr:

; 466  :         ZSTD_safecopyLiterals(seqStorePtr->lit, literals, litEnd, litLimit_w);

	mov	r9, rbp
	mov	rdx, r15
	call	ZSTD_safecopyLiterals
$LN914@ZSTD_compr:

; 467  :     }
; 468  :     seqStorePtr->lit += litLength;

	add	QWORD PTR [rbx+24], rsi
	mov	rcx, QWORD PTR [rbx+8]

; 469  : 
; 470  :     /* literal Length */
; 471  :     if (litLength>0xFFFF) {

	cmp	rsi, 65535				; 0000ffffH
	jbe	SHORT $LN2581@ZSTD_compr

; 472  :         assert(seqStorePtr->longLengthID == 0); /* there can only be a single long length */
; 473  :         seqStorePtr->longLengthID = 1;
; 474  :         seqStorePtr->longLengthPos = (U32)(seqStorePtr->sequences - seqStorePtr->sequencesStart);

	mov	rax, rcx
	mov	DWORD PTR [rbx+72], 1
	sub	rax, QWORD PTR [rbx]
	sar	rax, 3
	mov	DWORD PTR [rbx+76], eax
$LN2581@ZSTD_compr:

; 475  :     }
; 476  :     seqStorePtr->sequences[0].litLength = (U16)litLength;

	mov	WORD PTR [rcx+4], si

; 477  : 
; 478  :     /* match offset */
; 479  :     seqStorePtr->sequences[0].offset = offCode + 1;

	mov	rax, QWORD PTR [rbx+8]
	mov	DWORD PTR [rax], 1
; File E:\dev\pyzstd\lib\compress\zstd_double_fast.c

; 161  :             goto _match_stored;

	jmp	$LN2639@ZSTD_compr
$LN508@ZSTD_compr:

; 162  :         }
; 163  : 
; 164  :         if (matchIndexL > prefixLowestIndex) {

	mov	ecx, DWORD PTR prefixLowestIndex$1$[rsp]
	cmp	r8d, ecx
	jbe	$LN511@ZSTD_compr

; 165  :             /* check prefix long match */
; 166  :             if (MEM_read64(matchLong) == MEM_read64(ip)) {

	mov	rax, QWORD PTR [r13]
	cmp	QWORD PTR [r14], rax
	jne	SHORT $LN511@ZSTD_compr

; 167  :                 mLength = ZSTD_count(ip+8, matchLong+8, iend) + 8;

	mov	r8, QWORD PTR iend$1$[rsp]
	lea	rdx, QWORD PTR [r14+8]
	lea	rcx, QWORD PTR [r13+8]
	call	ZSTD_count

; 168  :                 offset = (U32)(ip-matchLong);
; 169  :                 while (((ip>anchor) & (matchLong>prefixLowest)) && (ip[-1] == matchLong[-1])) { ip--; matchLong--; mLength++; } /* catch up */

	mov	r8, QWORD PTR prefixLowest$1$[rsp]
	mov	ecx, r12d
	mov	r9d, r13d
	sub	r9d, r14d
	cmp	r14, r8
	mov	DWORD PTR offset$1$[rsp], r9d
	lea	rdi, QWORD PTR [rax+8]
	mov	eax, r12d
	seta	cl
	cmp	r13, r15
	seta	al
	test	ecx, eax
	je	$_match_found$2651
	npad	1
$LL486@ZSTD_compr:
	movzx	eax, BYTE PTR [r14-1]
	lea	rdx, QWORD PTR [r13-1]
	dec	r14
	cmp	BYTE PTR [rdx], al
	jne	$_match_found$2651
	inc	rdi
	mov	ecx, r12d
	cmp	r14, r8
	mov	eax, r12d
	mov	r13, rdx
	seta	cl
	cmp	rdx, r15
	seta	al
	test	ecx, eax
	jne	SHORT $LL486@ZSTD_compr

; 170  :                 goto _match_found;

	jmp	$_match_found$2651
$LN511@ZSTD_compr:

; 171  :             }
; 172  :         } else if (dictMode == ZSTD_dictMatchState) {
; 173  :             /* check dictMatchState long match */
; 174  :             U32 const dictMatchIndexL = dictHashLong[dictHL];
; 175  :             const BYTE* dictMatchL = dictBase + dictMatchIndexL;
; 176  :             assert(dictMatchL < dictEnd);
; 177  : 
; 178  :             if (dictMatchL > dictStart && MEM_read64(dictMatchL) == MEM_read64(ip)) {
; 179  :                 mLength = ZSTD_count_2segments(ip+8, dictMatchL+8, iend, dictEnd, prefixLowest) + 8;
; 180  :                 offset = (U32)(current - dictMatchIndexL - dictIndexDelta);
; 181  :                 while (((ip>anchor) & (dictMatchL>dictStart)) && (ip[-1] == dictMatchL[-1])) { ip--; dictMatchL--; mLength++; } /* catch up */
; 182  :                 goto _match_found;
; 183  :         }   }
; 184  : 
; 185  :         if (matchIndexS > prefixLowestIndex) {

	cmp	r9d, ecx
	jbe	$LN516@ZSTD_compr

; 186  :             /* check prefix short match */
; 187  :             if (MEM_read32(match) == MEM_read32(ip)) {

	mov	eax, DWORD PTR [r13]
	cmp	DWORD PTR [rbp], eax
	jne	$LN516@ZSTD_compr
$_search_next_long$2652:

; 201  : #if defined(__aarch64__)
; 202  :         PREFETCH_L1(ip+256);
; 203  : #endif
; 204  :         continue;
; 205  : 
; 206  : _search_next_long:
; 207  : 
; 208  :         {   size_t const hl3 = ZSTD_hashPtr(ip+1, hBitsL, 8);

	mov	edx, DWORD PTR hBitsL$1$[rsp]
	mov	r8d, 8
	mov	rcx, rsi
	call	ZSTD_hashPtr

; 209  :             size_t const dictHLNext = ZSTD_hashPtr(ip+1, dictHBitsL, 8);

	mov	edx, DWORD PTR hBitsL$1$[rsp]
	mov	r8d, 8
	mov	rcx, rsi
	mov	rdi, rax
	call	ZSTD_hashPtr

; 210  :             U32 const matchIndexL3 = hashLong[hl3];

	mov	r8, QWORD PTR hashLong$1$[rsp]

; 211  :             const BYTE* matchL3 = base + matchIndexL3;
; 212  :             hashLong[hl3] = current + 1;

	mov	eax, DWORD PTR current$1$[rsp]
	mov	ecx, DWORD PTR [r8+rdi*4]
	mov	esi, ecx
	add	rsi, QWORD PTR base$1$[rsp]
	inc	eax
	mov	DWORD PTR [r8+rdi*4], eax

; 213  : 
; 214  :             /* check prefix long +1 match */
; 215  :             if (matchIndexL3 > prefixLowestIndex) {

	cmp	ecx, DWORD PTR prefixLowestIndex$1$[rsp]
	jbe	$LN521@ZSTD_compr

; 216  :                 if (MEM_read64(matchL3) == MEM_read64(ip+1)) {

	mov	r14, QWORD PTR litLength$1$[rsp]
	mov	rax, QWORD PTR [r14]
	cmp	QWORD PTR [rsi], rax
	jne	$LN521@ZSTD_compr

; 217  :                     mLength = ZSTD_count(ip+9, matchL3+8, iend) + 8;

	mov	r8, QWORD PTR iend$1$[rsp]
	lea	rdx, QWORD PTR [rsi+8]
	lea	rcx, QWORD PTR [r13+9]
	call	ZSTD_count

; 218  :                     ip++;
; 219  :                     offset = (U32)(ip-matchL3);
; 220  :                     while (((ip>anchor) & (matchL3>prefixLowest)) && (ip[-1] == matchL3[-1])) { ip--; matchL3--; mLength++; } /* catch up */

	mov	r8, QWORD PTR prefixLowest$1$[rsp]
	mov	ecx, r12d
	mov	r9d, r14d
	mov	r13, r14
	sub	r9d, esi
	cmp	rsi, r8
	mov	DWORD PTR offset$1$[rsp], r9d
	lea	rdi, QWORD PTR [rax+8]
	mov	eax, r12d
	seta	cl
	cmp	r14, r15
	seta	al
	test	ecx, eax
	je	$_match_found$2651
	npad	6
$LL490@ZSTD_compr:
	movzx	eax, BYTE PTR [rsi-1]
	lea	rdx, QWORD PTR [r13-1]
	dec	rsi
	cmp	BYTE PTR [rdx], al
	jne	$_match_found$2651
	inc	rdi
	mov	ecx, r12d
	cmp	rsi, r8
	mov	eax, r12d
	mov	r13, rdx
	seta	cl
	cmp	rdx, r15
	seta	al
	test	ecx, eax
	jne	SHORT $LL490@ZSTD_compr

; 221  :                     goto _match_found;

	jmp	SHORT $_match_found$2651
$LN521@ZSTD_compr:

; 222  :                 }
; 223  :             } else if (dictMode == ZSTD_dictMatchState) {
; 224  :                 /* check dict long +1 match */
; 225  :                 U32 const dictMatchIndexL3 = dictHashLong[dictHLNext];
; 226  :                 const BYTE* dictMatchL3 = dictBase + dictMatchIndexL3;
; 227  :                 assert(dictMatchL3 < dictEnd);
; 228  :                 if (dictMatchL3 > dictStart && MEM_read64(dictMatchL3) == MEM_read64(ip+1)) {
; 229  :                     mLength = ZSTD_count_2segments(ip+1+8, dictMatchL3+8, iend, dictEnd, prefixLowest) + 8;
; 230  :                     ip++;
; 231  :                     offset = (U32)(current + 1 - dictMatchIndexL3 - dictIndexDelta);
; 232  :                     while (((ip>anchor) & (dictMatchL3>dictStart)) && (ip[-1] == dictMatchL3[-1])) { ip--; dictMatchL3--; mLength++; } /* catch up */
; 233  :                     goto _match_found;
; 234  :         }   }   }
; 235  : 
; 236  :         /* if no long +1 match, explore the short match we found */
; 237  :         if (dictMode == ZSTD_dictMatchState && matchIndexS < prefixLowestIndex) {
; 238  :             mLength = ZSTD_count_2segments(ip+4, match+4, iend, dictEnd, prefixLowest) + 4;
; 239  :             offset = (U32)(current - matchIndexS);
; 240  :             while (((ip>anchor) & (match>dictStart)) && (ip[-1] == match[-1])) { ip--; match--; mLength++; } /* catch up */
; 241  :         } else {
; 242  :             mLength = ZSTD_count(ip+4, match+4, iend) + 4;

	mov	r8, QWORD PTR iend$1$[rsp]
	lea	rdx, QWORD PTR [rbp+4]
	lea	rcx, QWORD PTR [r13+4]
	call	ZSTD_count

; 243  :             offset = (U32)(ip - match);
; 244  :             while (((ip>anchor) & (match>prefixLowest)) && (ip[-1] == match[-1])) { ip--; match--; mLength++; } /* catch up */

	mov	r8, QWORD PTR prefixLowest$1$[rsp]
	mov	ecx, r12d
	mov	r9d, r13d
	sub	r9d, ebp
	cmp	rbp, r8
	mov	DWORD PTR offset$1$[rsp], r9d
	lea	rdi, QWORD PTR [rax+4]
	mov	eax, r12d
	seta	cl
	cmp	r13, r15
	seta	al
	test	ecx, eax
	je	SHORT $_match_found$2651
	npad	3
$LL496@ZSTD_compr:
	movzx	eax, BYTE PTR [rbp-1]
	lea	rdx, QWORD PTR [r13-1]
	dec	rbp
	cmp	BYTE PTR [rdx], al
	jne	SHORT $_match_found$2651
	inc	rdi
	mov	ecx, r12d
	cmp	rbp, r8
	mov	eax, r12d
	mov	r13, rdx
	seta	cl
	cmp	rdx, r15
	seta	al
	test	ecx, eax
	jne	SHORT $LL496@ZSTD_compr
$_match_found$2651:

; 245  :         }
; 246  : 
; 247  :         /* fall-through */
; 248  : 
; 249  : _match_found:
; 250  :         offset_2 = offset_1;

	mov	ebp, DWORD PTR offset_1$1$[rsp]

; 253  :         ZSTD_storeSeq(seqStore, (size_t)(ip-anchor), anchor, iend, offset + ZSTD_REP_MOVE, mLength-MINMATCH);

	lea	r14, QWORD PTR [rdi-3]
; File E:\dev\pyzstd\lib\compress\zstd_compress_internal.h

; 442  :     BYTE const* const litEnd = literals + litLength;

	mov	rcx, QWORD PTR [rbx+24]
; File E:\dev\pyzstd\lib\compress\zstd_double_fast.c

; 253  :         ZSTD_storeSeq(seqStore, (size_t)(ip-anchor), anchor, iend, offset + ZSTD_REP_MOVE, mLength-MINMATCH);

	mov	rsi, r13
	sub	rsi, r15
	mov	DWORD PTR offset_2$1$[rsp], ebp
; File E:\dev\pyzstd\lib\compress\zstd_compress_internal.h

; 441  :     BYTE const* const litLimit_w = litLimit - WILDCOPY_OVERLENGTH;

	mov	rbp, QWORD PTR iend$1$[rsp]
	add	rbp, -32				; ffffffffffffffe0H
; File E:\dev\pyzstd\lib\compress\zstd_double_fast.c

; 251  :         offset_1 = offset;

	mov	DWORD PTR offset_1$1$[rsp], r9d
; File E:\dev\pyzstd\lib\compress\zstd_compress_internal.h

; 441  :     BYTE const* const litLimit_w = litLimit - WILDCOPY_OVERLENGTH;

	mov	QWORD PTR litLimit_w$1$[rsp], rbp

; 442  :     BYTE const* const litEnd = literals + litLength;

	lea	r8, QWORD PTR [r15+rsi]

; 443  : #if defined(DEBUGLEVEL) && (DEBUGLEVEL >= 6)
; 444  :     static const BYTE* g_start = NULL;
; 445  :     if (g_start==NULL) g_start = (const BYTE*)literals;  /* note : index only works for compression within a single segment */
; 446  :     {   U32 const pos = (U32)((const BYTE*)literals - g_start);
; 447  :         DEBUGLOG(6, "Cpos%7u :%3u literals, match%4u bytes at offCode%7u",
; 448  :                pos, (U32)litLength, (U32)mlBase+MINMATCH, (U32)offCode);
; 449  :     }
; 450  : #endif
; 451  :     assert((size_t)(seqStorePtr->sequences - seqStorePtr->sequencesStart) < seqStorePtr->maxNbSeq);
; 452  :     /* copy Literals */
; 453  :     assert(seqStorePtr->maxNbLit <= 128 KB);
; 454  :     assert(seqStorePtr->lit + litLength <= seqStorePtr->litStart + seqStorePtr->maxNbLit);
; 455  :     assert(literals + litLength <= litLimit);
; 456  :     if (litEnd <= litLimit_w) {

	cmp	r8, rbp
	ja	SHORT $LN960@ZSTD_compr
; File E:\dev\pyzstd\lib\common\zstd_internal.h

; 243  :     memcpy(dst, src, 16);

	movups	xmm0, XMMWORD PTR [r15]
	movups	XMMWORD PTR [rcx], xmm0
; File E:\dev\pyzstd\lib\compress\zstd_compress_internal.h

; 462  :         if (litLength > 16) {

	cmp	rsi, 16
	jbe	SHORT $LN961@ZSTD_compr

; 463  :             ZSTD_wildcopy(seqStorePtr->lit+16, literals+16, (ptrdiff_t)litLength-16, ZSTD_no_overlap);

	mov	rax, QWORD PTR [rbx+24]
	add	r15, 16
	add	rax, 16
; File E:\dev\pyzstd\lib\common\zstd_internal.h

; 270  :     BYTE* const oend = op + length;

	lea	rcx, QWORD PTR [rax-16]
	add	rcx, rsi
	npad	13
$LL974@ZSTD_compr:

; 243  :     memcpy(dst, src, 16);

	movups	xmm0, XMMWORD PTR [r15]

; 289  :             COPY16(op, ip);

	lea	r15, QWORD PTR [r15+16]

; 243  :     memcpy(dst, src, 16);

	movups	XMMWORD PTR [rax], xmm0

; 289  :             COPY16(op, ip);

	add	rax, 16

; 290  :         }
; 291  :         while (op < oend);

	cmp	rax, rcx
	jb	SHORT $LL974@ZSTD_compr
; File E:\dev\pyzstd\lib\compress\zstd_compress_internal.h

; 465  :     } else {

	jmp	SHORT $LN961@ZSTD_compr
$LN960@ZSTD_compr:

; 466  :         ZSTD_safecopyLiterals(seqStorePtr->lit, literals, litEnd, litLimit_w);

	mov	r9, rbp
	mov	rdx, r15
	call	ZSTD_safecopyLiterals
	mov	r9d, DWORD PTR offset$1$[rsp]
$LN961@ZSTD_compr:

; 467  :     }
; 468  :     seqStorePtr->lit += litLength;

	add	QWORD PTR [rbx+24], rsi
	mov	rcx, QWORD PTR [rbx+8]

; 469  : 
; 470  :     /* literal Length */
; 471  :     if (litLength>0xFFFF) {

	cmp	rsi, 65535				; 0000ffffH
	jbe	SHORT $LN2583@ZSTD_compr

; 472  :         assert(seqStorePtr->longLengthID == 0); /* there can only be a single long length */
; 473  :         seqStorePtr->longLengthID = 1;
; 474  :         seqStorePtr->longLengthPos = (U32)(seqStorePtr->sequences - seqStorePtr->sequencesStart);

	mov	rax, rcx
	mov	DWORD PTR [rbx+72], 1
	sub	rax, QWORD PTR [rbx]
	sar	rax, 3
	mov	DWORD PTR [rbx+76], eax
$LN2583@ZSTD_compr:

; 475  :     }
; 476  :     seqStorePtr->sequences[0].litLength = (U16)litLength;

	mov	WORD PTR [rcx+4], si

; 477  : 
; 478  :     /* match offset */
; 479  :     seqStorePtr->sequences[0].offset = offCode + 1;

	lea	ecx, DWORD PTR [r9+3]
	mov	rax, QWORD PTR [rbx+8]
	mov	DWORD PTR [rax], ecx
$LN2639@ZSTD_compr:
; File E:\dev\pyzstd\lib\compress\zstd_double_fast.c

; 257  :         ip += mLength;

	mov	rcx, QWORD PTR [rbx+8]
	cmp	r14, 65535				; 0000ffffH
	jbe	SHORT $LN2584@ZSTD_compr
	mov	rax, rcx
	mov	DWORD PTR [rbx+72], 2
	sub	rax, QWORD PTR [rbx]
	sar	rax, 3
	mov	DWORD PTR [rbx+76], eax
$LN2584@ZSTD_compr:
	mov	WORD PTR [rcx+6], r14w
	add	QWORD PTR [rbx+8], 8
$_match_stored$2653:
	lea	r15, QWORD PTR [rdi+r13]
	mov	r13, r15

; 258  :         anchor = ip;

	cmp	r15, QWORD PTR ilimit$1$[rsp]

; 259  : 
; 260  :         if (ip <= ilimit) {

	ja	$LN2621@ZSTD_compr

; 261  :             /* Complementary insertion */
; 262  :             /* done after iLimit test, as candidates could be > iend-8 */
; 263  :             {   U32 const indexToInsert = current+2;

	mov	r14d, DWORD PTR current$1$[rsp]

; 264  :                 hashLong[ZSTD_hashPtr(base+indexToInsert, hBitsL, 8)] = indexToInsert;

	mov	r8d, 8
	mov	rdi, QWORD PTR base$1$[rsp]
	add	r14d, 2
	mov	edx, DWORD PTR hBitsL$1$[rsp]
	mov	ebp, r14d
	add	rbp, rdi
	mov	rcx, rbp
	call	ZSTD_hashPtr
	mov	rcx, QWORD PTR hashLong$1$[rsp]
	mov	esi, r15d

; 265  :                 hashLong[ZSTD_hashPtr(ip-2, hBitsL, 8)] = (U32)(ip-2-base);

	mov	edx, DWORD PTR hBitsL$1$[rsp]
	sub	esi, edi
	mov	r8d, 8
	mov	DWORD PTR [rcx+rax*4], r14d
	lea	rcx, QWORD PTR [r15-2]
	lea	edi, DWORD PTR [rsi-2]
	call	ZSTD_hashPtr
	mov	rcx, QWORD PTR hashLong$1$[rsp]

; 266  :                 hashSmall[ZSTD_hashPtr(base+indexToInsert, hBitsS, mls)] = indexToInsert;

	mov	r8d, 5
	mov	edx, DWORD PTR hBitsS$1$[rsp]
	mov	DWORD PTR [rcx+rax*4], edi
	mov	rcx, rbp
	call	ZSTD_hashPtr
	mov	rbp, QWORD PTR hashSmall$1$[rsp]

; 267  :                 hashSmall[ZSTD_hashPtr(ip-1, hBitsS, mls)] = (U32)(ip-1-base);

	lea	rcx, QWORD PTR [r15-1]
	mov	edx, DWORD PTR hBitsS$1$[rsp]
	lea	edi, DWORD PTR [rsi-1]
	mov	r8d, 5
	mov	DWORD PTR [rbp+rax*4], r14d
	call	ZSTD_hashPtr
	mov	r14, QWORD PTR litLimit_w$1$[rsp]
	mov	DWORD PTR [rbp+rax*4], edi
	mov	ebp, DWORD PTR offset_2$1$[rsp]
	npad	9
$LL500@ZSTD_compr:

; 268  :             }
; 269  : 
; 270  :             /* check immediate repcode */
; 271  :             if (dictMode == ZSTD_dictMatchState) {
; 272  :                 while (ip <= ilimit) {
; 273  :                     U32 const current2 = (U32)(ip-base);
; 274  :                     U32 const repIndex2 = current2 - offset_2;
; 275  :                     const BYTE* repMatch2 = dictMode == ZSTD_dictMatchState
; 276  :                         && repIndex2 < prefixLowestIndex ?
; 277  :                             dictBase + repIndex2 - dictIndexDelta :
; 278  :                             base + repIndex2;
; 279  :                     if ( ((U32)((prefixLowestIndex-1) - (U32)repIndex2) >= 3 /* intentional overflow */)
; 280  :                        && (MEM_read32(repMatch2) == MEM_read32(ip)) ) {
; 281  :                         const BYTE* const repEnd2 = repIndex2 < prefixLowestIndex ? dictEnd : iend;
; 282  :                         size_t const repLength2 = ZSTD_count_2segments(ip+4, repMatch2+4, iend, repEnd2, prefixLowest) + 4;
; 283  :                         U32 tmpOffset = offset_2; offset_2 = offset_1; offset_1 = tmpOffset;   /* swap offset_2 <=> offset_1 */
; 284  :                         ZSTD_storeSeq(seqStore, 0, anchor, iend, 0, repLength2-MINMATCH);
; 285  :                         hashSmall[ZSTD_hashPtr(ip, hBitsS, mls)] = current2;
; 286  :                         hashLong[ZSTD_hashPtr(ip, hBitsL, 8)] = current2;
; 287  :                         ip += repLength2;
; 288  :                         anchor = ip;
; 289  :                         continue;
; 290  :                     }
; 291  :                     break;
; 292  :             }   }
; 293  : 
; 294  :             if (dictMode == ZSTD_noDict) {
; 295  :                 while ( (ip <= ilimit)
; 296  :                      && ( (offset_2>0)

	mov	eax, ebp
	mov	ecx, r12d
	mov	rdx, r13
	sub	rdx, rax
	mov	eax, DWORD PTR [rdx]
	cmp	DWORD PTR [r13], eax
	mov	eax, r12d
	sete	cl
	test	ebp, ebp
	setne	al
	test	ecx, eax
	je	$LN2625@ZSTD_compr

; 297  :                         & (MEM_read32(ip) == MEM_read32(ip - offset_2)) )) {
; 298  :                     /* store sequence */
; 299  :                     size_t const rLength = ZSTD_count(ip+4, ip+4-offset_2, iend) + 4;

	mov	r8, QWORD PTR iend$1$[rsp]
	lea	rcx, QWORD PTR [r13+4]
	add	rdx, 4
	call	ZSTD_count

; 300  :                     U32 const tmpOff = offset_2; offset_2 = offset_1; offset_1 = tmpOff;  /* swap offset_2 <=> offset_1 */
; 301  :                     hashSmall[ZSTD_hashPtr(ip, hBitsS, mls)] = (U32)(ip-base);

	mov	edx, DWORD PTR hBitsS$1$[rsp]
	mov	ecx, ebp
	mov	ebp, DWORD PTR offset_1$1$[rsp]
	mov	edi, r13d
	sub	edi, DWORD PTR base$1$[rsp]
	mov	r8d, 5
	mov	DWORD PTR offset_1$1$[rsp], ecx
	lea	rsi, QWORD PTR [rax+4]
	mov	rcx, r13
	mov	DWORD PTR offset_2$1$[rsp], ebp
	call	ZSTD_hashPtr
	mov	rcx, QWORD PTR hashSmall$1$[rsp]

; 302  :                     hashLong[ZSTD_hashPtr(ip, hBitsL, 8)] = (U32)(ip-base);

	mov	r8d, 8
	mov	edx, DWORD PTR hBitsL$1$[rsp]
	mov	DWORD PTR [rcx+rax*4], edi
	mov	rcx, r13
	call	ZSTD_hashPtr
	mov	rcx, QWORD PTR hashLong$1$[rsp]
	mov	DWORD PTR [rcx+rax*4], edi

; 303  :                     ZSTD_storeSeq(seqStore, 0, anchor, iend, 0, rLength-MINMATCH);

	lea	rdi, QWORD PTR [rsi-3]
; File E:\dev\pyzstd\lib\compress\zstd_compress_internal.h

; 442  :     BYTE const* const litEnd = literals + litLength;

	mov	rcx, QWORD PTR [rbx+24]

; 443  : #if defined(DEBUGLEVEL) && (DEBUGLEVEL >= 6)
; 444  :     static const BYTE* g_start = NULL;
; 445  :     if (g_start==NULL) g_start = (const BYTE*)literals;  /* note : index only works for compression within a single segment */
; 446  :     {   U32 const pos = (U32)((const BYTE*)literals - g_start);
; 447  :         DEBUGLOG(6, "Cpos%7u :%3u literals, match%4u bytes at offCode%7u",
; 448  :                pos, (U32)litLength, (U32)mlBase+MINMATCH, (U32)offCode);
; 449  :     }
; 450  : #endif
; 451  :     assert((size_t)(seqStorePtr->sequences - seqStorePtr->sequencesStart) < seqStorePtr->maxNbSeq);
; 452  :     /* copy Literals */
; 453  :     assert(seqStorePtr->maxNbLit <= 128 KB);
; 454  :     assert(seqStorePtr->lit + litLength <= seqStorePtr->litStart + seqStorePtr->maxNbLit);
; 455  :     assert(literals + litLength <= litLimit);
; 456  :     if (litEnd <= litLimit_w) {

	cmp	r15, r14
	ja	SHORT $LN1014@ZSTD_compr
; File E:\dev\pyzstd\lib\common\zstd_internal.h

; 243  :     memcpy(dst, src, 16);

	movups	xmm0, XMMWORD PTR [r15]
	movups	XMMWORD PTR [rcx], xmm0
; File E:\dev\pyzstd\lib\compress\zstd_compress_internal.h

; 465  :     } else {

	jmp	SHORT $LN1015@ZSTD_compr
$LN1014@ZSTD_compr:

; 466  :         ZSTD_safecopyLiterals(seqStorePtr->lit, literals, litEnd, litLimit_w);

	mov	r9, r14
	mov	r8, r15
	mov	rdx, r15
	call	ZSTD_safecopyLiterals
$LN1015@ZSTD_compr:

; 475  :     }
; 476  :     seqStorePtr->sequences[0].litLength = (U16)litLength;

	mov	rax, QWORD PTR [rbx+8]
	mov	WORD PTR [rax+4], r12w

; 477  : 
; 478  :     /* match offset */
; 479  :     seqStorePtr->sequences[0].offset = offCode + 1;

	mov	rax, QWORD PTR [rbx+8]
	mov	DWORD PTR [rax], 1
	mov	rcx, QWORD PTR [rbx+8]

; 480  : 
; 481  :     /* match Length */
; 482  :     if (mlBase>0xFFFF) {

	cmp	rdi, 65535				; 0000ffffH
	jbe	SHORT $LN2585@ZSTD_compr

; 485  :         seqStorePtr->longLengthPos = (U32)(seqStorePtr->sequences - seqStorePtr->sequencesStart);

	mov	rax, rcx
	mov	DWORD PTR [rbx+72], 2
	sub	rax, QWORD PTR [rbx]
	sar	rax, 3
	mov	DWORD PTR [rbx+76], eax
$LN2585@ZSTD_compr:
; File E:\dev\pyzstd\lib\compress\zstd_double_fast.c

; 304  :                     ip += rLength;

	add	r13, rsi
; File E:\dev\pyzstd\lib\compress\zstd_compress_internal.h

; 487  :     seqStorePtr->sequences[0].matchLength = (U16)mlBase;

	mov	WORD PTR [rcx+6], di

; 488  : 
; 489  :     seqStorePtr->sequences++;

	add	QWORD PTR [rbx+8], 8
; File E:\dev\pyzstd\lib\compress\zstd_double_fast.c

; 304  :                     ip += rLength;

	mov	r15, r13
	cmp	r13, QWORD PTR ilimit$1$[rsp]
	jbe	$LL500@ZSTD_compr

; 305  :                     anchor = ip;
; 306  :                     continue;   /* faster when present ... (?) */
; 307  :         }   }   }
; 308  :     }   /* while (ip < ilimit) */

	jmp	SHORT $LN2625@ZSTD_compr
$LN516@ZSTD_compr:
	mov	ebp, DWORD PTR offset_2$1$[rsp]

; 188  :                 goto _search_next_long;
; 189  :             }
; 190  :         } else if (dictMode == ZSTD_dictMatchState) {
; 191  :             /* check dictMatchState short match */
; 192  :             U32 const dictMatchIndexS = dictHashSmall[dictHS];
; 193  :             match = dictBase + dictMatchIndexS;
; 194  :             matchIndexS = dictMatchIndexS + dictIndexDelta;
; 195  : 
; 196  :             if (match > dictStart && MEM_read32(match) == MEM_read32(ip)) {
; 197  :                 goto _search_next_long;
; 198  :         }   }
; 199  : 
; 200  :         ip += ((ip-anchor) >> kSearchStrength) + 1;

	mov	rax, r13
	sub	rax, r15
	inc	r13
	sar	rax, 8
	add	r13, rax

; 259  : 
; 260  :         if (ip <= ilimit) {

	jmp	SHORT $LN2537@ZSTD_compr
$LN2621@ZSTD_compr:
	mov	ebp, DWORD PTR offset_2$1$[rsp]
$LN2625@ZSTD_compr:

; 125  :     while (ip < ilimit) {   /* < instead of <=, because repcode check at (ip+1) */

	mov	r10d, DWORD PTR offset_1$1$[rsp]
$LN2537@ZSTD_compr:
	mov	r14d, DWORD PTR hBitsL$1$[rsp]
	cmp	r13, QWORD PTR ilimit$1$[rsp]
	jb	$LL484@ZSTD_compr
	mov	ecx, DWORD PTR tv11909[rsp]
$LN2633@ZSTD_compr:

; 335  :     }
; 336  : }

	mov	rsi, QWORD PTR iend$1$[rsp]
$LN485@ZSTD_compr:
	mov	rdx, QWORD PTR rep$[rsp]
	test	r10d, r10d
	mov	eax, ecx
	cmovne	eax, r10d
	test	ebp, ebp
	cmovne	ecx, ebp
	mov	DWORD PTR [rdx], eax
	mov	DWORD PTR [rdx+4], ecx
$LN2629@ZSTD_compr:
	mov	rbx, QWORD PTR [rsp+200]
	sub	rsi, r15
	mov	rax, rsi
	add	rsp, 128				; 00000080H
	pop	r15
	pop	r14
	pop	r13
	pop	r12
	pop	rdi
	pop	rsi
	pop	rbp
	ret	0
ZSTD_compressBlock_doubleFast ENDP
_TEXT	ENDS
; Function compile flags: /Ogtpy
; File E:\dev\pyzstd\lib\compress\zstd_double_fast.c
; File E:\dev\pyzstd\lib\compress\zstd_compress_internal.h
; File E:\dev\pyzstd\lib\compress\zstd_double_fast.c
; File E:\dev\pyzstd\lib\compress\zstd_compress_internal.h
; File E:\dev\pyzstd\lib\compress\zstd_double_fast.c
; File E:\dev\pyzstd\lib\compress\zstd_compress_internal.h
; File E:\dev\pyzstd\lib\compress\zstd_double_fast.c
; File E:\dev\pyzstd\lib\compress\zstd_compress_internal.h
; File E:\dev\pyzstd\lib\compress\zstd_double_fast.c
; File E:\dev\pyzstd\lib\compress\zstd_compress_internal.h
; File E:\dev\pyzstd\lib\compress\zstd_double_fast.c
; File E:\dev\pyzstd\lib\compress\zstd_compress_internal.h
; File E:\dev\pyzstd\lib\compress\zstd_double_fast.c
; File E:\dev\pyzstd\lib\compress\zstd_compress_internal.h
; File E:\dev\pyzstd\lib\compress\zstd_double_fast.c
; File E:\dev\pyzstd\lib\compress\zstd_compress_internal.h
; File E:\dev\pyzstd\lib\compress\zstd_double_fast.c
; File E:\dev\pyzstd\lib\compress\zstd_compress_internal.h
; File E:\dev\pyzstd\lib\common\zstd_internal.h
; File E:\dev\pyzstd\lib\compress\zstd_compress_internal.h
; File E:\dev\pyzstd\lib\common\zstd_internal.h
; File E:\dev\pyzstd\lib\compress\zstd_compress_internal.h
; File E:\dev\pyzstd\lib\compress\zstd_double_fast.c
; File E:\dev\pyzstd\lib\compress\zstd_compress_internal.h
; File E:\dev\pyzstd\lib\compress\zstd_double_fast.c
; File E:\dev\pyzstd\lib\compress\zstd_compress_internal.h
; File E:\dev\pyzstd\lib\compress\zstd_double_fast.c
; File E:\dev\pyzstd\lib\compress\zstd_compress_internal.h
; File E:\dev\pyzstd\lib\compress\zstd_double_fast.c
; File E:\dev\pyzstd\lib\compress\zstd_compress_internal.h
; File E:\dev\pyzstd\lib\common\zstd_internal.h
; File E:\dev\pyzstd\lib\compress\zstd_compress_internal.h
; File E:\dev\pyzstd\lib\common\zstd_internal.h
; File E:\dev\pyzstd\lib\compress\zstd_compress_internal.h
; File E:\dev\pyzstd\lib\compress\zstd_double_fast.c
; File E:\dev\pyzstd\lib\compress\zstd_compress_internal.h
; File E:\dev\pyzstd\lib\compress\zstd_double_fast.c
; File E:\dev\pyzstd\lib\compress\zstd_compress_internal.h
; File E:\dev\pyzstd\lib\compress\zstd_double_fast.c
; File E:\dev\pyzstd\lib\compress\zstd_compress_internal.h
; File E:\dev\pyzstd\lib\common\zstd_internal.h
; File E:\dev\pyzstd\lib\compress\zstd_compress_internal.h
; File E:\dev\pyzstd\lib\compress\zstd_double_fast.c
; File E:\dev\pyzstd\lib\compress\zstd_compress_internal.h
; File E:\dev\pyzstd\lib\compress\zstd_double_fast.c
; File E:\dev\pyzstd\lib\compress\zstd_compress_internal.h
; File E:\dev\pyzstd\lib\compress\zstd_double_fast.c
; File E:\dev\pyzstd\lib\compress\zstd_compress_internal.h
; File E:\dev\pyzstd\lib\compress\zstd_double_fast.c
; File E:\dev\pyzstd\lib\compress\zstd_compress_internal.h
; File E:\dev\pyzstd\lib\compress\zstd_double_fast.c
; File E:\dev\pyzstd\lib\compress\zstd_compress_internal.h
; File E:\dev\pyzstd\lib\compress\zstd_double_fast.c
; File E:\dev\pyzstd\lib\compress\zstd_compress_internal.h
; File E:\dev\pyzstd\lib\compress\zstd_double_fast.c
; File E:\dev\pyzstd\lib\compress\zstd_compress_internal.h
; File E:\dev\pyzstd\lib\compress\zstd_double_fast.c
; File E:\dev\pyzstd\lib\compress\zstd_compress_internal.h
; File E:\dev\pyzstd\lib\compress\zstd_double_fast.c
; File E:\dev\pyzstd\lib\compress\zstd_compress_internal.h
; File E:\dev\pyzstd\lib\compress\zstd_double_fast.c
; File E:\dev\pyzstd\lib\compress\zstd_compress_internal.h
; File E:\dev\pyzstd\lib\compress\zstd_double_fast.c
; File E:\dev\pyzstd\lib\compress\zstd_compress_internal.h
; File E:\dev\pyzstd\lib\compress\zstd_double_fast.c
; File E:\dev\pyzstd\lib\compress\zstd_compress_internal.h
; File E:\dev\pyzstd\lib\common\zstd_internal.h
; File E:\dev\pyzstd\lib\compress\zstd_compress_internal.h
; File E:\dev\pyzstd\lib\common\zstd_internal.h
; File E:\dev\pyzstd\lib\compress\zstd_compress_internal.h
; File E:\dev\pyzstd\lib\compress\zstd_double_fast.c
; File E:\dev\pyzstd\lib\compress\zstd_compress_internal.h
; File E:\dev\pyzstd\lib\compress\zstd_double_fast.c
; File E:\dev\pyzstd\lib\compress\zstd_compress_internal.h
; File E:\dev\pyzstd\lib\compress\zstd_double_fast.c
; File E:\dev\pyzstd\lib\compress\zstd_compress_internal.h
; File E:\dev\pyzstd\lib\compress\zstd_double_fast.c
; File E:\dev\pyzstd\lib\compress\zstd_compress_internal.h
; File E:\dev\pyzstd\lib\compress\zstd_double_fast.c
; File E:\dev\pyzstd\lib\compress\zstd_compress_internal.h
; File E:\dev\pyzstd\lib\compress\zstd_double_fast.c
; File E:\dev\pyzstd\lib\compress\zstd_compress_internal.h
; File E:\dev\pyzstd\lib\compress\zstd_double_fast.c
; File E:\dev\pyzstd\lib\compress\zstd_compress_internal.h
; File E:\dev\pyzstd\lib\common\zstd_internal.h
; File E:\dev\pyzstd\lib\compress\zstd_compress_internal.h
; File E:\dev\pyzstd\lib\common\zstd_internal.h
; File E:\dev\pyzstd\lib\compress\zstd_compress_internal.h
; File E:\dev\pyzstd\lib\compress\zstd_double_fast.c
; File E:\dev\pyzstd\lib\compress\zstd_compress_internal.h
; File E:\dev\pyzstd\lib\compress\zstd_double_fast.c
; File E:\dev\pyzstd\lib\compress\zstd_compress_internal.h
; File E:\dev\pyzstd\lib\common\zstd_internal.h
; File E:\dev\pyzstd\lib\compress\zstd_compress_internal.h
; File E:\dev\pyzstd\lib\compress\zstd_double_fast.c
; File E:\dev\pyzstd\lib\compress\zstd_compress_internal.h
; File E:\dev\pyzstd\lib\compress\zstd_double_fast.c
; File E:\dev\pyzstd\lib\compress\zstd_compress_internal.h
; File E:\dev\pyzstd\lib\compress\zstd_double_fast.c
; File E:\dev\pyzstd\lib\compress\zstd_compress_internal.h
; File E:\dev\pyzstd\lib\compress\zstd_double_fast.c
; File E:\dev\pyzstd\lib\compress\zstd_compress_internal.h
; File E:\dev\pyzstd\lib\compress\zstd_double_fast.c
; File E:\dev\pyzstd\lib\compress\zstd_compress_internal.h
; File E:\dev\pyzstd\lib\compress\zstd_double_fast.c
; File E:\dev\pyzstd\lib\compress\zstd_compress_internal.h
; File E:\dev\pyzstd\lib\compress\zstd_double_fast.c
; File E:\dev\pyzstd\lib\compress\zstd_compress_internal.h
; File E:\dev\pyzstd\lib\compress\zstd_double_fast.c
; File E:\dev\pyzstd\lib\compress\zstd_compress_internal.h
; File E:\dev\pyzstd\lib\compress\zstd_double_fast.c
; File E:\dev\pyzstd\lib\compress\zstd_compress_internal.h
; File E:\dev\pyzstd\lib\compress\zstd_double_fast.c
; File E:\dev\pyzstd\lib\compress\zstd_compress_internal.h
; File E:\dev\pyzstd\lib\compress\zstd_double_fast.c
; File E:\dev\pyzstd\lib\compress\zstd_compress_internal.h
; File E:\dev\pyzstd\lib\compress\zstd_double_fast.c
; File E:\dev\pyzstd\lib\compress\zstd_compress_internal.h
; File E:\dev\pyzstd\lib\compress\zstd_double_fast.c
; File E:\dev\pyzstd\lib\compress\zstd_compress_internal.h
; File E:\dev\pyzstd\lib\compress\zstd_double_fast.c
; File E:\dev\pyzstd\lib\compress\zstd_compress_internal.h
; File E:\dev\pyzstd\lib\compress\zstd_double_fast.c
; File E:\dev\pyzstd\lib\compress\zstd_compress_internal.h
; File E:\dev\pyzstd\lib\common\zstd_internal.h
; File E:\dev\pyzstd\lib\compress\zstd_compress_internal.h
; File E:\dev\pyzstd\lib\common\zstd_internal.h
; File E:\dev\pyzstd\lib\compress\zstd_compress_internal.h
; File E:\dev\pyzstd\lib\compress\zstd_double_fast.c
; File E:\dev\pyzstd\lib\compress\zstd_compress_internal.h
; File E:\dev\pyzstd\lib\compress\zstd_double_fast.c
; File E:\dev\pyzstd\lib\compress\zstd_compress_internal.h
; File E:\dev\pyzstd\lib\compress\zstd_double_fast.c
; File E:\dev\pyzstd\lib\compress\zstd_compress_internal.h
; File E:\dev\pyzstd\lib\compress\zstd_double_fast.c
; File E:\dev\pyzstd\lib\compress\zstd_compress_internal.h
; File E:\dev\pyzstd\lib\compress\zstd_double_fast.c
; File E:\dev\pyzstd\lib\compress\zstd_compress_internal.h
; File E:\dev\pyzstd\lib\compress\zstd_double_fast.c
; File E:\dev\pyzstd\lib\compress\zstd_compress_internal.h
; File E:\dev\pyzstd\lib\compress\zstd_double_fast.c
; File E:\dev\pyzstd\lib\compress\zstd_compress_internal.h
; File E:\dev\pyzstd\lib\common\zstd_internal.h
; File E:\dev\pyzstd\lib\compress\zstd_compress_internal.h
; File E:\dev\pyzstd\lib\common\zstd_internal.h
; File E:\dev\pyzstd\lib\compress\zstd_compress_internal.h
; File E:\dev\pyzstd\lib\compress\zstd_double_fast.c
; File E:\dev\pyzstd\lib\compress\zstd_compress_internal.h
; File E:\dev\pyzstd\lib\compress\zstd_double_fast.c
; File E:\dev\pyzstd\lib\compress\zstd_compress_internal.h
; File E:\dev\pyzstd\lib\common\zstd_internal.h
; File E:\dev\pyzstd\lib\compress\zstd_compress_internal.h
; File E:\dev\pyzstd\lib\compress\zstd_double_fast.c
; File E:\dev\pyzstd\lib\compress\zstd_compress_internal.h
; File E:\dev\pyzstd\lib\compress\zstd_double_fast.c
; File E:\dev\pyzstd\lib\compress\zstd_compress_internal.h
; File E:\dev\pyzstd\lib\compress\zstd_double_fast.c
; File E:\dev\pyzstd\lib\compress\zstd_compress_internal.h
; File E:\dev\pyzstd\lib\compress\zstd_double_fast.c
; File E:\dev\pyzstd\lib\compress\zstd_compress_internal.h
; File E:\dev\pyzstd\lib\compress\zstd_double_fast.c
; File E:\dev\pyzstd\lib\compress\zstd_compress_internal.h
; File E:\dev\pyzstd\lib\compress\zstd_double_fast.c
; File E:\dev\pyzstd\lib\compress\zstd_compress_internal.h
; File E:\dev\pyzstd\lib\compress\zstd_double_fast.c
; File E:\dev\pyzstd\lib\compress\zstd_compress_internal.h
; File E:\dev\pyzstd\lib\compress\zstd_double_fast.c
; File E:\dev\pyzstd\lib\compress\zstd_compress_internal.h
; File E:\dev\pyzstd\lib\compress\zstd_double_fast.c
; File E:\dev\pyzstd\lib\compress\zstd_compress_internal.h
; File E:\dev\pyzstd\lib\compress\zstd_double_fast.c
; File E:\dev\pyzstd\lib\compress\zstd_compress_internal.h
; File E:\dev\pyzstd\lib\compress\zstd_double_fast.c
; File E:\dev\pyzstd\lib\compress\zstd_compress_internal.h
; File E:\dev\pyzstd\lib\common\zstd_internal.h
; File E:\dev\pyzstd\lib\compress\zstd_compress_internal.h
; File E:\dev\pyzstd\lib\common\zstd_internal.h
; File E:\dev\pyzstd\lib\compress\zstd_compress_internal.h
; File E:\dev\pyzstd\lib\compress\zstd_double_fast.c
; File E:\dev\pyzstd\lib\compress\zstd_compress_internal.h
; File E:\dev\pyzstd\lib\compress\zstd_double_fast.c
; File E:\dev\pyzstd\lib\compress\zstd_compress_internal.h
; File E:\dev\pyzstd\lib\compress\zstd_double_fast.c
; File E:\dev\pyzstd\lib\compress\zstd_compress_internal.h
; File E:\dev\pyzstd\lib\compress\zstd_double_fast.c
; File E:\dev\pyzstd\lib\compress\zstd_compress_internal.h
; File E:\dev\pyzstd\lib\common\zstd_internal.h
; File E:\dev\pyzstd\lib\compress\zstd_compress_internal.h
; File E:\dev\pyzstd\lib\common\zstd_internal.h
; File E:\dev\pyzstd\lib\compress\zstd_compress_internal.h
; File E:\dev\pyzstd\lib\compress\zstd_double_fast.c
; File E:\dev\pyzstd\lib\compress\zstd_compress_internal.h
; File E:\dev\pyzstd\lib\compress\zstd_double_fast.c
; File E:\dev\pyzstd\lib\compress\zstd_compress_internal.h
; File E:\dev\pyzstd\lib\compress\zstd_double_fast.c
; File E:\dev\pyzstd\lib\compress\zstd_compress_internal.h
; File E:\dev\pyzstd\lib\common\zstd_internal.h
; File E:\dev\pyzstd\lib\compress\zstd_compress_internal.h
; File E:\dev\pyzstd\lib\compress\zstd_double_fast.c
; File E:\dev\pyzstd\lib\compress\zstd_compress_internal.h
; File E:\dev\pyzstd\lib\compress\zstd_double_fast.c
_TEXT	SEGMENT
iend$1$ = 48
dictIndexDelta$1$ = 56
dictIndexDelta$1$ = 56
dictIndexDelta$1$ = 56
hBitsL$1$ = 56
prefixLowestIndex$1$ = 60
hBitsS$1$ = 60
hBitsS$1$ = 60
prefixLowestIndex$1$ = 60
hBitsS$1$ = 64
prefixLowestIndex$1$ = 64
prefixLowestIndex$1$ = 64
matchIndexS$1$ = 64
base$1$ = 72
base$1$ = 72
base$1$ = 72
base$1$ = 72
prefixLowest$1$ = 80
prefixLowest$1$ = 80
prefixLowest$1$ = 80
prefixLowest$1$ = 80
matchIndexS$1$ = 88
matchIndexS$1$ = 88
matchIndexS$1$ = 88
hBitsS$1$ = 88
offset_2$1$ = 96
offset_1$1$ = 96
hBitsL$1$ = 96
offset_1$1$ = 96
tv11966 = 96
offset_1$1$ = 104
offset_2$1$ = 104
offset_1$1$ = 104
dictIndexDelta$1$ = 104
tv11967 = 104
hBitsL$1$ = 112
hBitsL$1$ = 112
offset_2$1$ = 112
offset_2$1$ = 112
tv11961 = 112
dictStart$1$ = 120
dictEnd$1$ = 120
dictEnd$1$ = 120
dictStart$1$ = 120
dictEnd$1$ = 128
dictStart$1$ = 128
dictStart$1$ = 128
dictBase$1$ = 128
dictHBitsL$1$ = 136
dictHBitsL$1$ = 136
dictHBitsL$1$ = 136
dictHBitsL$1$ = 136
dictBase$1$ = 144
dictBase$1$ = 144
dictBase$1$ = 144
dictEnd$1$ = 144
hashLong$1$ = 152
litLimit_w$1$ = 160
dictMatchIndexL3$1$ = 160
dictMatchIndexL$1$ = 160
litLimit_w$1$ = 160
dictMatchIndexL3$1$ = 160
dictMatchIndexL$1$ = 160
dictMatchIndexL3$1$ = 160
dictMatchIndexL$1$ = 160
dictHBitsS$1$ = 160
hashSmall$1$ = 168
hashSmall$1$ = 168
hashSmall$1$ = 168
hashSmall$1$ = 168
dictHashLong$1$ = 176
dictHashLong$1$ = 176
dictHL$1$ = 176
dictHashLong$1$ = 176
tv11980 = 176
dictHBitsS$1$ = 184
dictHBitsS$1$ = 184
dictHBitsS$1$ = 184
dictMatchIndexL3$1$ = 184
dictMatchIndexL$1$ = 184
dictHL$1$ = 184
dictHL$1$ = 192
dictHashSmall$1$ = 192
dictHashLong$1$ = 192
dictHashSmall$1$ = 192
dictHashSmall$1$ = 200
dictHL$1$ = 200
dictHashSmall$1$ = 200
current$1$ = 272
current$1$ = 272
current$1$ = 272
current$1$ = 272
ms$ = 272
seqStore$ = 280
rep$ = 288
src$ = 296
srcSize$ = 304
ZSTD_compressBlock_doubleFast_dictMatchState PROC

; 342  : {

$LN2691:
	mov	QWORD PTR [rsp+16], rbx
	mov	QWORD PTR [rsp+24], r8
	push	rbp
	push	rsi
	push	rdi
	push	r12
	push	r13
	push	r14
	push	r15
	sub	rsp, 208				; 000000d0H
	mov	rbx, r9
	mov	rsi, r8
	mov	r9, rcx
	mov	r14, rdx

; 343  :     const U32 mls = ms->cParams.minMatch;
; 344  :     switch(mls)

	mov	rcx, QWORD PTR srcSize$[rsp]
	mov	r8d, ebx
	mov	edx, 1
	mov	rax, QWORD PTR [r9+48]
	mov	edi, DWORD PTR [r9+192]
	lea	r11, QWORD PTR [rbx+rcx]
	mov	QWORD PTR hashLong$1$[rsp], rax
	mov	eax, DWORD PTR [r9+200]
	mov	QWORD PTR iend$1$[rsp], r11
	sub	eax, 5
	je	$LN5@ZSTD_compr
	sub	eax, edx
	je	$LN6@ZSTD_compr
	cmp	eax, edx
	mov	rax, QWORD PTR [r9+64]
	mov	QWORD PTR hashSmall$1$[rsp], rax
	je	$LN7@ZSTD_compr

; 61   :     const BYTE* const base = ms->window.base;

	mov	rbp, QWORD PTR [r9+8]

; 96   :                                      dictCParams->chainLog : hBitsS;
; 97   :     const U32 dictAndPrefixLength  = (U32)((ip - prefixLowest) + (dictEnd - dictStart));
; 98   : 
; 99   :     DEBUGLOG(5, "ZSTD_compressBlock_doubleFast_generic");
; 100  : 
; 101  :     assert(dictMode == ZSTD_noDict || dictMode == ZSTD_dictMatchState);
; 102  : 
; 103  :     /* if a dictionary is attached, it must be within window range */
; 104  :     if (dictMode == ZSTD_dictMatchState) {
; 105  :         assert(ms->window.dictLimit + (1U << cParams->windowLog) >= endIndex);
; 106  :     }
; 107  : 
; 108  :     /* init */
; 109  :     ip += (dictAndPrefixLength == 0);

	mov	r15d, 0
	mov	eax, DWORD PTR [r9+188]
	sub	r8d, ebp
	mov	r13d, DWORD PTR [rsi+4]
	add	r8d, ecx
; File E:\dev\pyzstd\lib\compress\zstd_compress_internal.h

; 991  :     U32    const maxDistance = 1U << windowLog;

	mov	ecx, DWORD PTR [r9+184]
	shl	edx, cl
	mov	ecx, DWORD PTR [r9+24]
; File E:\dev\pyzstd\lib\compress\zstd_double_fast.c

; 60   :     const U32 hBitsS = cParams->chainLog;

	mov	DWORD PTR hBitsS$1$[rsp], eax
; File E:\dev\pyzstd\lib\compress\zstd_compress_internal.h

; 993  :     U32    const withinWindow = (current - lowestValid > maxDistance) ? current - maxDistance : lowestValid;

	mov	eax, r8d
	sub	eax, ecx
; File E:\dev\pyzstd\lib\compress\zstd_double_fast.c

; 58   :     const U32 hBitsL = cParams->hashLog;

	mov	DWORD PTR hBitsL$1$[rsp], edi
; File E:\dev\pyzstd\lib\compress\zstd_compress_internal.h

; 994  :     U32    const isDictionary = (ms->loadedDictEnd != 0);

	sub	r8d, edx
; File E:\dev\pyzstd\lib\compress\zstd_double_fast.c

; 61   :     const BYTE* const base = ms->window.base;

	mov	QWORD PTR base$1$[rsp], rbp
; File E:\dev\pyzstd\lib\compress\zstd_compress_internal.h

; 994  :     U32    const isDictionary = (ms->loadedDictEnd != 0);

	cmp	eax, edx
; File E:\dev\pyzstd\lib\compress\zstd_double_fast.c

; 71   :     U32 offset_1=rep[0], offset_2=rep[1];

	mov	DWORD PTR offset_2$1$[rsp], r13d
	mov	eax, DWORD PTR [rsi]
; File E:\dev\pyzstd\lib\compress\zstd_compress_internal.h

; 994  :     U32    const isDictionary = (ms->loadedDictEnd != 0);

	cmovbe	r8d, ecx
; File E:\dev\pyzstd\lib\compress\zstd_double_fast.c

; 71   :     U32 offset_1=rep[0], offset_2=rep[1];

	mov	DWORD PTR offset_1$1$[rsp], eax

; 72   :     U32 offsetSaved = 0;
; 73   : 
; 74   :     const ZSTD_matchState_t* const dms = ms->dictMatchState;

	mov	rax, QWORD PTR [r9+176]
; File E:\dev\pyzstd\lib\compress\zstd_compress_internal.h

; 994  :     U32    const isDictionary = (ms->loadedDictEnd != 0);

	cmp	DWORD PTR [r9+32], 0

; 995  :     U32    const matchLowest = isDictionary ? lowestValid : withinWindow;

	cmovne	r8d, ecx
; File E:\dev\pyzstd\lib\compress\zstd_double_fast.c

; 70   :     const BYTE* const ilimit = iend - HASH_READ_SIZE;

	add	r11, -8

; 75   :     const ZSTD_compressionParameters* const dictCParams =
; 76   :                                      dictMode == ZSTD_dictMatchState ?
; 77   :                                      &dms->cParams : NULL;
; 78   :     const U32* const dictHashLong  = dictMode == ZSTD_dictMatchState ?
; 79   :                                      dms->hashTable : NULL;
; 80   :     const U32* const dictHashSmall = dictMode == ZSTD_dictMatchState ?
; 81   :                                      dms->chainTable : NULL;
; 82   :     const U32 dictStartIndex       = dictMode == ZSTD_dictMatchState ?
; 83   :                                      dms->window.dictLimit : 0;
; 84   :     const BYTE* const dictBase     = dictMode == ZSTD_dictMatchState ?

	mov	r9, QWORD PTR [rax+8]
	mov	rdx, QWORD PTR [rax+48]

; 85   :                                      dms->window.base : NULL;
; 86   :     const BYTE* const dictStart    = dictMode == ZSTD_dictMatchState ?
; 87   :                                      dictBase + dictStartIndex : NULL;
; 88   :     const BYTE* const dictEnd      = dictMode == ZSTD_dictMatchState ?

	mov	r10, QWORD PTR [rax]
	mov	QWORD PTR dictHashLong$1$[rsp], rdx
	mov	rdx, QWORD PTR [rax+64]
	mov	QWORD PTR dictHashSmall$1$[rsp], rdx
	mov	edx, DWORD PTR [rax+24]
	add	rdx, r9
	mov	QWORD PTR dictBase$1$[rsp], r9

; 90   :     const U32 dictIndexDelta       = dictMode == ZSTD_dictMatchState ?

	sub	r9d, r10d
	mov	ecx, r8d
	add	r9d, r8d
; File E:\dev\pyzstd\lib\compress\zstd_compress_internal.h

; 995  :     U32    const matchLowest = isDictionary ? lowestValid : withinWindow;

	mov	DWORD PTR prefixLowestIndex$1$[rsp], r8d
; File E:\dev\pyzstd\lib\compress\zstd_double_fast.c

; 93   :     const U32 dictHBitsL           = dictMode == ZSTD_dictMatchState ?

	mov	r8d, DWORD PTR [rax+192]
	add	rcx, rbp

; 94   :                                      dictCParams->hashLog : hBitsL;
; 95   :     const U32 dictHBitsS           = dictMode == ZSTD_dictMatchState ?

	mov	eax, DWORD PTR [rax+188]
	mov	DWORD PTR dictHBitsS$1$[rsp], eax

; 96   :                                      dictCParams->chainLog : hBitsS;
; 97   :     const U32 dictAndPrefixLength  = (U32)((ip - prefixLowest) + (dictEnd - dictStart));
; 98   : 
; 99   :     DEBUGLOG(5, "ZSTD_compressBlock_doubleFast_generic");
; 100  : 
; 101  :     assert(dictMode == ZSTD_noDict || dictMode == ZSTD_dictMatchState);
; 102  : 
; 103  :     /* if a dictionary is attached, it must be within window range */
; 104  :     if (dictMode == ZSTD_dictMatchState) {
; 105  :         assert(ms->window.dictLimit + (1U << cParams->windowLog) >= endIndex);
; 106  :     }
; 107  : 
; 108  :     /* init */
; 109  :     ip += (dictAndPrefixLength == 0);

	mov	eax, r10d
	sub	eax, ecx
	mov	QWORD PTR prefixLowest$1$[rsp], rcx
	sub	eax, edx
	mov	QWORD PTR dictStart$1$[rsp], rdx
	add	eax, ebx
	mov	QWORD PTR dictEnd$1$[rsp], r10
	mov	eax, r15d
	mov	DWORD PTR dictIndexDelta$1$[rsp], r9d
	sete	al
	mov	DWORD PTR dictHBitsL$1$[rsp], r8d
	lea	r12, QWORD PTR [rax+rbx]
	cmp	r12, r11

; 110  :     if (dictMode == ZSTD_noDict) {
; 111  :         U32 const current = (U32)(ip - base);
; 112  :         U32 const windowLow = ZSTD_getLowestPrefixIndex(ms, current, cParams->windowLog);
; 113  :         U32 const maxRep = current - windowLow;
; 114  :         if (offset_2 > maxRep) offsetSaved = offset_2, offset_2 = 0;
; 115  :         if (offset_1 > maxRep) offsetSaved = offset_1, offset_1 = 0;
; 116  :     }
; 117  :     if (dictMode == ZSTD_dictMatchState) {
; 118  :         /* dictMatchState repCode checks don't currently handle repCode == 0
; 119  :          * disabling. */
; 120  :         assert(offset_1 <= dictAndPrefixLength);
; 121  :         assert(offset_2 <= dictAndPrefixLength);
; 122  :     }
; 123  : 
; 124  :     /* Main Search Loop */
; 125  :     while (ip < ilimit) {   /* < instead of <=, because repcode check at (ip+1) */

	jae	$LN11@ZSTD_compr
	npad	1
$LL10@ZSTD_compr:

; 126  :         size_t mLength;
; 127  :         U32 offset;
; 128  :         size_t const h2 = ZSTD_hashPtr(ip, hBitsL, 8);

	mov	r8d, 8
	mov	edx, edi
	mov	rcx, r12
	call	ZSTD_hashPtr

; 129  :         size_t const h = ZSTD_hashPtr(ip, hBitsS, mls);

	mov	edx, DWORD PTR hBitsS$1$[rsp]
	mov	r8d, 4
	mov	rcx, r12
	mov	rsi, rax
	call	ZSTD_hashPtr

; 130  :         size_t const dictHL = ZSTD_hashPtr(ip, dictHBitsL, 8);

	mov	edx, DWORD PTR dictHBitsL$1$[rsp]
	mov	r8d, 8
	mov	rcx, r12
	mov	rdi, rax
	call	ZSTD_hashPtr

; 131  :         size_t const dictHS = ZSTD_hashPtr(ip, dictHBitsS, mls);

	mov	edx, DWORD PTR dictHBitsS$1$[rsp]
	mov	r8d, 4
	mov	rcx, r12
	mov	QWORD PTR dictHL$1$[rsp], rax
	call	ZSTD_hashPtr

; 132  :         U32 const current = (U32)(ip-base);
; 133  :         U32 const matchIndexL = hashLong[h2];

	mov	rcx, QWORD PTR hashLong$1$[rsp]
	mov	r11, rax
	mov	r10d, DWORD PTR [rcx+rsi*4]
	lea	r9, QWORD PTR [rcx+rsi*4]

; 134  :         U32 matchIndexS = hashSmall[h];

	mov	rcx, QWORD PTR hashSmall$1$[rsp]
	mov	eax, r12d
	sub	eax, ebp

; 135  :         const BYTE* matchLong = base + matchIndexL;

	add	rbp, r10
	mov	DWORD PTR current$1$[rsp], eax
	mov	r8d, DWORD PTR [rcx+rdi*4]

; 136  :         const BYTE* match = base + matchIndexS;
; 137  :         const U32 repIndex = current + 1 - offset_1;

	mov	ecx, eax
	sub	ecx, DWORD PTR offset_1$1$[rsp]
	mov	esi, r8d
	add	rsi, QWORD PTR base$1$[rsp]
	inc	ecx
	mov	DWORD PTR matchIndexS$1$[rsp], r8d

; 138  :         const BYTE* repMatch = (dictMode == ZSTD_dictMatchState

	cmp	ecx, DWORD PTR prefixLowestIndex$1$[rsp]
	jae	SHORT $LN77@ZSTD_compr
	mov	edx, ecx
	sub	edx, DWORD PTR dictIndexDelta$1$[rsp]
	add	rdx, QWORD PTR dictBase$1$[rsp]
	jmp	SHORT $LN78@ZSTD_compr
$LN77@ZSTD_compr:
	mov	edx, ecx
	add	rdx, QWORD PTR base$1$[rsp]
$LN78@ZSTD_compr:

; 139  :                             && repIndex < prefixLowestIndex) ?
; 140  :                                dictBase + (repIndex - dictIndexDelta) :
; 141  :                                base + repIndex;
; 142  :         hashLong[h2] = hashSmall[h] = current;   /* update hash tables */

	mov	r13, QWORD PTR hashSmall$1$[rsp]
	mov	DWORD PTR [r13+rdi*4], eax

; 143  : 
; 144  :         /* check dictMatchState repcode */
; 145  :         if (dictMode == ZSTD_dictMatchState
; 146  :             && ((U32)((prefixLowestIndex-1) - repIndex) >= 3 /* intentional underflow */)
; 147  :             && (MEM_read32(repMatch) == MEM_read32(ip+1)) ) {

	mov	edi, DWORD PTR prefixLowestIndex$1$[rsp]
	mov	r13, QWORD PTR dictHL$1$[rsp]
	mov	DWORD PTR [r9], eax
	mov	eax, edi
	sub	eax, ecx
	dec	eax
	cmp	eax, 3
	jb	$LN33@ZSTD_compr
	mov	eax, DWORD PTR [r12+1]
	lea	r13, QWORD PTR [r12+1]
	cmp	DWORD PTR [rdx], eax
	jne	$LN2670@ZSTD_compr

; 148  :             const BYTE* repMatchEnd = repIndex < prefixLowestIndex ? dictEnd : iend;

	mov	rbp, QWORD PTR iend$1$[rsp]
	cmp	ecx, edi

; 149  :             mLength = ZSTD_count_2segments(ip+1+4, repMatch+4, iend, repMatchEnd, prefixLowest) + 4;

	mov	rax, QWORD PTR prefixLowest$1$[rsp]
	lea	rcx, QWORD PTR [r12+5]
	mov	r9, rbp
	mov	QWORD PTR [rsp+32], rax
	cmovb	r9, QWORD PTR dictEnd$1$[rsp]
	mov	r8, rbp
	add	rdx, 4
	call	ZSTD_count_2segments
; File E:\dev\pyzstd\lib\compress\zstd_compress_internal.h

; 442  :     BYTE const* const litEnd = literals + litLength;

	mov	rcx, QWORD PTR [r14+24]
	lea	r9, QWORD PTR [rbp-32]
; File E:\dev\pyzstd\lib\compress\zstd_double_fast.c

; 150  :             ip++;

	mov	r12, r13

; 151  :             ZSTD_storeSeq(seqStore, (size_t)(ip-anchor), anchor, iend, 0, mLength-MINMATCH);

	sub	r13, rbx
	lea	rdi, QWORD PTR [rax+4]
	lea	rsi, QWORD PTR [rdi-3]
; File E:\dev\pyzstd\lib\compress\zstd_compress_internal.h

; 442  :     BYTE const* const litEnd = literals + litLength;

	lea	r8, QWORD PTR [rbx+r13]

; 456  :     if (litEnd <= litLimit_w) {

	cmp	r8, r9
	ja	SHORT $LN333@ZSTD_compr
; File E:\dev\pyzstd\lib\common\zstd_internal.h

; 243  :     memcpy(dst, src, 16);

	movups	xmm0, XMMWORD PTR [rbx]
	movups	XMMWORD PTR [rcx], xmm0
; File E:\dev\pyzstd\lib\compress\zstd_compress_internal.h

; 462  :         if (litLength > 16) {

	cmp	r13, 16
	jbe	SHORT $LN334@ZSTD_compr

; 463  :             ZSTD_wildcopy(seqStorePtr->lit+16, literals+16, (ptrdiff_t)litLength-16, ZSTD_no_overlap);

	mov	rax, QWORD PTR [r14+24]
	add	rbx, 16
	add	rax, 16
; File E:\dev\pyzstd\lib\common\zstd_internal.h

; 270  :     BYTE* const oend = op + length;

	lea	rcx, QWORD PTR [rax-16]
	add	rcx, r13
	npad	13
$LL347@ZSTD_compr:

; 243  :     memcpy(dst, src, 16);

	movups	xmm0, XMMWORD PTR [rbx]

; 289  :             COPY16(op, ip);

	lea	rbx, QWORD PTR [rbx+16]

; 243  :     memcpy(dst, src, 16);

	movups	XMMWORD PTR [rax], xmm0

; 289  :             COPY16(op, ip);

	add	rax, 16

; 290  :         }
; 291  :         while (op < oend);

	cmp	rax, rcx
	jb	SHORT $LL347@ZSTD_compr
; File E:\dev\pyzstd\lib\compress\zstd_compress_internal.h

; 465  :     } else {

	jmp	SHORT $LN334@ZSTD_compr
$LN333@ZSTD_compr:

; 466  :         ZSTD_safecopyLiterals(seqStorePtr->lit, literals, litEnd, litLimit_w);

	mov	rdx, rbx
	call	ZSTD_safecopyLiterals
$LN334@ZSTD_compr:

; 467  :     }
; 468  :     seqStorePtr->lit += litLength;

	add	QWORD PTR [r14+24], r13
	mov	rcx, QWORD PTR [r14+8]

; 469  : 
; 470  :     /* literal Length */
; 471  :     if (litLength>0xFFFF) {

	cmp	r13, 65535				; 0000ffffH
	jbe	SHORT $LN2602@ZSTD_compr

; 472  :         assert(seqStorePtr->longLengthID == 0); /* there can only be a single long length */
; 473  :         seqStorePtr->longLengthID = 1;
; 474  :         seqStorePtr->longLengthPos = (U32)(seqStorePtr->sequences - seqStorePtr->sequencesStart);

	mov	rax, rcx
	mov	DWORD PTR [r14+72], 1
	sub	rax, QWORD PTR [r14]
	sar	rax, 3
	mov	DWORD PTR [r14+76], eax
$LN2602@ZSTD_compr:

; 475  :     }
; 476  :     seqStorePtr->sequences[0].litLength = (U16)litLength;

	mov	WORD PTR [rcx+4], r13w

; 477  : 
; 478  :     /* match offset */
; 479  :     seqStorePtr->sequences[0].offset = offCode + 1;

	mov	rax, QWORD PTR [r14+8]
	mov	DWORD PTR [rax], 1
	mov	rcx, QWORD PTR [r14+8]

; 480  : 
; 481  :     /* match Length */
; 482  :     if (mlBase>0xFFFF) {

	cmp	rsi, 65535				; 0000ffffH
	jbe	SHORT $LN2603@ZSTD_compr

; 483  :         assert(seqStorePtr->longLengthID == 0); /* there can only be a single long length */
; 484  :         seqStorePtr->longLengthID = 2;
; 485  :         seqStorePtr->longLengthPos = (U32)(seqStorePtr->sequences - seqStorePtr->sequencesStart);

	mov	rax, rcx
	mov	DWORD PTR [r14+72], 2
	sub	rax, QWORD PTR [r14]
	sar	rax, 3
	mov	DWORD PTR [r14+76], eax
$LN2603@ZSTD_compr:

; 487  :     seqStorePtr->sequences[0].matchLength = (U16)mlBase;

	mov	WORD PTR [rcx+6], si
; File E:\dev\pyzstd\lib\compress\zstd_double_fast.c

; 152  :             goto _match_stored;

	jmp	$LN2682@ZSTD_compr
$LN2670@ZSTD_compr:

; 143  : 
; 144  :         /* check dictMatchState repcode */
; 145  :         if (dictMode == ZSTD_dictMatchState
; 146  :             && ((U32)((prefixLowestIndex-1) - repIndex) >= 3 /* intentional underflow */)
; 147  :             && (MEM_read32(repMatch) == MEM_read32(ip+1)) ) {

	mov	r13, QWORD PTR dictHL$1$[rsp]
$LN33@ZSTD_compr:

; 153  :         }
; 154  : 
; 155  :         /* check noDict repcode */
; 156  :         if ( dictMode == ZSTD_noDict
; 157  :           && ((offset_1 > 0) & (MEM_read32(ip+1-offset_1) == MEM_read32(ip+1)))) {
; 158  :             mLength = ZSTD_count(ip+1+4, ip+1+4-offset_1, iend) + 4;
; 159  :             ip++;
; 160  :             ZSTD_storeSeq(seqStore, (size_t)(ip-anchor), anchor, iend, 0, mLength-MINMATCH);
; 161  :             goto _match_stored;
; 162  :         }
; 163  : 
; 164  :         if (matchIndexL > prefixLowestIndex) {

	cmp	r10d, edi
	jbe	$LN35@ZSTD_compr

; 165  :             /* check prefix long match */
; 166  :             if (MEM_read64(matchLong) == MEM_read64(ip)) {

	mov	rax, QWORD PTR [r12]
	cmp	QWORD PTR [rbp], rax
	jne	$LN2678@ZSTD_compr

; 167  :                 mLength = ZSTD_count(ip+8, matchLong+8, iend) + 8;

	mov	r8, QWORD PTR iend$1$[rsp]
	lea	rdx, QWORD PTR [rbp+8]
	lea	rcx, QWORD PTR [r12+8]
	call	ZSTD_count

; 168  :                 offset = (U32)(ip-matchLong);
; 169  :                 while (((ip>anchor) & (matchLong>prefixLowest)) && (ip[-1] == matchLong[-1])) { ip--; matchLong--; mLength++; } /* catch up */

	mov	r10, QWORD PTR prefixLowest$1$[rsp]
	mov	ecx, r15d
	mov	r13d, r12d
	sub	r13d, ebp
	cmp	rbp, r10
	lea	rdi, QWORD PTR [rax+8]
	mov	eax, r15d
	seta	cl
	cmp	r12, rbx
	seta	al
	test	ecx, eax
	je	$_match_found$2692
	npad	6
$LL12@ZSTD_compr:
	movzx	eax, BYTE PTR [rbp-1]
	lea	rdx, QWORD PTR [r12-1]
	dec	rbp
	cmp	BYTE PTR [rdx], al
	jne	$_match_found$2692
	inc	rdi
	mov	ecx, r15d
	cmp	rbp, r10
	mov	eax, r15d
	mov	r12, rdx
	seta	cl
	cmp	rdx, rbx
	seta	al
	test	ecx, eax
	jne	SHORT $LL12@ZSTD_compr

; 170  :                 goto _match_found;

	jmp	$_match_found$2692
$LN35@ZSTD_compr:

; 171  :             }
; 172  :         } else if (dictMode == ZSTD_dictMatchState) {
; 173  :             /* check dictMatchState long match */
; 174  :             U32 const dictMatchIndexL = dictHashLong[dictHL];

	mov	rax, QWORD PTR dictHashLong$1$[rsp]

; 175  :             const BYTE* dictMatchL = dictBase + dictMatchIndexL;

	mov	r9, QWORD PTR dictBase$1$[rsp]

; 176  :             assert(dictMatchL < dictEnd);
; 177  : 
; 178  :             if (dictMatchL > dictStart && MEM_read64(dictMatchL) == MEM_read64(ip)) {

	mov	rdx, QWORD PTR dictStart$1$[rsp]
	mov	eax, DWORD PTR [rax+r13*4]
	mov	DWORD PTR dictMatchIndexL$1$[rsp], eax
	lea	rbp, QWORD PTR [r9+rax]
	cmp	rbp, rdx
	jbe	$LN39@ZSTD_compr
	mov	rax, QWORD PTR [r12]
	cmp	QWORD PTR [rbp], rax
	jne	$LN39@ZSTD_compr

; 179  :                 mLength = ZSTD_count_2segments(ip+8, dictMatchL+8, iend, dictEnd, prefixLowest) + 8;

	mov	rax, QWORD PTR prefixLowest$1$[rsp]
	lea	rdx, QWORD PTR [rbp+8]
	mov	r9, QWORD PTR dictEnd$1$[rsp]
	lea	rcx, QWORD PTR [r12+8]
	mov	r8, QWORD PTR iend$1$[rsp]
	mov	QWORD PTR [rsp+32], rax
	call	ZSTD_count_2segments

; 180  :                 offset = (U32)(current - dictMatchIndexL - dictIndexDelta);

	mov	r13d, DWORD PTR current$1$[rsp]
	sub	r13d, DWORD PTR dictMatchIndexL$1$[rsp]
	sub	r13d, DWORD PTR dictIndexDelta$1$[rsp]
	lea	rdi, QWORD PTR [rax+8]

; 181  :                 while (((ip>anchor) & (dictMatchL>dictStart)) && (ip[-1] == dictMatchL[-1])) { ip--; dictMatchL--; mLength++; } /* catch up */

	cmp	r12, rbx
	jbe	$_match_found$2692
	mov	r8, QWORD PTR dictStart$1$[rsp]
	npad	4
$LL14@ZSTD_compr:
	movzx	eax, BYTE PTR [rbp-1]
	lea	rdx, QWORD PTR [r12-1]
	dec	rbp
	cmp	BYTE PTR [rdx], al
	jne	$_match_found$2692
	inc	rdi
	mov	ecx, r15d
	cmp	rdx, rbx
	mov	eax, r15d
	mov	r12, rdx
	seta	cl
	cmp	rbp, r8
	seta	al
	test	ecx, eax
	jne	SHORT $LL14@ZSTD_compr

; 182  :                 goto _match_found;

	jmp	$_match_found$2692
$LN2678@ZSTD_compr:

; 165  :             /* check prefix long match */
; 166  :             if (MEM_read64(matchLong) == MEM_read64(ip)) {

	mov	rdx, QWORD PTR dictStart$1$[rsp]
	mov	r9, QWORD PTR dictBase$1$[rsp]
$LN39@ZSTD_compr:

; 183  :         }   }
; 184  : 
; 185  :         if (matchIndexS > prefixLowestIndex) {

	cmp	r8d, edi
	jbe	SHORT $LN40@ZSTD_compr

; 186  :             /* check prefix short match */
; 187  :             if (MEM_read32(match) == MEM_read32(ip)) {

	mov	eax, DWORD PTR [r12]
	cmp	DWORD PTR [rsi], eax
	je	SHORT $_search_next_long$2693
$LN44@ZSTD_compr:

; 197  :                 goto _search_next_long;
; 198  :         }   }
; 199  : 
; 200  :         ip += ((ip-anchor) >> kSearchStrength) + 1;

	mov	rcx, r12
	inc	r12
	sub	rcx, rbx
	sar	rcx, 8
	add	r12, rcx
$LN2674@ZSTD_compr:

; 110  :     if (dictMode == ZSTD_noDict) {
; 111  :         U32 const current = (U32)(ip - base);
; 112  :         U32 const windowLow = ZSTD_getLowestPrefixIndex(ms, current, cParams->windowLog);
; 113  :         U32 const maxRep = current - windowLow;
; 114  :         if (offset_2 > maxRep) offsetSaved = offset_2, offset_2 = 0;
; 115  :         if (offset_1 > maxRep) offsetSaved = offset_1, offset_1 = 0;
; 116  :     }
; 117  :     if (dictMode == ZSTD_dictMatchState) {
; 118  :         /* dictMatchState repCode checks don't currently handle repCode == 0
; 119  :          * disabling. */
; 120  :         assert(offset_1 <= dictAndPrefixLength);
; 121  :         assert(offset_2 <= dictAndPrefixLength);
; 122  :     }
; 123  : 
; 124  :     /* Main Search Loop */
; 125  :     while (ip < ilimit) {   /* < instead of <=, because repcode check at (ip+1) */

	mov	r13d, DWORD PTR offset_2$1$[rsp]
$LN2683@ZSTD_compr:
	mov	rbp, QWORD PTR base$1$[rsp]
$LN2537@ZSTD_compr:
	mov	rax, QWORD PTR iend$1$[rsp]
	mov	edi, DWORD PTR hBitsL$1$[rsp]
	add	rax, -8
	cmp	r12, rax
	jb	$LL10@ZSTD_compr
	mov	rsi, QWORD PTR rep$[rsp]
$LN11@ZSTD_compr:

; 309  : 
; 310  :     /* save reps for next block */
; 311  :     rep[0] = offset_1 ? offset_1 : offsetSaved;

	mov	eax, DWORD PTR offset_1$1$[rsp]

; 345  :     {
; 346  :     default: /* includes case 3 */
; 347  :     case 4 :
; 348  :         return ZSTD_compressBlock_doubleFast_generic(ms, seqStore, rep, src, srcSize, 4, ZSTD_dictMatchState);

	jmp	$LN2684@ZSTD_compr
$LN40@ZSTD_compr:

; 192  :             U32 const dictMatchIndexS = dictHashSmall[dictHS];

	mov	rax, QWORD PTR dictHashSmall$1$[rsp]
	mov	ecx, DWORD PTR [rax+r11*4]

; 193  :             match = dictBase + dictMatchIndexS;
; 194  :             matchIndexS = dictMatchIndexS + dictIndexDelta;

	mov	eax, DWORD PTR dictIndexDelta$1$[rsp]
	add	eax, ecx
	mov	DWORD PTR matchIndexS$1$[rsp], eax
	lea	rsi, QWORD PTR [r9+rcx]

; 195  : 
; 196  :             if (match > dictStart && MEM_read32(match) == MEM_read32(ip)) {

	cmp	rsi, rdx
	jbe	SHORT $LN44@ZSTD_compr
	mov	eax, DWORD PTR [r12]
	cmp	DWORD PTR [rsi], eax
	jne	SHORT $LN44@ZSTD_compr
$_search_next_long$2693:

; 201  : #if defined(__aarch64__)
; 202  :         PREFETCH_L1(ip+256);
; 203  : #endif
; 204  :         continue;
; 205  : 
; 206  : _search_next_long:
; 207  : 
; 208  :         {   size_t const hl3 = ZSTD_hashPtr(ip+1, hBitsL, 8);

	mov	edx, DWORD PTR hBitsL$1$[rsp]
	lea	r13, QWORD PTR [r12+1]
	mov	rcx, r13
	mov	QWORD PTR tv11961[rsp], r13
	mov	r8d, 8
	call	ZSTD_hashPtr

; 209  :             size_t const dictHLNext = ZSTD_hashPtr(ip+1, dictHBitsL, 8);

	mov	edx, DWORD PTR dictHBitsL$1$[rsp]
	mov	r8d, 8
	mov	rcx, r13
	mov	rdi, rax
	call	ZSTD_hashPtr

; 210  :             U32 const matchIndexL3 = hashLong[hl3];

	mov	r9, QWORD PTR hashLong$1$[rsp]

; 211  :             const BYTE* matchL3 = base + matchIndexL3;
; 212  :             hashLong[hl3] = current + 1;

	mov	ecx, DWORD PTR current$1$[rsp]
	mov	edx, DWORD PTR [r9+rdi*4]
	mov	ebp, edx
	add	rbp, QWORD PTR base$1$[rsp]
	inc	ecx
	mov	DWORD PTR [r9+rdi*4], ecx

; 213  : 
; 214  :             /* check prefix long +1 match */
; 215  :             if (matchIndexL3 > prefixLowestIndex) {

	mov	ecx, DWORD PTR prefixLowestIndex$1$[rsp]
	cmp	edx, ecx
	jbe	$LN45@ZSTD_compr

; 216  :                 if (MEM_read64(matchL3) == MEM_read64(ip+1)) {

	mov	rax, QWORD PTR [r13]
	cmp	QWORD PTR [rbp], rax
	jne	$LN49@ZSTD_compr

; 217  :                     mLength = ZSTD_count(ip+9, matchL3+8, iend) + 8;

	mov	r8, QWORD PTR iend$1$[rsp]
	lea	rdx, QWORD PTR [rbp+8]
	lea	rcx, QWORD PTR [r12+9]
	call	ZSTD_count

; 218  :                     ip++;
; 219  :                     offset = (U32)(ip-matchL3);
; 220  :                     while (((ip>anchor) & (matchL3>prefixLowest)) && (ip[-1] == matchL3[-1])) { ip--; matchL3--; mLength++; } /* catch up */

	mov	r10, QWORD PTR prefixLowest$1$[rsp]
	mov	r12, r13
	sub	r13d, ebp
	mov	ecx, r15d
	cmp	rbp, r10
	lea	rdi, QWORD PTR [rax+8]
	mov	eax, r15d
	seta	cl
	cmp	r12, rbx
	seta	al
	test	ecx, eax
	je	$_match_found$2692
$LL16@ZSTD_compr:
	movzx	eax, BYTE PTR [rbp-1]
	lea	rdx, QWORD PTR [r12-1]
	dec	rbp
	cmp	BYTE PTR [rdx], al
	jne	$_match_found$2692
	inc	rdi
	mov	ecx, r15d
	cmp	rdx, rbx
	mov	eax, r15d
	mov	r12, rdx
	seta	cl
	cmp	rbp, r10
	seta	al
	test	ecx, eax
	jne	SHORT $LL16@ZSTD_compr

; 221  :                     goto _match_found;

	jmp	$_match_found$2692
$LN45@ZSTD_compr:

; 222  :                 }
; 223  :             } else if (dictMode == ZSTD_dictMatchState) {
; 224  :                 /* check dict long +1 match */
; 225  :                 U32 const dictMatchIndexL3 = dictHashLong[dictHLNext];

	mov	rdx, QWORD PTR dictHashLong$1$[rsp]
	mov	eax, DWORD PTR [rdx+rax*4]

; 226  :                 const BYTE* dictMatchL3 = dictBase + dictMatchIndexL3;

	mov	ebp, eax
	mov	DWORD PTR dictMatchIndexL3$1$[rsp], eax
	add	rbp, QWORD PTR dictBase$1$[rsp]

; 227  :                 assert(dictMatchL3 < dictEnd);
; 228  :                 if (dictMatchL3 > dictStart && MEM_read64(dictMatchL3) == MEM_read64(ip+1)) {

	cmp	rbp, QWORD PTR dictStart$1$[rsp]
	jbe	$LN49@ZSTD_compr
	mov	rax, QWORD PTR [r13]
	cmp	QWORD PTR [rbp], rax
	jne	$LN49@ZSTD_compr

; 229  :                     mLength = ZSTD_count_2segments(ip+1+8, dictMatchL3+8, iend, dictEnd, prefixLowest) + 8;

	mov	rax, QWORD PTR prefixLowest$1$[rsp]
	lea	rdx, QWORD PTR [rbp+8]
	mov	r9, QWORD PTR dictEnd$1$[rsp]
	lea	rcx, QWORD PTR [r12+9]
	mov	r8, QWORD PTR iend$1$[rsp]
	mov	QWORD PTR [rsp+32], rax
	call	ZSTD_count_2segments

; 230  :                     ip++;

	mov	r12, r13

; 231  :                     offset = (U32)(current + 1 - dictMatchIndexL3 - dictIndexDelta);

	mov	r13d, DWORD PTR current$1$[rsp]
	sub	r13d, DWORD PTR dictMatchIndexL3$1$[rsp]
	sub	r13d, DWORD PTR dictIndexDelta$1$[rsp]
	inc	r13d
	lea	rdi, QWORD PTR [rax+8]

; 232  :                     while (((ip>anchor) & (dictMatchL3>dictStart)) && (ip[-1] == dictMatchL3[-1])) { ip--; dictMatchL3--; mLength++; } /* catch up */

	cmp	QWORD PTR tv11961[rsp], rbx
	jbe	$_match_found$2692
	mov	r8, QWORD PTR dictStart$1$[rsp]
	npad	1
$LL18@ZSTD_compr:
	movzx	eax, BYTE PTR [rbp-1]
	lea	rdx, QWORD PTR [r12-1]
	dec	rbp
	cmp	BYTE PTR [rdx], al
	jne	$_match_found$2692
	inc	rdi
	mov	ecx, r15d
	cmp	rdx, rbx
	mov	eax, r15d
	mov	r12, rdx
	seta	cl
	cmp	rbp, r8
	seta	al
	test	ecx, eax
	jne	SHORT $LL18@ZSTD_compr

; 233  :                     goto _match_found;

	jmp	$_match_found$2692
$LN49@ZSTD_compr:

; 234  :         }   }   }
; 235  : 
; 236  :         /* if no long +1 match, explore the short match we found */
; 237  :         if (dictMode == ZSTD_dictMatchState && matchIndexS < prefixLowestIndex) {

	cmp	DWORD PTR matchIndexS$1$[rsp], ecx
	lea	rdx, QWORD PTR [rsi+4]
	mov	r8, QWORD PTR iend$1$[rsp]
	lea	rcx, QWORD PTR [r12+4]
	jae	SHORT $LN50@ZSTD_compr

; 238  :             mLength = ZSTD_count_2segments(ip+4, match+4, iend, dictEnd, prefixLowest) + 4;

	mov	rax, QWORD PTR prefixLowest$1$[rsp]
	mov	r9, QWORD PTR dictEnd$1$[rsp]
	mov	QWORD PTR [rsp+32], rax
	call	ZSTD_count_2segments

; 239  :             offset = (U32)(current - matchIndexS);

	mov	r13d, DWORD PTR current$1$[rsp]

; 240  :             while (((ip>anchor) & (match>dictStart)) && (ip[-1] == match[-1])) { ip--; match--; mLength++; } /* catch up */

	mov	ecx, r15d
	sub	r13d, DWORD PTR matchIndexS$1$[rsp]
	mov	r8, QWORD PTR dictStart$1$[rsp]
	cmp	rsi, r8
	lea	rdi, QWORD PTR [rax+4]
	mov	eax, r15d
	seta	cl
	cmp	r12, rbx
	seta	al
	test	ecx, eax
	je	$_match_found$2692
$LL20@ZSTD_compr:
	movzx	eax, BYTE PTR [rsi-1]
	lea	rdx, QWORD PTR [r12-1]
	dec	rsi
	cmp	BYTE PTR [rdx], al
	jne	SHORT $_match_found$2692
	inc	rdi
	mov	ecx, r15d
	cmp	rsi, r8
	mov	eax, r15d
	mov	r12, rdx
	seta	cl
	cmp	rdx, rbx
	seta	al
	test	ecx, eax
	jne	SHORT $LL20@ZSTD_compr

; 241  :         } else {

	jmp	SHORT $_match_found$2692
$LN50@ZSTD_compr:

; 242  :             mLength = ZSTD_count(ip+4, match+4, iend) + 4;

	call	ZSTD_count

; 243  :             offset = (U32)(ip - match);
; 244  :             while (((ip>anchor) & (match>prefixLowest)) && (ip[-1] == match[-1])) { ip--; match--; mLength++; } /* catch up */

	mov	r10, QWORD PTR prefixLowest$1$[rsp]
	mov	ecx, r15d
	mov	r13d, r12d
	sub	r13d, esi
	cmp	rsi, r10
	lea	rdi, QWORD PTR [rax+4]
	mov	eax, r15d
	seta	cl
	cmp	r12, rbx
	seta	al
	test	ecx, eax
	je	SHORT $_match_found$2692
	npad	8
$LL22@ZSTD_compr:
	movzx	eax, BYTE PTR [rsi-1]
	lea	rdx, QWORD PTR [r12-1]
	dec	rsi
	cmp	BYTE PTR [rdx], al
	jne	SHORT $_match_found$2692
	inc	rdi
	mov	ecx, r15d
	cmp	rsi, r10
	mov	eax, r15d
	mov	r12, rdx
	seta	cl
	cmp	rdx, rbx
	seta	al
	test	ecx, eax
	jne	SHORT $LL22@ZSTD_compr
$_match_found$2692:

; 250  :         offset_2 = offset_1;

	mov	eax, DWORD PTR offset_1$1$[rsp]

; 253  :         ZSTD_storeSeq(seqStore, (size_t)(ip-anchor), anchor, iend, offset + ZSTD_REP_MOVE, mLength-MINMATCH);

	lea	rbp, QWORD PTR [rdi-3]
; File E:\dev\pyzstd\lib\compress\zstd_compress_internal.h

; 441  :     BYTE const* const litLimit_w = litLimit - WILDCOPY_OVERLENGTH;

	mov	r9, QWORD PTR iend$1$[rsp]
; File E:\dev\pyzstd\lib\compress\zstd_double_fast.c

; 253  :         ZSTD_storeSeq(seqStore, (size_t)(ip-anchor), anchor, iend, offset + ZSTD_REP_MOVE, mLength-MINMATCH);

	mov	rsi, r12
; File E:\dev\pyzstd\lib\compress\zstd_compress_internal.h

; 442  :     BYTE const* const litEnd = literals + litLength;

	mov	rcx, QWORD PTR [r14+24]
; File E:\dev\pyzstd\lib\compress\zstd_double_fast.c

; 253  :         ZSTD_storeSeq(seqStore, (size_t)(ip-anchor), anchor, iend, offset + ZSTD_REP_MOVE, mLength-MINMATCH);

	sub	rsi, rbx
; File E:\dev\pyzstd\lib\compress\zstd_compress_internal.h

; 441  :     BYTE const* const litLimit_w = litLimit - WILDCOPY_OVERLENGTH;

	add	r9, -32					; ffffffffffffffe0H
; File E:\dev\pyzstd\lib\compress\zstd_double_fast.c

; 250  :         offset_2 = offset_1;

	mov	DWORD PTR offset_2$1$[rsp], eax

; 251  :         offset_1 = offset;

	mov	DWORD PTR offset_1$1$[rsp], r13d
; File E:\dev\pyzstd\lib\compress\zstd_compress_internal.h

; 442  :     BYTE const* const litEnd = literals + litLength;

	lea	r8, QWORD PTR [rsi+rbx]

; 456  :     if (litEnd <= litLimit_w) {

	cmp	r8, r9
	ja	SHORT $LN407@ZSTD_compr
; File E:\dev\pyzstd\lib\common\zstd_internal.h

; 243  :     memcpy(dst, src, 16);

	movups	xmm0, XMMWORD PTR [rbx]
	movups	XMMWORD PTR [rcx], xmm0
; File E:\dev\pyzstd\lib\compress\zstd_compress_internal.h

; 462  :         if (litLength > 16) {

	cmp	rsi, 16
	jbe	SHORT $LN408@ZSTD_compr

; 463  :             ZSTD_wildcopy(seqStorePtr->lit+16, literals+16, (ptrdiff_t)litLength-16, ZSTD_no_overlap);

	mov	rax, QWORD PTR [r14+24]
	add	rbx, 16
	add	rax, 16
; File E:\dev\pyzstd\lib\common\zstd_internal.h

; 270  :     BYTE* const oend = op + length;

	lea	rcx, QWORD PTR [rax-16]
	add	rcx, rsi
	npad	8
$LL421@ZSTD_compr:

; 243  :     memcpy(dst, src, 16);

	movups	xmm0, XMMWORD PTR [rbx]

; 289  :             COPY16(op, ip);

	lea	rbx, QWORD PTR [rbx+16]

; 243  :     memcpy(dst, src, 16);

	movups	XMMWORD PTR [rax], xmm0

; 289  :             COPY16(op, ip);

	add	rax, 16

; 290  :         }
; 291  :         while (op < oend);

	cmp	rax, rcx
	jb	SHORT $LL421@ZSTD_compr
; File E:\dev\pyzstd\lib\compress\zstd_compress_internal.h

; 465  :     } else {

	jmp	SHORT $LN408@ZSTD_compr
$LN407@ZSTD_compr:

; 466  :         ZSTD_safecopyLiterals(seqStorePtr->lit, literals, litEnd, litLimit_w);

	mov	rdx, rbx
	call	ZSTD_safecopyLiterals
$LN408@ZSTD_compr:

; 467  :     }
; 468  :     seqStorePtr->lit += litLength;

	add	QWORD PTR [r14+24], rsi
	mov	rcx, QWORD PTR [r14+8]

; 469  : 
; 470  :     /* literal Length */
; 471  :     if (litLength>0xFFFF) {

	cmp	rsi, 65535				; 0000ffffH
	jbe	SHORT $LN2604@ZSTD_compr

; 472  :         assert(seqStorePtr->longLengthID == 0); /* there can only be a single long length */
; 473  :         seqStorePtr->longLengthID = 1;
; 474  :         seqStorePtr->longLengthPos = (U32)(seqStorePtr->sequences - seqStorePtr->sequencesStart);

	mov	rax, rcx
	mov	DWORD PTR [r14+72], 1
	sub	rax, QWORD PTR [r14]
	sar	rax, 3
	mov	DWORD PTR [r14+76], eax
$LN2604@ZSTD_compr:

; 475  :     }
; 476  :     seqStorePtr->sequences[0].litLength = (U16)litLength;

	mov	WORD PTR [rcx+4], si

; 477  : 
; 478  :     /* match offset */
; 479  :     seqStorePtr->sequences[0].offset = offCode + 1;

	lea	ecx, DWORD PTR [r13+3]
	mov	rax, QWORD PTR [r14+8]
	mov	DWORD PTR [rax], ecx
	mov	rcx, QWORD PTR [r14+8]

; 480  : 
; 481  :     /* match Length */
; 482  :     if (mlBase>0xFFFF) {

	cmp	rbp, 65535				; 0000ffffH
	jbe	SHORT $LN2605@ZSTD_compr

; 483  :         assert(seqStorePtr->longLengthID == 0); /* there can only be a single long length */
; 484  :         seqStorePtr->longLengthID = 2;
; 485  :         seqStorePtr->longLengthPos = (U32)(seqStorePtr->sequences - seqStorePtr->sequencesStart);

	mov	rax, rcx
	mov	DWORD PTR [r14+72], 2
	sub	rax, QWORD PTR [r14]
	sar	rax, 3
	mov	DWORD PTR [r14+76], eax
$LN2605@ZSTD_compr:

; 487  :     seqStorePtr->sequences[0].matchLength = (U16)mlBase;

	mov	WORD PTR [rcx+6], bp
$LN2682@ZSTD_compr:
; File E:\dev\pyzstd\lib\compress\zstd_double_fast.c

; 257  :         ip += mLength;

	add	QWORD PTR [r14+8], 8
$_match_stored$2694:

; 258  :         anchor = ip;

	mov	rbp, QWORD PTR iend$1$[rsp]
	lea	rbx, QWORD PTR [rdi+r12]
	add	rbp, -8
	mov	r12, rbx
	cmp	rbx, rbp

; 259  : 
; 260  :         if (ip <= ilimit) {

	ja	$LN2674@ZSTD_compr

; 261  :             /* Complementary insertion */
; 262  :             /* done after iLimit test, as candidates could be > iend-8 */
; 263  :             {   U32 const indexToInsert = current+2;

	mov	ebp, DWORD PTR current$1$[rsp]

; 264  :                 hashLong[ZSTD_hashPtr(base+indexToInsert, hBitsL, 8)] = indexToInsert;

	mov	r8d, 8
	mov	r13, QWORD PTR base$1$[rsp]
	add	ebp, 2
	mov	edx, DWORD PTR hBitsL$1$[rsp]
	mov	esi, ebp
	add	rsi, r13
	mov	rcx, rsi
	call	ZSTD_hashPtr
	mov	rcx, QWORD PTR hashLong$1$[rsp]

; 265  :                 hashLong[ZSTD_hashPtr(ip-2, hBitsL, 8)] = (U32)(ip-2-base);

	mov	edi, ebx
	mov	edx, DWORD PTR hBitsL$1$[rsp]
	sub	edi, r13d
	mov	r8d, 8
	sub	edi, 2
	mov	DWORD PTR [rcx+rax*4], ebp
	lea	rcx, QWORD PTR [rbx-2]
	call	ZSTD_hashPtr
	mov	rcx, QWORD PTR hashLong$1$[rsp]

; 266  :                 hashSmall[ZSTD_hashPtr(base+indexToInsert, hBitsS, mls)] = indexToInsert;

	mov	r8d, 4
	mov	edx, DWORD PTR hBitsS$1$[rsp]
	mov	DWORD PTR [rcx+rax*4], edi
	mov	rcx, rsi
	call	ZSTD_hashPtr
	mov	rsi, QWORD PTR hashSmall$1$[rsp]

; 267  :                 hashSmall[ZSTD_hashPtr(ip-1, hBitsS, mls)] = (U32)(ip-1-base);

	lea	rcx, QWORD PTR [rbx-1]
	mov	edx, DWORD PTR hBitsS$1$[rsp]
	mov	edi, ebx
	mov	r8d, 4
	mov	DWORD PTR [rsi+rax*4], ebp
	mov	rbp, r13
	sub	edi, ebp
	dec	edi
	call	ZSTD_hashPtr
	mov	r13d, DWORD PTR offset_2$1$[rsp]
	mov	DWORD PTR [rsi+rax*4], edi
	npad	1
$LL24@ZSTD_compr:

; 275  :                     const BYTE* repMatch2 = dictMode == ZSTD_dictMatchState

	mov	r8d, DWORD PTR prefixLowestIndex$1$[rsp]
	mov	edi, r12d
	sub	edi, ebp
	mov	ecx, edi
	sub	ecx, r13d
	mov	edx, ecx
	cmp	ecx, r8d
	jae	SHORT $LN79@ZSTD_compr
	mov	eax, DWORD PTR dictIndexDelta$1$[rsp]
	sub	rdx, rax
	add	rdx, QWORD PTR dictBase$1$[rsp]
	jmp	SHORT $LN80@ZSTD_compr
$LN79@ZSTD_compr:
	add	rdx, rbp
$LN80@ZSTD_compr:

; 276  :                         && repIndex2 < prefixLowestIndex ?
; 277  :                             dictBase + repIndex2 - dictIndexDelta :
; 278  :                             base + repIndex2;
; 279  :                     if ( ((U32)((prefixLowestIndex-1) - (U32)repIndex2) >= 3 /* intentional overflow */)
; 280  :                        && (MEM_read32(repMatch2) == MEM_read32(ip)) ) {

	mov	eax, r8d
	sub	eax, ecx
	dec	eax
	cmp	eax, 3
	jb	$LN2537@ZSTD_compr
	mov	eax, DWORD PTR [r12]
	cmp	DWORD PTR [rdx], eax
	jne	$LN2537@ZSTD_compr

; 282  :                         size_t const repLength2 = ZSTD_count_2segments(ip+4, repMatch2+4, iend, repEnd2, prefixLowest) + 4;

	mov	rax, QWORD PTR prefixLowest$1$[rsp]
	cmp	ecx, r8d
	mov	r9, QWORD PTR iend$1$[rsp]
	lea	rcx, QWORD PTR [r12+4]
	cmovb	r9, QWORD PTR dictEnd$1$[rsp]
	add	rdx, 4
	mov	r8, QWORD PTR iend$1$[rsp]
	mov	QWORD PTR [rsp+32], rax
	call	ZSTD_count_2segments

; 283  :                         U32 tmpOffset = offset_2; offset_2 = offset_1; offset_1 = tmpOffset;   /* swap offset_2 <=> offset_1 */

	mov	ecx, r13d
	mov	r13d, DWORD PTR offset_1$1$[rsp]
	mov	DWORD PTR offset_1$1$[rsp], ecx
; File E:\dev\pyzstd\lib\compress\zstd_compress_internal.h

; 442  :     BYTE const* const litEnd = literals + litLength;

	mov	rcx, QWORD PTR [r14+24]
; File E:\dev\pyzstd\lib\compress\zstd_double_fast.c

; 282  :                         size_t const repLength2 = ZSTD_count_2segments(ip+4, repMatch2+4, iend, repEnd2, prefixLowest) + 4;

	lea	rsi, QWORD PTR [rax+4]

; 283  :                         U32 tmpOffset = offset_2; offset_2 = offset_1; offset_1 = tmpOffset;   /* swap offset_2 <=> offset_1 */

	mov	DWORD PTR offset_2$1$[rsp], r13d
; File E:\dev\pyzstd\lib\compress\zstd_compress_internal.h

; 456  :     if (litEnd <= litLimit_w) {

	mov	rax, QWORD PTR iend$1$[rsp]
; File E:\dev\pyzstd\lib\compress\zstd_double_fast.c

; 284  :                         ZSTD_storeSeq(seqStore, 0, anchor, iend, 0, repLength2-MINMATCH);

	lea	rbp, QWORD PTR [rsi-3]
; File E:\dev\pyzstd\lib\compress\zstd_compress_internal.h

; 456  :     if (litEnd <= litLimit_w) {

	add	rax, -32				; ffffffffffffffe0H
	cmp	rbx, rax
	ja	SHORT $LN434@ZSTD_compr
; File E:\dev\pyzstd\lib\common\zstd_internal.h

; 243  :     memcpy(dst, src, 16);

	movups	xmm0, XMMWORD PTR [rbx]
	movups	XMMWORD PTR [rcx], xmm0
; File E:\dev\pyzstd\lib\compress\zstd_compress_internal.h

; 465  :     } else {

	jmp	SHORT $LN435@ZSTD_compr
$LN434@ZSTD_compr:

; 466  :         ZSTD_safecopyLiterals(seqStorePtr->lit, literals, litEnd, litLimit_w);

	mov	r9, rax
	mov	r8, rbx
	mov	rdx, rbx
	call	ZSTD_safecopyLiterals
$LN435@ZSTD_compr:

; 475  :     }
; 476  :     seqStorePtr->sequences[0].litLength = (U16)litLength;

	mov	rax, QWORD PTR [r14+8]
	mov	WORD PTR [rax+4], r15w

; 477  : 
; 478  :     /* match offset */
; 479  :     seqStorePtr->sequences[0].offset = offCode + 1;

	mov	rax, QWORD PTR [r14+8]
	mov	DWORD PTR [rax], 1

; 480  : 
; 481  :     /* match Length */
; 482  :     if (mlBase>0xFFFF) {

	cmp	rbp, 65535				; 0000ffffH
	jbe	SHORT $LN2662@ZSTD_compr

; 483  :         assert(seqStorePtr->longLengthID == 0); /* there can only be a single long length */
; 484  :         seqStorePtr->longLengthID = 2;
; 485  :         seqStorePtr->longLengthPos = (U32)(seqStorePtr->sequences - seqStorePtr->sequencesStart);

	mov	rax, QWORD PTR [r14+8]
	sub	rax, QWORD PTR [r14]
	sar	rax, 3
	mov	DWORD PTR [r14+76], eax
	mov	DWORD PTR [r14+72], 2
$LN2662@ZSTD_compr:

; 487  :     seqStorePtr->sequences[0].matchLength = (U16)mlBase;

	mov	rax, QWORD PTR [r14+8]
; File E:\dev\pyzstd\lib\compress\zstd_double_fast.c

; 285  :                         hashSmall[ZSTD_hashPtr(ip, hBitsS, mls)] = current2;

	mov	r8d, 4
	mov	edx, DWORD PTR hBitsS$1$[rsp]
	mov	rcx, r12
; File E:\dev\pyzstd\lib\compress\zstd_compress_internal.h

; 487  :     seqStorePtr->sequences[0].matchLength = (U16)mlBase;

	mov	WORD PTR [rax+6], bp

; 488  : 
; 489  :     seqStorePtr->sequences++;

	add	QWORD PTR [r14+8], 8
; File E:\dev\pyzstd\lib\compress\zstd_double_fast.c

; 285  :                         hashSmall[ZSTD_hashPtr(ip, hBitsS, mls)] = current2;

	call	ZSTD_hashPtr
	mov	rcx, QWORD PTR hashSmall$1$[rsp]

; 286  :                         hashLong[ZSTD_hashPtr(ip, hBitsL, 8)] = current2;

	mov	r8d, 8
	mov	edx, DWORD PTR hBitsL$1$[rsp]
	mov	DWORD PTR [rcx+rax*4], edi
	mov	rcx, r12
	call	ZSTD_hashPtr
	mov	rcx, QWORD PTR hashLong$1$[rsp]

; 287  :                         ip += repLength2;

	add	r12, rsi
	mov	rbp, QWORD PTR iend$1$[rsp]
	mov	rbx, r12
	add	rbp, -8
	cmp	r12, rbp
	mov	rbp, QWORD PTR base$1$[rsp]
	mov	DWORD PTR [rcx+rax*4], edi
	jbe	$LL24@ZSTD_compr

; 288  :                         anchor = ip;
; 289  :                         continue;
; 290  :                     }
; 291  :                     break;
; 292  :             }   }
; 293  : 
; 294  :             if (dictMode == ZSTD_noDict) {
; 295  :                 while ( (ip <= ilimit)
; 296  :                      && ( (offset_2>0)
; 297  :                         & (MEM_read32(ip) == MEM_read32(ip - offset_2)) )) {
; 298  :                     /* store sequence */
; 299  :                     size_t const rLength = ZSTD_count(ip+4, ip+4-offset_2, iend) + 4;
; 300  :                     U32 const tmpOff = offset_2; offset_2 = offset_1; offset_1 = tmpOff;  /* swap offset_2 <=> offset_1 */
; 301  :                     hashSmall[ZSTD_hashPtr(ip, hBitsS, mls)] = (U32)(ip-base);
; 302  :                     hashLong[ZSTD_hashPtr(ip, hBitsL, 8)] = (U32)(ip-base);
; 303  :                     ZSTD_storeSeq(seqStore, 0, anchor, iend, 0, rLength-MINMATCH);
; 304  :                     ip += rLength;
; 305  :                     anchor = ip;
; 306  :                     continue;   /* faster when present ... (?) */
; 307  :         }   }   }
; 308  :     }   /* while (ip < ilimit) */

	jmp	$LN2683@ZSTD_compr
$LN7@ZSTD_compr:

; 61   :     const BYTE* const base = ms->window.base;

	mov	r10, QWORD PTR [r9+8]

; 96   :                                      dictCParams->chainLog : hBitsS;
; 97   :     const U32 dictAndPrefixLength  = (U32)((ip - prefixLowest) + (dictEnd - dictStart));
; 98   : 
; 99   :     DEBUGLOG(5, "ZSTD_compressBlock_doubleFast_generic");
; 100  : 
; 101  :     assert(dictMode == ZSTD_noDict || dictMode == ZSTD_dictMatchState);
; 102  : 
; 103  :     /* if a dictionary is attached, it must be within window range */
; 104  :     if (dictMode == ZSTD_dictMatchState) {
; 105  :         assert(ms->window.dictLimit + (1U << cParams->windowLog) >= endIndex);
; 106  :     }
; 107  : 
; 108  :     /* init */
; 109  :     ip += (dictAndPrefixLength == 0);

	mov	r15d, 0
	mov	r13d, DWORD PTR [r9+188]
	sub	r8d, r10d
	mov	ebp, DWORD PTR [rsi+4]
	add	r8d, ecx
; File E:\dev\pyzstd\lib\compress\zstd_compress_internal.h

; 991  :     U32    const maxDistance = 1U << windowLog;

	mov	ecx, DWORD PTR [r9+184]

; 993  :     U32    const withinWindow = (current - lowestValid > maxDistance) ? current - maxDistance : lowestValid;

	mov	eax, r8d
	shl	edx, cl
	mov	ecx, DWORD PTR [r9+24]

; 994  :     U32    const isDictionary = (ms->loadedDictEnd != 0);

	sub	r8d, edx
	sub	eax, ecx
; File E:\dev\pyzstd\lib\compress\zstd_double_fast.c

; 61   :     const BYTE* const base = ms->window.base;

	mov	QWORD PTR base$1$[rsp], r10
; File E:\dev\pyzstd\lib\compress\zstd_compress_internal.h

; 994  :     U32    const isDictionary = (ms->loadedDictEnd != 0);

	cmp	eax, edx
; File E:\dev\pyzstd\lib\compress\zstd_double_fast.c

; 58   :     const U32 hBitsL = cParams->hashLog;

	mov	DWORD PTR hBitsL$1$[rsp], edi

; 71   :     U32 offset_1=rep[0], offset_2=rep[1];

	mov	eax, DWORD PTR [rsi]
; File E:\dev\pyzstd\lib\compress\zstd_compress_internal.h

; 994  :     U32    const isDictionary = (ms->loadedDictEnd != 0);

	cmovbe	r8d, ecx
; File E:\dev\pyzstd\lib\compress\zstd_double_fast.c

; 71   :     U32 offset_1=rep[0], offset_2=rep[1];

	mov	DWORD PTR offset_1$1$[rsp], eax

; 72   :     U32 offsetSaved = 0;
; 73   : 
; 74   :     const ZSTD_matchState_t* const dms = ms->dictMatchState;

	mov	rax, QWORD PTR [r9+176]
; File E:\dev\pyzstd\lib\compress\zstd_compress_internal.h

; 994  :     U32    const isDictionary = (ms->loadedDictEnd != 0);

	cmp	DWORD PTR [r9+32], 0
; File E:\dev\pyzstd\lib\compress\zstd_double_fast.c

; 60   :     const U32 hBitsS = cParams->chainLog;

	mov	DWORD PTR hBitsS$1$[rsp], r13d
; File E:\dev\pyzstd\lib\compress\zstd_compress_internal.h

; 995  :     U32    const matchLowest = isDictionary ? lowestValid : withinWindow;

	cmovne	r8d, ecx
; File E:\dev\pyzstd\lib\compress\zstd_double_fast.c

; 71   :     U32 offset_1=rep[0], offset_2=rep[1];

	mov	DWORD PTR offset_2$1$[rsp], ebp

; 75   :     const ZSTD_compressionParameters* const dictCParams =
; 76   :                                      dictMode == ZSTD_dictMatchState ?
; 77   :                                      &dms->cParams : NULL;
; 78   :     const U32* const dictHashLong  = dictMode == ZSTD_dictMatchState ?
; 79   :                                      dms->hashTable : NULL;
; 80   :     const U32* const dictHashSmall = dictMode == ZSTD_dictMatchState ?
; 81   :                                      dms->chainTable : NULL;
; 82   :     const U32 dictStartIndex       = dictMode == ZSTD_dictMatchState ?
; 83   :                                      dms->window.dictLimit : 0;
; 84   :     const BYTE* const dictBase     = dictMode == ZSTD_dictMatchState ?

	mov	r9, QWORD PTR [rax+8]
	add	r11, -8
	mov	rdx, QWORD PTR [rax+48]
	mov	QWORD PTR dictHashLong$1$[rsp], rdx
	mov	rdx, QWORD PTR [rax+64]
	mov	ecx, r8d
	add	rcx, r10
	mov	QWORD PTR dictHashSmall$1$[rsp], rdx

; 85   :                                      dms->window.base : NULL;
; 86   :     const BYTE* const dictStart    = dictMode == ZSTD_dictMatchState ?
; 87   :                                      dictBase + dictStartIndex : NULL;
; 88   :     const BYTE* const dictEnd      = dictMode == ZSTD_dictMatchState ?

	mov	r10, QWORD PTR [rax]
	mov	edx, DWORD PTR [rax+24]
	add	rdx, r9
	mov	QWORD PTR dictBase$1$[rsp], r9

; 90   :     const U32 dictIndexDelta       = dictMode == ZSTD_dictMatchState ?

	sub	r9d, r10d
; File E:\dev\pyzstd\lib\compress\zstd_compress_internal.h

; 995  :     U32    const matchLowest = isDictionary ? lowestValid : withinWindow;

	mov	DWORD PTR prefixLowestIndex$1$[rsp], r8d
; File E:\dev\pyzstd\lib\compress\zstd_double_fast.c

; 90   :     const U32 dictIndexDelta       = dictMode == ZSTD_dictMatchState ?

	add	r9d, r8d
	mov	QWORD PTR prefixLowest$1$[rsp], rcx

; 93   :     const U32 dictHBitsL           = dictMode == ZSTD_dictMatchState ?

	mov	r8d, DWORD PTR [rax+192]

; 94   :                                      dictCParams->hashLog : hBitsL;
; 95   :     const U32 dictHBitsS           = dictMode == ZSTD_dictMatchState ?

	mov	eax, DWORD PTR [rax+188]
	mov	DWORD PTR dictHBitsS$1$[rsp], eax

; 96   :                                      dictCParams->chainLog : hBitsS;
; 97   :     const U32 dictAndPrefixLength  = (U32)((ip - prefixLowest) + (dictEnd - dictStart));
; 98   : 
; 99   :     DEBUGLOG(5, "ZSTD_compressBlock_doubleFast_generic");
; 100  : 
; 101  :     assert(dictMode == ZSTD_noDict || dictMode == ZSTD_dictMatchState);
; 102  : 
; 103  :     /* if a dictionary is attached, it must be within window range */
; 104  :     if (dictMode == ZSTD_dictMatchState) {
; 105  :         assert(ms->window.dictLimit + (1U << cParams->windowLog) >= endIndex);
; 106  :     }
; 107  : 
; 108  :     /* init */
; 109  :     ip += (dictAndPrefixLength == 0);

	mov	eax, ebx
	sub	eax, ecx
	mov	QWORD PTR dictStart$1$[rsp], rdx
	sub	eax, edx
	mov	QWORD PTR dictEnd$1$[rsp], r10
	add	eax, r10d
	mov	DWORD PTR dictIndexDelta$1$[rsp], r9d
	mov	eax, r15d
	mov	DWORD PTR dictHBitsL$1$[rsp], r8d
	sete	al
	lea	r12, QWORD PTR [rax+rbx]
	cmp	r12, r11

; 110  :     if (dictMode == ZSTD_noDict) {
; 111  :         U32 const current = (U32)(ip - base);
; 112  :         U32 const windowLow = ZSTD_getLowestPrefixIndex(ms, current, cParams->windowLog);
; 113  :         U32 const maxRep = current - windowLow;
; 114  :         if (offset_2 > maxRep) offsetSaved = offset_2, offset_2 = 0;
; 115  :         if (offset_1 > maxRep) offsetSaved = offset_1, offset_1 = 0;
; 116  :     }
; 117  :     if (dictMode == ZSTD_dictMatchState) {
; 118  :         /* dictMatchState repCode checks don't currently handle repCode == 0
; 119  :          * disabling. */
; 120  :         assert(offset_1 <= dictAndPrefixLength);
; 121  :         assert(offset_2 <= dictAndPrefixLength);
; 122  :     }
; 123  : 
; 124  :     /* Main Search Loop */
; 125  :     while (ip < ilimit) {   /* < instead of <=, because repcode check at (ip+1) */

	jae	$LN1680@ZSTD_compr
	npad	1
$LL1679@ZSTD_compr:

; 126  :         size_t mLength;
; 127  :         U32 offset;
; 128  :         size_t const h2 = ZSTD_hashPtr(ip, hBitsL, 8);

	mov	r8d, 8
	mov	edx, edi
	mov	rcx, r12
	call	ZSTD_hashPtr

; 129  :         size_t const h = ZSTD_hashPtr(ip, hBitsS, mls);

	mov	r8d, 7
	mov	edx, r13d
	mov	rcx, r12
	mov	rsi, rax
	call	ZSTD_hashPtr

; 130  :         size_t const dictHL = ZSTD_hashPtr(ip, dictHBitsL, 8);

	mov	edx, DWORD PTR dictHBitsL$1$[rsp]
	mov	r8d, 8
	mov	rcx, r12
	mov	rdi, rax
	call	ZSTD_hashPtr

; 131  :         size_t const dictHS = ZSTD_hashPtr(ip, dictHBitsS, mls);

	mov	edx, DWORD PTR dictHBitsS$1$[rsp]
	mov	r8d, 7
	mov	rcx, r12
	mov	QWORD PTR dictHL$1$[rsp], rax
	mov	r13, rax
	call	ZSTD_hashPtr

; 132  :         U32 const current = (U32)(ip-base);
; 133  :         U32 const matchIndexL = hashLong[h2];

	mov	rcx, QWORD PTR hashLong$1$[rsp]
	mov	r11, rax
	mov	r10d, DWORD PTR [rcx+rsi*4]
	lea	r8, QWORD PTR [rcx+rsi*4]

; 134  :         U32 matchIndexS = hashSmall[h];

	mov	rcx, QWORD PTR hashSmall$1$[rsp]
	mov	eax, r12d
	sub	eax, DWORD PTR base$1$[rsp]
	lea	r9, QWORD PTR [rcx+rdi*4]
	mov	edx, DWORD PTR [r9]

; 136  :         const BYTE* match = base + matchIndexS;
; 137  :         const U32 repIndex = current + 1 - offset_1;

	mov	ecx, eax
	sub	ecx, DWORD PTR offset_1$1$[rsp]
	mov	esi, edx
	add	rsi, QWORD PTR base$1$[rsp]
	mov	ebp, r10d
	add	rbp, QWORD PTR base$1$[rsp]
	inc	ecx
	mov	DWORD PTR current$1$[rsp], eax
	mov	DWORD PTR matchIndexS$1$[rsp], edx

; 138  :         const BYTE* repMatch = (dictMode == ZSTD_dictMatchState

	cmp	ecx, DWORD PTR prefixLowestIndex$1$[rsp]
	jae	SHORT $LN1746@ZSTD_compr
	mov	edi, ecx
	sub	edi, DWORD PTR dictIndexDelta$1$[rsp]
	add	rdi, QWORD PTR dictBase$1$[rsp]
	jmp	SHORT $LN1747@ZSTD_compr
$LN1746@ZSTD_compr:
	mov	edi, ecx
	add	rdi, QWORD PTR base$1$[rsp]
$LN1747@ZSTD_compr:

; 139  :                             && repIndex < prefixLowestIndex) ?
; 140  :                                dictBase + (repIndex - dictIndexDelta) :
; 141  :                                base + repIndex;
; 142  :         hashLong[h2] = hashSmall[h] = current;   /* update hash tables */

	mov	DWORD PTR [r9], eax
	mov	DWORD PTR [r8], eax

; 143  : 
; 144  :         /* check dictMatchState repcode */
; 145  :         if (dictMode == ZSTD_dictMatchState
; 146  :             && ((U32)((prefixLowestIndex-1) - repIndex) >= 3 /* intentional underflow */)
; 147  :             && (MEM_read32(repMatch) == MEM_read32(ip+1)) ) {

	mov	r8d, DWORD PTR prefixLowestIndex$1$[rsp]
	mov	eax, r8d
	sub	eax, ecx
	dec	eax
	cmp	eax, 3
	jb	$LN1702@ZSTD_compr
	mov	eax, DWORD PTR [r12+1]
	lea	r13, QWORD PTR [r12+1]
	cmp	DWORD PTR [rdi], eax
	jne	$LN2671@ZSTD_compr

; 148  :             const BYTE* repMatchEnd = repIndex < prefixLowestIndex ? dictEnd : iend;

	mov	rdx, QWORD PTR iend$1$[rsp]
	cmp	ecx, r8d
	mov	rsi, rdx
; File E:\dev\pyzstd\lib\compress\zstd_compress_internal.h

; 590  :     const BYTE* const vEnd = MIN( ip + (mEnd - match), iEnd);

	mov	r8, rdx
; File E:\dev\pyzstd\lib\compress\zstd_double_fast.c

; 148  :             const BYTE* repMatchEnd = repIndex < prefixLowestIndex ? dictEnd : iend;

	cmovb	rsi, QWORD PTR dictEnd$1$[rsp]

; 149  :             mLength = ZSTD_count_2segments(ip+1+4, repMatch+4, iend, repMatchEnd, prefixLowest) + 4;

	add	r12, 5
	add	rdi, 4
; File E:\dev\pyzstd\lib\compress\zstd_compress_internal.h

; 590  :     const BYTE* const vEnd = MIN( ip + (mEnd - match), iEnd);

	mov	rcx, r12
	sub	rcx, rdi
	add	rcx, rsi
	cmp	rcx, rdx

; 591  :     size_t const matchLength = ZSTD_count(ip, match, vEnd);

	mov	rdx, rdi
	cmovb	r8, rcx
	mov	rcx, r12
	call	ZSTD_count
	mov	rbp, rax

; 592  :     if (match + matchLength != mEnd) return matchLength;

	lea	rcx, QWORD PTR [rdi+rax]
	cmp	rcx, rsi
	jne	SHORT $LN2080@ZSTD_compr

; 593  :     DEBUGLOG(7, "ZSTD_count_2segments: found a 2-parts match (current length==%zu)", matchLength);
; 594  :     DEBUGLOG(7, "distance from match beginning to end dictionary = %zi", mEnd - match);
; 595  :     DEBUGLOG(7, "distance from current pos to end buffer = %zi", iEnd - ip);
; 596  :     DEBUGLOG(7, "next byte : ip==%02X, istart==%02X", ip[matchLength], *iStart);
; 597  :     DEBUGLOG(7, "final match length = %zu", matchLength + ZSTD_count(ip+matchLength, iStart, iEnd));
; 598  :     return matchLength + ZSTD_count(ip+matchLength, iStart, iEnd);

	mov	r8, QWORD PTR iend$1$[rsp]
	lea	rcx, QWORD PTR [r12+rax]
	mov	rdx, QWORD PTR prefixLowest$1$[rsp]
	call	ZSTD_count
	add	rbp, rax
$LN2080@ZSTD_compr:

; 442  :     BYTE const* const litEnd = literals + litLength;

	mov	rcx, QWORD PTR [r14+24]
; File E:\dev\pyzstd\lib\compress\zstd_double_fast.c

; 149  :             mLength = ZSTD_count_2segments(ip+1+4, repMatch+4, iend, repMatchEnd, prefixLowest) + 4;

	lea	rdi, QWORD PTR [rbp+4]
; File E:\dev\pyzstd\lib\compress\zstd_compress_internal.h

; 441  :     BYTE const* const litLimit_w = litLimit - WILDCOPY_OVERLENGTH;

	mov	rbp, QWORD PTR iend$1$[rsp]
; File E:\dev\pyzstd\lib\compress\zstd_double_fast.c

; 151  :             ZSTD_storeSeq(seqStore, (size_t)(ip-anchor), anchor, iend, 0, mLength-MINMATCH);

	lea	rsi, QWORD PTR [rdi-3]
; File E:\dev\pyzstd\lib\compress\zstd_compress_internal.h

; 441  :     BYTE const* const litLimit_w = litLimit - WILDCOPY_OVERLENGTH;

	add	rbp, -32				; ffffffffffffffe0H
; File E:\dev\pyzstd\lib\compress\zstd_double_fast.c

; 150  :             ip++;

	mov	r12, r13

; 151  :             ZSTD_storeSeq(seqStore, (size_t)(ip-anchor), anchor, iend, 0, mLength-MINMATCH);

	sub	r13, rbx
; File E:\dev\pyzstd\lib\compress\zstd_compress_internal.h

; 441  :     BYTE const* const litLimit_w = litLimit - WILDCOPY_OVERLENGTH;

	mov	QWORD PTR litLimit_w$1$[rsp], rbp

; 442  :     BYTE const* const litEnd = literals + litLength;

	lea	r8, QWORD PTR [rbx+r13]

; 456  :     if (litEnd <= litLimit_w) {

	cmp	r8, rbp
	ja	SHORT $LN2086@ZSTD_compr
; File E:\dev\pyzstd\lib\common\zstd_internal.h

; 243  :     memcpy(dst, src, 16);

	movups	xmm0, XMMWORD PTR [rbx]
	movups	XMMWORD PTR [rcx], xmm0
; File E:\dev\pyzstd\lib\compress\zstd_compress_internal.h

; 462  :         if (litLength > 16) {

	cmp	r13, 16
	jbe	SHORT $LN2087@ZSTD_compr

; 463  :             ZSTD_wildcopy(seqStorePtr->lit+16, literals+16, (ptrdiff_t)litLength-16, ZSTD_no_overlap);

	mov	rax, QWORD PTR [r14+24]
	add	rbx, 16
	add	rax, 16
; File E:\dev\pyzstd\lib\common\zstd_internal.h

; 270  :     BYTE* const oend = op + length;

	lea	rcx, QWORD PTR [rax-16]
	add	rcx, r13
	npad	8
$LL2100@ZSTD_compr:

; 243  :     memcpy(dst, src, 16);

	movups	xmm0, XMMWORD PTR [rbx]

; 289  :             COPY16(op, ip);

	lea	rbx, QWORD PTR [rbx+16]

; 243  :     memcpy(dst, src, 16);

	movups	XMMWORD PTR [rax], xmm0

; 289  :             COPY16(op, ip);

	add	rax, 16

; 290  :         }
; 291  :         while (op < oend);

	cmp	rax, rcx
	jb	SHORT $LL2100@ZSTD_compr
; File E:\dev\pyzstd\lib\compress\zstd_compress_internal.h

; 465  :     } else {

	jmp	SHORT $LN2087@ZSTD_compr
$LN2086@ZSTD_compr:

; 466  :         ZSTD_safecopyLiterals(seqStorePtr->lit, literals, litEnd, litLimit_w);

	mov	r9, rbp
	mov	rdx, rbx
	call	ZSTD_safecopyLiterals
$LN2087@ZSTD_compr:

; 467  :     }
; 468  :     seqStorePtr->lit += litLength;

	add	QWORD PTR [r14+24], r13
	mov	rcx, QWORD PTR [r14+8]

; 469  : 
; 470  :     /* literal Length */
; 471  :     if (litLength>0xFFFF) {

	cmp	r13, 65535				; 0000ffffH
	jbe	SHORT $LN2607@ZSTD_compr

; 472  :         assert(seqStorePtr->longLengthID == 0); /* there can only be a single long length */
; 473  :         seqStorePtr->longLengthID = 1;
; 474  :         seqStorePtr->longLengthPos = (U32)(seqStorePtr->sequences - seqStorePtr->sequencesStart);

	mov	rax, rcx
	mov	DWORD PTR [r14+72], 1
	sub	rax, QWORD PTR [r14]
	sar	rax, 3
	mov	DWORD PTR [r14+76], eax
$LN2607@ZSTD_compr:

; 475  :     }
; 476  :     seqStorePtr->sequences[0].litLength = (U16)litLength;

	mov	WORD PTR [rcx+4], r13w

; 477  : 
; 478  :     /* match offset */
; 479  :     seqStorePtr->sequences[0].offset = offCode + 1;

	mov	rax, QWORD PTR [r14+8]
	mov	DWORD PTR [rax], 1
	mov	rcx, QWORD PTR [r14+8]

; 480  : 
; 481  :     /* match Length */
; 482  :     if (mlBase>0xFFFF) {

	cmp	rsi, 65535				; 0000ffffH
	jbe	SHORT $LN2608@ZSTD_compr

; 483  :         assert(seqStorePtr->longLengthID == 0); /* there can only be a single long length */
; 484  :         seqStorePtr->longLengthID = 2;
; 485  :         seqStorePtr->longLengthPos = (U32)(seqStorePtr->sequences - seqStorePtr->sequencesStart);

	mov	rax, rcx
	mov	DWORD PTR [r14+72], 2
	sub	rax, QWORD PTR [r14]
	sar	rax, 3
	mov	DWORD PTR [r14+76], eax
$LN2608@ZSTD_compr:

; 487  :     seqStorePtr->sequences[0].matchLength = (U16)mlBase;

	mov	WORD PTR [rcx+6], si
; File E:\dev\pyzstd\lib\compress\zstd_double_fast.c

; 152  :             goto _match_stored;

	jmp	$LN2685@ZSTD_compr
$LN2671@ZSTD_compr:

; 143  : 
; 144  :         /* check dictMatchState repcode */
; 145  :         if (dictMode == ZSTD_dictMatchState
; 146  :             && ((U32)((prefixLowestIndex-1) - repIndex) >= 3 /* intentional underflow */)
; 147  :             && (MEM_read32(repMatch) == MEM_read32(ip+1)) ) {

	mov	r13, QWORD PTR dictHL$1$[rsp]
$LN1702@ZSTD_compr:

; 153  :         }
; 154  : 
; 155  :         /* check noDict repcode */
; 156  :         if ( dictMode == ZSTD_noDict
; 157  :           && ((offset_1 > 0) & (MEM_read32(ip+1-offset_1) == MEM_read32(ip+1)))) {
; 158  :             mLength = ZSTD_count(ip+1+4, ip+1+4-offset_1, iend) + 4;
; 159  :             ip++;
; 160  :             ZSTD_storeSeq(seqStore, (size_t)(ip-anchor), anchor, iend, 0, mLength-MINMATCH);
; 161  :             goto _match_stored;
; 162  :         }
; 163  : 
; 164  :         if (matchIndexL > prefixLowestIndex) {

	cmp	r10d, r8d
	jbe	$LN1704@ZSTD_compr

; 165  :             /* check prefix long match */
; 166  :             if (MEM_read64(matchLong) == MEM_read64(ip)) {

	mov	rax, QWORD PTR [r12]
	cmp	QWORD PTR [rbp], rax
	jne	$LN2680@ZSTD_compr

; 167  :                 mLength = ZSTD_count(ip+8, matchLong+8, iend) + 8;

	mov	r8, QWORD PTR iend$1$[rsp]
	lea	rdx, QWORD PTR [rbp+8]
	lea	rcx, QWORD PTR [r12+8]
	call	ZSTD_count

; 168  :                 offset = (U32)(ip-matchLong);
; 169  :                 while (((ip>anchor) & (matchLong>prefixLowest)) && (ip[-1] == matchLong[-1])) { ip--; matchLong--; mLength++; } /* catch up */

	mov	r9, QWORD PTR prefixLowest$1$[rsp]
	mov	edx, r15d
	mov	ecx, r15d
	mov	r13d, r12d
	sub	r13d, ebp
	cmp	rbp, r9
	lea	rdi, QWORD PTR [rax+8]
	seta	dl
	cmp	r12, rbx
	seta	cl
	test	edx, ecx
	je	$_match_found$2695
	npad	3
$LL1681@ZSTD_compr:
	movzx	eax, BYTE PTR [rbp-1]
	lea	rdx, QWORD PTR [r12-1]
	dec	rbp
	cmp	BYTE PTR [rdx], al
	jne	$_match_found$2695
	inc	rdi
	mov	ecx, r15d
	cmp	rbp, r9
	mov	eax, r15d
	mov	r12, rdx
	seta	cl
	cmp	rdx, rbx
	seta	al
	test	ecx, eax
	jne	SHORT $LL1681@ZSTD_compr

; 170  :                 goto _match_found;

	jmp	$_match_found$2695
$LN1704@ZSTD_compr:

; 171  :             }
; 172  :         } else if (dictMode == ZSTD_dictMatchState) {
; 173  :             /* check dictMatchState long match */
; 174  :             U32 const dictMatchIndexL = dictHashLong[dictHL];

	mov	rax, QWORD PTR dictHashLong$1$[rsp]

; 175  :             const BYTE* dictMatchL = dictBase + dictMatchIndexL;

	mov	r10, QWORD PTR dictBase$1$[rsp]

; 176  :             assert(dictMatchL < dictEnd);
; 177  : 
; 178  :             if (dictMatchL > dictStart && MEM_read64(dictMatchL) == MEM_read64(ip)) {

	mov	r9, QWORD PTR dictStart$1$[rsp]
	mov	eax, DWORD PTR [rax+r13*4]
	mov	DWORD PTR dictMatchIndexL$1$[rsp], eax
	lea	rbp, QWORD PTR [r10+rax]
	cmp	rbp, r9
	jbe	$LN1708@ZSTD_compr
	mov	rax, QWORD PTR [r12]
	cmp	QWORD PTR [rbp], rax
	jne	$LN1708@ZSTD_compr
; File E:\dev\pyzstd\lib\compress\zstd_compress_internal.h

; 590  :     const BYTE* const vEnd = MIN( ip + (mEnd - match), iEnd);

	mov	r8, QWORD PTR iend$1$[rsp]
; File E:\dev\pyzstd\lib\compress\zstd_double_fast.c

; 179  :                 mLength = ZSTD_count_2segments(ip+8, dictMatchL+8, iend, dictEnd, prefixLowest) + 8;

	lea	rdi, QWORD PTR [rbp+8]
; File E:\dev\pyzstd\lib\compress\zstd_compress_internal.h

; 590  :     const BYTE* const vEnd = MIN( ip + (mEnd - match), iEnd);

	mov	rcx, QWORD PTR dictEnd$1$[rsp]
; File E:\dev\pyzstd\lib\compress\zstd_double_fast.c

; 179  :                 mLength = ZSTD_count_2segments(ip+8, dictMatchL+8, iend, dictEnd, prefixLowest) + 8;

	lea	r13, QWORD PTR [r12+8]
; File E:\dev\pyzstd\lib\compress\zstd_compress_internal.h

; 590  :     const BYTE* const vEnd = MIN( ip + (mEnd - match), iEnd);

	sub	rcx, rdi

; 591  :     size_t const matchLength = ZSTD_count(ip, match, vEnd);

	mov	rdx, rdi
	add	rcx, r13
	cmp	rcx, r8
	cmovb	r8, rcx
	mov	rcx, r13
	call	ZSTD_count
	mov	rsi, rax

; 592  :     if (match + matchLength != mEnd) return matchLength;

	lea	rcx, QWORD PTR [rdi+rax]
	cmp	rcx, QWORD PTR dictEnd$1$[rsp]
	jne	SHORT $LN2201@ZSTD_compr

; 593  :     DEBUGLOG(7, "ZSTD_count_2segments: found a 2-parts match (current length==%zu)", matchLength);
; 594  :     DEBUGLOG(7, "distance from match beginning to end dictionary = %zi", mEnd - match);
; 595  :     DEBUGLOG(7, "distance from current pos to end buffer = %zi", iEnd - ip);
; 596  :     DEBUGLOG(7, "next byte : ip==%02X, istart==%02X", ip[matchLength], *iStart);
; 597  :     DEBUGLOG(7, "final match length = %zu", matchLength + ZSTD_count(ip+matchLength, iStart, iEnd));
; 598  :     return matchLength + ZSTD_count(ip+matchLength, iStart, iEnd);

	mov	r8, QWORD PTR iend$1$[rsp]
	lea	rcx, QWORD PTR [rax+r13]
	mov	rdx, QWORD PTR prefixLowest$1$[rsp]
	call	ZSTD_count
	add	rsi, rax
$LN2201@ZSTD_compr:
; File E:\dev\pyzstd\lib\compress\zstd_double_fast.c

; 180  :                 offset = (U32)(current - dictMatchIndexL - dictIndexDelta);

	mov	r13d, DWORD PTR current$1$[rsp]
	lea	rdi, QWORD PTR [rsi+8]
	sub	r13d, DWORD PTR dictMatchIndexL$1$[rsp]
	sub	r13d, DWORD PTR dictIndexDelta$1$[rsp]

; 181  :                 while (((ip>anchor) & (dictMatchL>dictStart)) && (ip[-1] == dictMatchL[-1])) { ip--; dictMatchL--; mLength++; } /* catch up */

	cmp	r12, rbx
	jbe	$_match_found$2695
	mov	r8, QWORD PTR dictStart$1$[rsp]
	npad	4
$LL1683@ZSTD_compr:
	movzx	eax, BYTE PTR [rbp-1]
	lea	rdx, QWORD PTR [r12-1]
	dec	rbp
	cmp	BYTE PTR [rdx], al
	jne	$_match_found$2695
	inc	rdi
	mov	ecx, r15d
	cmp	rbp, r8
	mov	eax, r15d
	mov	r12, rdx
	seta	cl
	cmp	rdx, rbx
	seta	al
	test	ecx, eax
	jne	SHORT $LL1683@ZSTD_compr

; 182  :                 goto _match_found;

	jmp	$_match_found$2695
$LN2680@ZSTD_compr:

; 165  :             /* check prefix long match */
; 166  :             if (MEM_read64(matchLong) == MEM_read64(ip)) {

	mov	r9, QWORD PTR dictStart$1$[rsp]
	mov	r10, QWORD PTR dictBase$1$[rsp]
$LN1708@ZSTD_compr:

; 183  :         }   }
; 184  : 
; 185  :         if (matchIndexS > prefixLowestIndex) {

	cmp	edx, r8d
	jbe	SHORT $LN1709@ZSTD_compr

; 186  :             /* check prefix short match */
; 187  :             if (MEM_read32(match) == MEM_read32(ip)) {

	mov	eax, DWORD PTR [r12]
	cmp	DWORD PTR [rsi], eax
	je	SHORT $_search_next_long$2696
$LN1713@ZSTD_compr:

; 197  :                 goto _search_next_long;
; 198  :         }   }
; 199  : 
; 200  :         ip += ((ip-anchor) >> kSearchStrength) + 1;

	mov	rax, r12
	inc	r12
	sub	rax, rbx
	sar	rax, 8
	add	r12, rax
$LN2676@ZSTD_compr:

; 110  :     if (dictMode == ZSTD_noDict) {
; 111  :         U32 const current = (U32)(ip - base);
; 112  :         U32 const windowLow = ZSTD_getLowestPrefixIndex(ms, current, cParams->windowLog);
; 113  :         U32 const maxRep = current - windowLow;
; 114  :         if (offset_2 > maxRep) offsetSaved = offset_2, offset_2 = 0;
; 115  :         if (offset_1 > maxRep) offsetSaved = offset_1, offset_1 = 0;
; 116  :     }
; 117  :     if (dictMode == ZSTD_dictMatchState) {
; 118  :         /* dictMatchState repCode checks don't currently handle repCode == 0
; 119  :          * disabling. */
; 120  :         assert(offset_1 <= dictAndPrefixLength);
; 121  :         assert(offset_2 <= dictAndPrefixLength);
; 122  :     }
; 123  : 
; 124  :     /* Main Search Loop */
; 125  :     while (ip < ilimit) {   /* < instead of <=, because repcode check at (ip+1) */

	mov	ebp, DWORD PTR offset_2$1$[rsp]
$LN2545@ZSTD_compr:
	mov	rax, QWORD PTR iend$1$[rsp]
	mov	edi, DWORD PTR hBitsL$1$[rsp]
	add	rax, -8
	mov	r13d, DWORD PTR hBitsS$1$[rsp]
	cmp	r12, rax
	jb	$LL1679@ZSTD_compr
	mov	rsi, QWORD PTR rep$[rsp]
$LN1680@ZSTD_compr:

; 309  : 
; 310  :     /* save reps for next block */
; 311  :     rep[0] = offset_1 ? offset_1 : offsetSaved;

	mov	eax, DWORD PTR offset_1$1$[rsp]

; 312  :     rep[1] = offset_2 ? offset_2 : offsetSaved;

	mov	DWORD PTR [rsi+4], ebp

; 353  :     case 7 :
; 354  :         return ZSTD_compressBlock_doubleFast_generic(ms, seqStore, rep, src, srcSize, 7, ZSTD_dictMatchState);

	jmp	$LN2686@ZSTD_compr
$LN1709@ZSTD_compr:

; 192  :             U32 const dictMatchIndexS = dictHashSmall[dictHS];

	mov	rax, QWORD PTR dictHashSmall$1$[rsp]
	mov	ecx, DWORD PTR [rax+r11*4]

; 193  :             match = dictBase + dictMatchIndexS;
; 194  :             matchIndexS = dictMatchIndexS + dictIndexDelta;

	mov	eax, DWORD PTR dictIndexDelta$1$[rsp]
	add	eax, ecx
	mov	DWORD PTR matchIndexS$1$[rsp], eax
	lea	rsi, QWORD PTR [r10+rcx]

; 195  : 
; 196  :             if (match > dictStart && MEM_read32(match) == MEM_read32(ip)) {

	cmp	rsi, r9
	jbe	SHORT $LN1713@ZSTD_compr
	mov	eax, DWORD PTR [r12]
	cmp	DWORD PTR [rsi], eax
	jne	SHORT $LN1713@ZSTD_compr
$_search_next_long$2696:

; 201  : #if defined(__aarch64__)
; 202  :         PREFETCH_L1(ip+256);
; 203  : #endif
; 204  :         continue;
; 205  : 
; 206  : _search_next_long:
; 207  : 
; 208  :         {   size_t const hl3 = ZSTD_hashPtr(ip+1, hBitsL, 8);

	mov	edx, DWORD PTR hBitsL$1$[rsp]
	lea	r13, QWORD PTR [r12+1]
	mov	rcx, r13
	mov	QWORD PTR tv11966[rsp], r13
	mov	r8d, 8
	call	ZSTD_hashPtr

; 209  :             size_t const dictHLNext = ZSTD_hashPtr(ip+1, dictHBitsL, 8);

	mov	edx, DWORD PTR dictHBitsL$1$[rsp]
	mov	r8d, 8
	mov	rcx, r13
	mov	rdi, rax
	call	ZSTD_hashPtr

; 210  :             U32 const matchIndexL3 = hashLong[hl3];

	mov	r9, QWORD PTR hashLong$1$[rsp]

; 211  :             const BYTE* matchL3 = base + matchIndexL3;
; 212  :             hashLong[hl3] = current + 1;

	mov	ecx, DWORD PTR current$1$[rsp]
	mov	edx, DWORD PTR [r9+rdi*4]
	mov	ebp, edx
	add	rbp, QWORD PTR base$1$[rsp]
	inc	ecx
	mov	DWORD PTR [r9+rdi*4], ecx

; 213  : 
; 214  :             /* check prefix long +1 match */
; 215  :             if (matchIndexL3 > prefixLowestIndex) {

	mov	ecx, DWORD PTR prefixLowestIndex$1$[rsp]
	cmp	edx, ecx
	jbe	$LN1714@ZSTD_compr

; 216  :                 if (MEM_read64(matchL3) == MEM_read64(ip+1)) {

	mov	rax, QWORD PTR [r13]
	cmp	QWORD PTR [rbp], rax
	jne	$LN1718@ZSTD_compr

; 217  :                     mLength = ZSTD_count(ip+9, matchL3+8, iend) + 8;

	mov	r8, QWORD PTR iend$1$[rsp]
	lea	rdx, QWORD PTR [rbp+8]
	lea	rcx, QWORD PTR [r12+9]
	call	ZSTD_count

; 218  :                     ip++;
; 219  :                     offset = (U32)(ip-matchL3);
; 220  :                     while (((ip>anchor) & (matchL3>prefixLowest)) && (ip[-1] == matchL3[-1])) { ip--; matchL3--; mLength++; } /* catch up */

	mov	r9, QWORD PTR prefixLowest$1$[rsp]
	mov	r12, r13
	sub	r13d, ebp
	mov	ecx, r15d
	cmp	r12, rbx
	lea	rdi, QWORD PTR [rax+8]
	mov	eax, r15d
	seta	cl
	cmp	rbp, r9
	seta	al
	test	ecx, eax
	je	$_match_found$2695
	npad	13
$LL1685@ZSTD_compr:
	movzx	eax, BYTE PTR [rbp-1]
	lea	rdx, QWORD PTR [r12-1]
	dec	rbp
	cmp	BYTE PTR [rdx], al
	jne	$_match_found$2695
	inc	rdi
	mov	ecx, r15d
	cmp	rbp, r9
	mov	eax, r15d
	mov	r12, rdx
	seta	cl
	cmp	rdx, rbx
	seta	al
	test	ecx, eax
	jne	SHORT $LL1685@ZSTD_compr

; 221  :                     goto _match_found;

	jmp	$_match_found$2695
$LN1714@ZSTD_compr:

; 222  :                 }
; 223  :             } else if (dictMode == ZSTD_dictMatchState) {
; 224  :                 /* check dict long +1 match */
; 225  :                 U32 const dictMatchIndexL3 = dictHashLong[dictHLNext];

	mov	rdx, QWORD PTR dictHashLong$1$[rsp]
	mov	eax, DWORD PTR [rdx+rax*4]

; 226  :                 const BYTE* dictMatchL3 = dictBase + dictMatchIndexL3;

	mov	ebp, eax
	mov	DWORD PTR dictMatchIndexL3$1$[rsp], eax
	add	rbp, QWORD PTR dictBase$1$[rsp]

; 227  :                 assert(dictMatchL3 < dictEnd);
; 228  :                 if (dictMatchL3 > dictStart && MEM_read64(dictMatchL3) == MEM_read64(ip+1)) {

	cmp	rbp, QWORD PTR dictStart$1$[rsp]
	jbe	$LN1718@ZSTD_compr
	mov	rax, QWORD PTR [r13]
	cmp	QWORD PTR [rbp], rax
	jne	$LN1718@ZSTD_compr

; 229  :                     mLength = ZSTD_count_2segments(ip+1+8, dictMatchL3+8, iend, dictEnd, prefixLowest) + 8;

	mov	rax, QWORD PTR prefixLowest$1$[rsp]
	lea	rdx, QWORD PTR [rbp+8]
	mov	r9, QWORD PTR dictEnd$1$[rsp]
	lea	rcx, QWORD PTR [r12+9]
	mov	r8, QWORD PTR iend$1$[rsp]
	mov	QWORD PTR [rsp+32], rax
	call	ZSTD_count_2segments

; 230  :                     ip++;

	mov	r12, r13

; 231  :                     offset = (U32)(current + 1 - dictMatchIndexL3 - dictIndexDelta);

	mov	r13d, DWORD PTR current$1$[rsp]
	sub	r13d, DWORD PTR dictMatchIndexL3$1$[rsp]
	sub	r13d, DWORD PTR dictIndexDelta$1$[rsp]
	inc	r13d
	lea	rdi, QWORD PTR [rax+8]

; 232  :                     while (((ip>anchor) & (dictMatchL3>dictStart)) && (ip[-1] == dictMatchL3[-1])) { ip--; dictMatchL3--; mLength++; } /* catch up */

	cmp	QWORD PTR tv11966[rsp], rbx
	jbe	$_match_found$2695
	npad	7
$LL1687@ZSTD_compr:
	movzx	eax, BYTE PTR [rbp-1]
	lea	rdx, QWORD PTR [r12-1]
	dec	rbp
	cmp	BYTE PTR [rdx], al
	jne	$_match_found$2695
	inc	rdi
	mov	ecx, r15d
	cmp	rbp, QWORD PTR dictStart$1$[rsp]
	mov	eax, r15d
	mov	r12, rdx
	seta	cl
	cmp	rdx, rbx
	seta	al
	test	ecx, eax
	jne	SHORT $LL1687@ZSTD_compr

; 233  :                     goto _match_found;

	jmp	$_match_found$2695
$LN1718@ZSTD_compr:

; 234  :         }   }   }
; 235  : 
; 236  :         /* if no long +1 match, explore the short match we found */
; 237  :         if (dictMode == ZSTD_dictMatchState && matchIndexS < prefixLowestIndex) {

	cmp	DWORD PTR matchIndexS$1$[rsp], ecx
	lea	rdx, QWORD PTR [rsi+4]
	mov	r8, QWORD PTR iend$1$[rsp]
	lea	rcx, QWORD PTR [r12+4]
	jae	$LN1719@ZSTD_compr

; 238  :             mLength = ZSTD_count_2segments(ip+4, match+4, iend, dictEnd, prefixLowest) + 4;

	mov	rax, QWORD PTR prefixLowest$1$[rsp]
	mov	r9, QWORD PTR dictEnd$1$[rsp]
	mov	QWORD PTR [rsp+32], rax
	call	ZSTD_count_2segments

; 239  :             offset = (U32)(current - matchIndexS);

	mov	r13d, DWORD PTR current$1$[rsp]

; 240  :             while (((ip>anchor) & (match>dictStart)) && (ip[-1] == match[-1])) { ip--; match--; mLength++; } /* catch up */

	mov	ecx, r15d
	sub	r13d, DWORD PTR matchIndexS$1$[rsp]
	mov	r8, QWORD PTR dictStart$1$[rsp]
	cmp	rsi, r8
	lea	rdi, QWORD PTR [rax+4]
	mov	eax, r15d
	seta	cl
	cmp	r12, rbx
	seta	al
	test	ecx, eax
	je	$_match_found$2695
	npad	10
$LL1689@ZSTD_compr:
	movzx	eax, BYTE PTR [rsi-1]
	lea	rdx, QWORD PTR [r12-1]
	dec	rsi
	cmp	BYTE PTR [rdx], al
	jne	SHORT $_match_found$2695
	inc	rdi
	mov	ecx, r15d
	cmp	rsi, r8
	mov	eax, r15d
	mov	r12, rdx
	seta	cl
	cmp	rdx, rbx
	seta	al
	test	ecx, eax
	jne	SHORT $LL1689@ZSTD_compr

; 241  :         } else {

	jmp	SHORT $_match_found$2695
$LN1719@ZSTD_compr:

; 242  :             mLength = ZSTD_count(ip+4, match+4, iend) + 4;

	call	ZSTD_count

; 243  :             offset = (U32)(ip - match);
; 244  :             while (((ip>anchor) & (match>prefixLowest)) && (ip[-1] == match[-1])) { ip--; match--; mLength++; } /* catch up */

	mov	r9, QWORD PTR prefixLowest$1$[rsp]
	mov	ecx, r15d
	mov	r13d, r12d
	sub	r13d, esi
	cmp	rsi, r9
	lea	rdi, QWORD PTR [rax+4]
	mov	eax, r15d
	seta	cl
	cmp	r12, rbx
	seta	al
	test	ecx, eax
	je	SHORT $_match_found$2695
	npad	8
$LL1691@ZSTD_compr:
	movzx	eax, BYTE PTR [rsi-1]
	lea	rdx, QWORD PTR [r12-1]
	dec	rsi
	cmp	BYTE PTR [rdx], al
	jne	SHORT $_match_found$2695
	inc	rdi
	mov	ecx, r15d
	cmp	rsi, r9
	mov	eax, r15d
	mov	r12, rdx
	seta	cl
	cmp	rdx, rbx
	seta	al
	test	ecx, eax
	jne	SHORT $LL1691@ZSTD_compr
$_match_found$2695:

; 250  :         offset_2 = offset_1;

	mov	eax, DWORD PTR offset_1$1$[rsp]

; 253  :         ZSTD_storeSeq(seqStore, (size_t)(ip-anchor), anchor, iend, offset + ZSTD_REP_MOVE, mLength-MINMATCH);

	lea	rdx, QWORD PTR [rdi-3]
; File E:\dev\pyzstd\lib\compress\zstd_compress_internal.h

; 441  :     BYTE const* const litLimit_w = litLimit - WILDCOPY_OVERLENGTH;

	mov	rbp, QWORD PTR iend$1$[rsp]
; File E:\dev\pyzstd\lib\compress\zstd_double_fast.c

; 253  :         ZSTD_storeSeq(seqStore, (size_t)(ip-anchor), anchor, iend, offset + ZSTD_REP_MOVE, mLength-MINMATCH);

	mov	rsi, r12
; File E:\dev\pyzstd\lib\compress\zstd_compress_internal.h

; 442  :     BYTE const* const litEnd = literals + litLength;

	mov	rcx, QWORD PTR [r14+24]
; File E:\dev\pyzstd\lib\compress\zstd_double_fast.c

; 253  :         ZSTD_storeSeq(seqStore, (size_t)(ip-anchor), anchor, iend, offset + ZSTD_REP_MOVE, mLength-MINMATCH);

	sub	rsi, rbx
; File E:\dev\pyzstd\lib\compress\zstd_compress_internal.h

; 441  :     BYTE const* const litLimit_w = litLimit - WILDCOPY_OVERLENGTH;

	add	rbp, -32				; ffffffffffffffe0H
; File E:\dev\pyzstd\lib\compress\zstd_double_fast.c

; 250  :         offset_2 = offset_1;

	mov	DWORD PTR offset_2$1$[rsp], eax

; 251  :         offset_1 = offset;

	mov	DWORD PTR offset_1$1$[rsp], r13d
; File E:\dev\pyzstd\lib\compress\zstd_compress_internal.h

; 441  :     BYTE const* const litLimit_w = litLimit - WILDCOPY_OVERLENGTH;

	mov	QWORD PTR litLimit_w$1$[rsp], rbp

; 442  :     BYTE const* const litEnd = literals + litLength;

	lea	r8, QWORD PTR [rbx+rsi]

; 456  :     if (litEnd <= litLimit_w) {

	cmp	r8, rbp
	ja	SHORT $LN2410@ZSTD_compr
; File E:\dev\pyzstd\lib\common\zstd_internal.h

; 243  :     memcpy(dst, src, 16);

	movups	xmm0, XMMWORD PTR [rbx]
	movups	XMMWORD PTR [rcx], xmm0
; File E:\dev\pyzstd\lib\compress\zstd_compress_internal.h

; 462  :         if (litLength > 16) {

	cmp	rsi, 16
	jbe	SHORT $LN2411@ZSTD_compr

; 463  :             ZSTD_wildcopy(seqStorePtr->lit+16, literals+16, (ptrdiff_t)litLength-16, ZSTD_no_overlap);

	mov	rax, QWORD PTR [r14+24]
	add	rbx, 16
	add	rax, 16
; File E:\dev\pyzstd\lib\common\zstd_internal.h

; 270  :     BYTE* const oend = op + length;

	lea	rcx, QWORD PTR [rax-16]
	add	rcx, rsi
$LL2424@ZSTD_compr:

; 243  :     memcpy(dst, src, 16);

	movups	xmm0, XMMWORD PTR [rbx]

; 289  :             COPY16(op, ip);

	lea	rbx, QWORD PTR [rbx+16]

; 243  :     memcpy(dst, src, 16);

	movups	XMMWORD PTR [rax], xmm0

; 289  :             COPY16(op, ip);

	add	rax, 16

; 290  :         }
; 291  :         while (op < oend);

	cmp	rax, rcx
	jb	SHORT $LL2424@ZSTD_compr
; File E:\dev\pyzstd\lib\compress\zstd_compress_internal.h

; 465  :     } else {

	jmp	SHORT $LN2411@ZSTD_compr
$LN2410@ZSTD_compr:

; 466  :         ZSTD_safecopyLiterals(seqStorePtr->lit, literals, litEnd, litLimit_w);

	mov	r9, rbp
	mov	rdx, rbx
	call	ZSTD_safecopyLiterals
	lea	rdx, QWORD PTR [rdi-3]
$LN2411@ZSTD_compr:

; 467  :     }
; 468  :     seqStorePtr->lit += litLength;

	add	QWORD PTR [r14+24], rsi
	mov	rcx, QWORD PTR [r14+8]

; 469  : 
; 470  :     /* literal Length */
; 471  :     if (litLength>0xFFFF) {

	cmp	rsi, 65535				; 0000ffffH
	jbe	SHORT $LN2609@ZSTD_compr

; 472  :         assert(seqStorePtr->longLengthID == 0); /* there can only be a single long length */
; 473  :         seqStorePtr->longLengthID = 1;
; 474  :         seqStorePtr->longLengthPos = (U32)(seqStorePtr->sequences - seqStorePtr->sequencesStart);

	mov	rax, rcx
	mov	DWORD PTR [r14+72], 1
	sub	rax, QWORD PTR [r14]
	sar	rax, 3
	mov	DWORD PTR [r14+76], eax
$LN2609@ZSTD_compr:

; 475  :     }
; 476  :     seqStorePtr->sequences[0].litLength = (U16)litLength;

	mov	WORD PTR [rcx+4], si

; 477  : 
; 478  :     /* match offset */
; 479  :     seqStorePtr->sequences[0].offset = offCode + 1;

	lea	ecx, DWORD PTR [r13+3]
	mov	rax, QWORD PTR [r14+8]
	mov	DWORD PTR [rax], ecx
	mov	rcx, QWORD PTR [r14+8]

; 480  : 
; 481  :     /* match Length */
; 482  :     if (mlBase>0xFFFF) {

	cmp	rdx, 65535				; 0000ffffH
	jbe	SHORT $LN2610@ZSTD_compr

; 483  :         assert(seqStorePtr->longLengthID == 0); /* there can only be a single long length */
; 484  :         seqStorePtr->longLengthID = 2;
; 485  :         seqStorePtr->longLengthPos = (U32)(seqStorePtr->sequences - seqStorePtr->sequencesStart);

	mov	rax, rcx
	mov	DWORD PTR [r14+72], 2
	sub	rax, QWORD PTR [r14]
	sar	rax, 3
	mov	DWORD PTR [r14+76], eax
$LN2610@ZSTD_compr:

; 487  :     seqStorePtr->sequences[0].matchLength = (U16)mlBase;

	mov	WORD PTR [rcx+6], dx
$LN2685@ZSTD_compr:
; File E:\dev\pyzstd\lib\compress\zstd_double_fast.c

; 257  :         ip += mLength;

	add	QWORD PTR [r14+8], 8
$_match_stored$2697:

; 258  :         anchor = ip;

	mov	rbp, QWORD PTR iend$1$[rsp]
	lea	rbx, QWORD PTR [rdi+r12]
	add	rbp, -8
	mov	r12, rbx
	cmp	rbx, rbp

; 259  : 
; 260  :         if (ip <= ilimit) {

	ja	$LN2676@ZSTD_compr

; 261  :             /* Complementary insertion */
; 262  :             /* done after iLimit test, as candidates could be > iend-8 */
; 263  :             {   U32 const indexToInsert = current+2;

	mov	ebp, DWORD PTR current$1$[rsp]

; 264  :                 hashLong[ZSTD_hashPtr(base+indexToInsert, hBitsL, 8)] = indexToInsert;

	mov	r8d, 8
	mov	r13, QWORD PTR base$1$[rsp]
	add	ebp, 2
	mov	edx, DWORD PTR hBitsL$1$[rsp]
	mov	esi, ebp
	add	rsi, r13
	mov	rcx, rsi
	call	ZSTD_hashPtr
	mov	rcx, QWORD PTR hashLong$1$[rsp]

; 265  :                 hashLong[ZSTD_hashPtr(ip-2, hBitsL, 8)] = (U32)(ip-2-base);

	mov	edi, ebx
	mov	edx, DWORD PTR hBitsL$1$[rsp]
	sub	edi, r13d
	mov	r8d, 8
	sub	edi, 2
	mov	DWORD PTR [rcx+rax*4], ebp
	lea	rcx, QWORD PTR [rbx-2]
	call	ZSTD_hashPtr
	mov	rcx, QWORD PTR hashLong$1$[rsp]

; 266  :                 hashSmall[ZSTD_hashPtr(base+indexToInsert, hBitsS, mls)] = indexToInsert;

	mov	r8d, 7
	mov	edx, DWORD PTR hBitsS$1$[rsp]
	mov	DWORD PTR [rcx+rax*4], edi
	mov	rcx, rsi
	call	ZSTD_hashPtr
	mov	r13, QWORD PTR hashSmall$1$[rsp]

; 267  :                 hashSmall[ZSTD_hashPtr(ip-1, hBitsS, mls)] = (U32)(ip-1-base);

	lea	rcx, QWORD PTR [rbx-1]
	mov	rsi, QWORD PTR base$1$[rsp]
	mov	edi, ebx
	mov	edx, DWORD PTR hBitsS$1$[rsp]
	sub	edi, esi
	dec	edi
	mov	r8d, 7
	mov	DWORD PTR [r13+rax*4], ebp
	call	ZSTD_hashPtr
	mov	DWORD PTR [r13+rax*4], edi
	mov	r13, QWORD PTR litLimit_w$1$[rsp]
	npad	1
$LL1693@ZSTD_compr:

; 268  :             }
; 269  : 
; 270  :             /* check immediate repcode */
; 271  :             if (dictMode == ZSTD_dictMatchState) {
; 272  :                 while (ip <= ilimit) {
; 273  :                     U32 const current2 = (U32)(ip-base);
; 274  :                     U32 const repIndex2 = current2 - offset_2;

	mov	ebp, DWORD PTR offset_2$1$[rsp]
	mov	edi, r12d

; 275  :                     const BYTE* repMatch2 = dictMode == ZSTD_dictMatchState

	mov	r8d, DWORD PTR prefixLowestIndex$1$[rsp]
	sub	edi, esi
	mov	ecx, edi
	sub	ecx, ebp
	mov	edx, ecx
	cmp	ecx, r8d
	jae	SHORT $LN1748@ZSTD_compr
	mov	eax, DWORD PTR dictIndexDelta$1$[rsp]
	sub	rdx, rax
	add	rdx, QWORD PTR dictBase$1$[rsp]
	jmp	SHORT $LN1749@ZSTD_compr
$LN1748@ZSTD_compr:
	add	rdx, rsi
$LN1749@ZSTD_compr:

; 276  :                         && repIndex2 < prefixLowestIndex ?
; 277  :                             dictBase + repIndex2 - dictIndexDelta :
; 278  :                             base + repIndex2;
; 279  :                     if ( ((U32)((prefixLowestIndex-1) - (U32)repIndex2) >= 3 /* intentional overflow */)
; 280  :                        && (MEM_read32(repMatch2) == MEM_read32(ip)) ) {

	mov	eax, r8d
	sub	eax, ecx
	dec	eax
	cmp	eax, 3
	jb	$LN2545@ZSTD_compr
	mov	eax, DWORD PTR [r12]
	cmp	DWORD PTR [rdx], eax
	jne	$LN2545@ZSTD_compr

; 282  :                         size_t const repLength2 = ZSTD_count_2segments(ip+4, repMatch2+4, iend, repEnd2, prefixLowest) + 4;

	mov	rax, QWORD PTR prefixLowest$1$[rsp]
	cmp	ecx, r8d
	mov	r9, QWORD PTR iend$1$[rsp]
	lea	rcx, QWORD PTR [r12+4]
	cmovb	r9, QWORD PTR dictEnd$1$[rsp]
	add	rdx, 4
	mov	r8, QWORD PTR iend$1$[rsp]
	mov	QWORD PTR [rsp+32], rax
	call	ZSTD_count_2segments
; File E:\dev\pyzstd\lib\compress\zstd_compress_internal.h

; 442  :     BYTE const* const litEnd = literals + litLength;

	mov	rcx, QWORD PTR [r14+24]
; File E:\dev\pyzstd\lib\compress\zstd_double_fast.c

; 282  :                         size_t const repLength2 = ZSTD_count_2segments(ip+4, repMatch2+4, iend, repEnd2, prefixLowest) + 4;

	lea	rsi, QWORD PTR [rax+4]

; 283  :                         U32 tmpOffset = offset_2; offset_2 = offset_1; offset_1 = tmpOffset;   /* swap offset_2 <=> offset_1 */

	mov	eax, DWORD PTR offset_1$1$[rsp]
	mov	DWORD PTR offset_1$1$[rsp], ebp

; 284  :                         ZSTD_storeSeq(seqStore, 0, anchor, iend, 0, repLength2-MINMATCH);

	lea	rbp, QWORD PTR [rsi-3]
	mov	DWORD PTR offset_2$1$[rsp], eax
; File E:\dev\pyzstd\lib\compress\zstd_compress_internal.h

; 456  :     if (litEnd <= litLimit_w) {

	cmp	rbx, r13
	ja	SHORT $LN2437@ZSTD_compr
; File E:\dev\pyzstd\lib\common\zstd_internal.h

; 243  :     memcpy(dst, src, 16);

	movups	xmm0, XMMWORD PTR [rbx]
	movups	XMMWORD PTR [rcx], xmm0
; File E:\dev\pyzstd\lib\compress\zstd_compress_internal.h

; 465  :     } else {

	jmp	SHORT $LN2438@ZSTD_compr
$LN2437@ZSTD_compr:

; 466  :         ZSTD_safecopyLiterals(seqStorePtr->lit, literals, litEnd, litLimit_w);

	mov	r9, r13
	mov	r8, rbx
	mov	rdx, rbx
	call	ZSTD_safecopyLiterals
$LN2438@ZSTD_compr:

; 475  :     }
; 476  :     seqStorePtr->sequences[0].litLength = (U16)litLength;

	mov	rax, QWORD PTR [r14+8]
	mov	WORD PTR [rax+4], r15w

; 477  : 
; 478  :     /* match offset */
; 479  :     seqStorePtr->sequences[0].offset = offCode + 1;

	mov	rax, QWORD PTR [r14+8]
	mov	DWORD PTR [rax], 1

; 480  : 
; 481  :     /* match Length */
; 482  :     if (mlBase>0xFFFF) {

	cmp	rbp, 65535				; 0000ffffH
	jbe	SHORT $LN2663@ZSTD_compr

; 483  :         assert(seqStorePtr->longLengthID == 0); /* there can only be a single long length */
; 484  :         seqStorePtr->longLengthID = 2;
; 485  :         seqStorePtr->longLengthPos = (U32)(seqStorePtr->sequences - seqStorePtr->sequencesStart);

	mov	rax, QWORD PTR [r14+8]
	sub	rax, QWORD PTR [r14]
	sar	rax, 3
	mov	DWORD PTR [r14+76], eax
	mov	DWORD PTR [r14+72], 2
$LN2663@ZSTD_compr:

; 487  :     seqStorePtr->sequences[0].matchLength = (U16)mlBase;

	mov	rax, QWORD PTR [r14+8]
; File E:\dev\pyzstd\lib\compress\zstd_double_fast.c

; 285  :                         hashSmall[ZSTD_hashPtr(ip, hBitsS, mls)] = current2;

	mov	r8d, 7
	mov	edx, DWORD PTR hBitsS$1$[rsp]
	mov	rcx, r12
