; Listing generated by Microsoft (R) Optimizing Compiler Version 19.27.29111.0 

include listing.inc

INCLUDELIB OLDNAMES

prime3bytes DD	01e35a7bdH
?ML_deltaCode@?1??ZSTD_MLcode@@9@9 DD 024H		; `ZSTD_MLcode'::`2'::ML_deltaCode
prime8bytes DQ	cf1bbcdcb7a56463H
LL_bits	DD	00H
	DD	00H
	DD	00H
	DD	00H
	DD	00H
	DD	00H
	DD	00H
	DD	00H
	DD	00H
	DD	00H
	DD	00H
	DD	00H
	DD	00H
	DD	00H
	DD	00H
	DD	00H
	DD	01H
	DD	01H
	DD	01H
	DD	01H
	DD	02H
	DD	02H
	DD	03H
	DD	03H
	DD	04H
	DD	06H
	DD	07H
	DD	08H
	DD	09H
	DD	0aH
	DD	0bH
	DD	0cH
	DD	0dH
	DD	0eH
	DD	0fH
	DD	010H
?ML_Code@?1??ZSTD_MLcode@@9@9 DB 00H			; `ZSTD_MLcode'::`2'::ML_Code
	DB	01H
	DB	02H
	DB	03H
	DB	04H
	DB	05H
	DB	06H
	DB	07H
	DB	08H
	DB	09H
	DB	0aH
	DB	0bH
	DB	0cH
	DB	0dH
	DB	0eH
	DB	0fH
	DB	010H
	DB	011H
	DB	012H
	DB	013H
	DB	014H
	DB	015H
	DB	016H
	DB	017H
	DB	018H
	DB	019H
	DB	01aH
	DB	01bH
	DB	01cH
	DB	01dH
	DB	01eH
	DB	01fH
	DB	020H
	DB	020H
	DB	021H
	DB	021H
	DB	022H
	DB	022H
	DB	023H
	DB	023H
	DB	024H
	DB	024H
	DB	024H
	DB	024H
	DB	025H
	DB	025H
	DB	025H
	DB	025H
	DB	026H
	DB	026H
	DB	026H
	DB	026H
	DB	026H
	DB	026H
	DB	026H
	DB	026H
	DB	027H
	DB	027H
	DB	027H
	DB	027H
	DB	027H
	DB	027H
	DB	027H
	DB	027H
	DB	028H
	DB	028H
	DB	028H
	DB	028H
	DB	028H
	DB	028H
	DB	028H
	DB	028H
	DB	028H
	DB	028H
	DB	028H
	DB	028H
	DB	028H
	DB	028H
	DB	028H
	DB	028H
	DB	029H
	DB	029H
	DB	029H
	DB	029H
	DB	029H
	DB	029H
	DB	029H
	DB	029H
	DB	029H
	DB	029H
	DB	029H
	DB	029H
	DB	029H
	DB	029H
	DB	029H
	DB	029H
	DB	02aH
	DB	02aH
	DB	02aH
	DB	02aH
	DB	02aH
	DB	02aH
	DB	02aH
	DB	02aH
	DB	02aH
	DB	02aH
	DB	02aH
	DB	02aH
	DB	02aH
	DB	02aH
	DB	02aH
	DB	02aH
	DB	02aH
	DB	02aH
	DB	02aH
	DB	02aH
	DB	02aH
	DB	02aH
	DB	02aH
	DB	02aH
	DB	02aH
	DB	02aH
	DB	02aH
	DB	02aH
	DB	02aH
	DB	02aH
	DB	02aH
	DB	02aH
?LL_Code@?1??ZSTD_LLcode@@9@9 DB 00H			; `ZSTD_LLcode'::`2'::LL_Code
	DB	01H
	DB	02H
	DB	03H
	DB	04H
	DB	05H
	DB	06H
	DB	07H
	DB	08H
	DB	09H
	DB	0aH
	DB	0bH
	DB	0cH
	DB	0dH
	DB	0eH
	DB	0fH
	DB	010H
	DB	010H
	DB	011H
	DB	011H
	DB	012H
	DB	012H
	DB	013H
	DB	013H
	DB	014H
	DB	014H
	DB	014H
	DB	014H
	DB	015H
	DB	015H
	DB	015H
	DB	015H
	DB	016H
	DB	016H
	DB	016H
	DB	016H
	DB	016H
	DB	016H
	DB	016H
	DB	016H
	DB	017H
	DB	017H
	DB	017H
	DB	017H
	DB	017H
	DB	017H
	DB	017H
	DB	017H
	DB	018H
	DB	018H
	DB	018H
	DB	018H
	DB	018H
	DB	018H
	DB	018H
	DB	018H
	DB	018H
	DB	018H
	DB	018H
	DB	018H
	DB	018H
	DB	018H
	DB	018H
	DB	018H
?LL_deltaCode@?1??ZSTD_LLcode@@9@9 DD 013H		; `ZSTD_LLcode'::`2'::LL_deltaCode
prime4bytes DD	09e3779b1H
prime5bytes DQ	000000cf1bbcdcbbH
ML_bits	DD	00H
	DD	00H
	DD	00H
	DD	00H
	DD	00H
	DD	00H
	DD	00H
	DD	00H
	DD	00H
	DD	00H
	DD	00H
	DD	00H
	DD	00H
	DD	00H
	DD	00H
	DD	00H
	DD	00H
	DD	00H
	DD	00H
	DD	00H
	DD	00H
	DD	00H
	DD	00H
	DD	00H
	DD	00H
	DD	00H
	DD	00H
	DD	00H
	DD	00H
	DD	00H
	DD	00H
	DD	00H
	DD	01H
	DD	01H
	DD	01H
	DD	01H
	DD	02H
	DD	02H
	DD	03H
	DD	03H
	DD	04H
	DD	04H
	DD	05H
	DD	07H
	DD	08H
	DD	09H
	DD	0aH
	DD	0bH
	DD	0cH
	DD	0dH
	DD	0eH
	DD	0fH
	DD	010H
prime7bytes DQ	00cf1bbcdcbfa563H
prime6bytes DQ	0000cf1bbcdcbf9bH
PUBLIC	ZSTD_compressBlock_btopt_extDict
PUBLIC	ZSTD_compressBlock_btultra
PUBLIC	ZSTD_compressBlock_btultra2
PUBLIC	ZSTD_compressBlock_btultra_dictMatchState
PUBLIC	ZSTD_compressBlock_btultra_extDict
PUBLIC	ZSTD_compressBlock_btopt
PUBLIC	ZSTD_compressBlock_btopt_dictMatchState
PUBLIC	ZSTD_updateTree
pdata	SEGMENT
$pdata$ZSTD_initStats_ultra DD imagerel ZSTD_initStats_ultra
	DD	imagerel ZSTD_initStats_ultra+9640
	DD	imagerel $unwind$ZSTD_initStats_ultra
$pdata$ZSTD_upscaleStats DD imagerel ZSTD_upscaleStats
	DD	imagerel ZSTD_upscaleStats+89
	DD	imagerel $unwind$ZSTD_upscaleStats
$pdata$ZSTD_compressBlock_opt_generic DD imagerel ZSTD_compressBlock_opt_generic
	DD	imagerel ZSTD_compressBlock_opt_generic+218
	DD	imagerel $unwind$ZSTD_compressBlock_opt_generic
$pdata$0$ZSTD_compressBlock_opt_generic DD imagerel ZSTD_compressBlock_opt_generic+218
	DD	imagerel ZSTD_compressBlock_opt_generic+17978
	DD	imagerel $chain$0$ZSTD_compressBlock_opt_generic
$pdata$1$ZSTD_compressBlock_opt_generic DD imagerel ZSTD_compressBlock_opt_generic+17978
	DD	imagerel ZSTD_compressBlock_opt_generic+18002
	DD	imagerel $chain$1$ZSTD_compressBlock_opt_generic
$pdata$ZSTD_BtGetAllMatches DD imagerel ZSTD_BtGetAllMatches
	DD	imagerel ZSTD_BtGetAllMatches+10377
	DD	imagerel $unwind$ZSTD_BtGetAllMatches
$pdata$ZSTD_insertBtAndGetAllMatches DD imagerel ZSTD_insertBtAndGetAllMatches
	DD	imagerel ZSTD_insertBtAndGetAllMatches+3252
	DD	imagerel $unwind$ZSTD_insertBtAndGetAllMatches
$pdata$ZSTD_updateTree_internal DD imagerel ZSTD_updateTree_internal
	DD	imagerel ZSTD_updateTree_internal+51
	DD	imagerel $unwind$ZSTD_updateTree_internal
$pdata$0$ZSTD_updateTree_internal DD imagerel ZSTD_updateTree_internal+51
	DD	imagerel ZSTD_updateTree_internal+119
	DD	imagerel $chain$0$ZSTD_updateTree_internal
$pdata$1$ZSTD_updateTree_internal DD imagerel ZSTD_updateTree_internal+119
	DD	imagerel ZSTD_updateTree_internal+148
	DD	imagerel $chain$1$ZSTD_updateTree_internal
$pdata$ZSTD_insertBt1 DD imagerel ZSTD_insertBt1
	DD	imagerel ZSTD_insertBt1+1030
	DD	imagerel $unwind$ZSTD_insertBt1
$pdata$ZSTD_insertAndFindFirstIndexHash3 DD imagerel ZSTD_insertAndFindFirstIndexHash3
	DD	imagerel ZSTD_insertAndFindFirstIndexHash3+115
	DD	imagerel $unwind$ZSTD_insertAndFindFirstIndexHash3
$pdata$ZSTD_updateStats DD imagerel ZSTD_updateStats
	DD	imagerel ZSTD_updateStats+197
	DD	imagerel $unwind$ZSTD_updateStats
$pdata$ZSTD_getMatchPrice DD imagerel ZSTD_getMatchPrice
	DD	imagerel ZSTD_getMatchPrice+331
	DD	imagerel $unwind$ZSTD_getMatchPrice
$pdata$ZSTD_rescaleFreqs DD imagerel ZSTD_rescaleFreqs
	DD	imagerel ZSTD_rescaleFreqs+83
	DD	imagerel $unwind$ZSTD_rescaleFreqs
$pdata$0$ZSTD_rescaleFreqs DD imagerel ZSTD_rescaleFreqs+83
	DD	imagerel ZSTD_rescaleFreqs+1221
	DD	imagerel $chain$0$ZSTD_rescaleFreqs
$pdata$1$ZSTD_rescaleFreqs DD imagerel ZSTD_rescaleFreqs+1221
	DD	imagerel ZSTD_rescaleFreqs+2783
	DD	imagerel $chain$1$ZSTD_rescaleFreqs
$pdata$ZSTD_downscaleStat DD imagerel ZSTD_downscaleStat
	DD	imagerel ZSTD_downscaleStat+244
	DD	imagerel $unwind$ZSTD_downscaleStat
$pdata$ZSTD_count_2segments DD imagerel ZSTD_count_2segments
	DD	imagerel ZSTD_count_2segments+106
	DD	imagerel $unwind$ZSTD_count_2segments
$pdata$ZSTD_storeSeq DD imagerel ZSTD_storeSeq
	DD	imagerel ZSTD_storeSeq+271
	DD	imagerel $unwind$ZSTD_storeSeq
$pdata$ZSTD_compressBlock_btopt_extDict DD imagerel $LN2008
	DD	imagerel $LN2008+11705
	DD	imagerel $unwind$ZSTD_compressBlock_btopt_extDict
$pdata$ZSTD_compressBlock_btultra DD imagerel $LN1990
	DD	imagerel $LN1990+9832
	DD	imagerel $unwind$ZSTD_compressBlock_btultra
$pdata$ZSTD_compressBlock_btultra2 DD imagerel $LN3566
	DD	imagerel $LN3566+9911
	DD	imagerel $unwind$ZSTD_compressBlock_btultra2
$pdata$ZSTD_compressBlock_btultra_dictMatchState DD imagerel $LN2055
	DD	imagerel $LN2055+216
	DD	imagerel $unwind$ZSTD_compressBlock_btultra_dictMatchState
$pdata$0$ZSTD_compressBlock_btultra_dictMatchState DD imagerel $LN2055+216
	DD	imagerel $LN2055+14504
	DD	imagerel $chain$0$ZSTD_compressBlock_btultra_dictMatchState
$pdata$1$ZSTD_compressBlock_btultra_dictMatchState DD imagerel $LN2055+14504
	DD	imagerel $LN2055+14528
	DD	imagerel $chain$1$ZSTD_compressBlock_btultra_dictMatchState
$pdata$ZSTD_compressBlock_btultra_extDict DD imagerel $LN2010
	DD	imagerel $LN2010+11615
	DD	imagerel $unwind$ZSTD_compressBlock_btultra_extDict
$pdata$ZSTD_compressBlock_btopt DD imagerel $LN1991
	DD	imagerel $LN1991+9881
	DD	imagerel $unwind$ZSTD_compressBlock_btopt
$pdata$ZSTD_compressBlock_btopt_dictMatchState DD imagerel $LN2055
	DD	imagerel $LN2055+207
	DD	imagerel $unwind$ZSTD_compressBlock_btopt_dictMatchState
$pdata$0$ZSTD_compressBlock_btopt_dictMatchState DD imagerel $LN2055+207
	DD	imagerel $LN2055+14644
	DD	imagerel $chain$0$ZSTD_compressBlock_btopt_dictMatchState
$pdata$1$ZSTD_compressBlock_btopt_dictMatchState DD imagerel $LN2055+14644
	DD	imagerel $LN2055+14668
	DD	imagerel $chain$1$ZSTD_compressBlock_btopt_dictMatchState
$pdata$ZSTD_updateTree DD imagerel $LN13
	DD	imagerel $LN13+53
	DD	imagerel $unwind$ZSTD_updateTree
$pdata$0$ZSTD_updateTree DD imagerel $LN13+53
	DD	imagerel $LN13+104
	DD	imagerel $chain$0$ZSTD_updateTree
$pdata$1$ZSTD_updateTree DD imagerel $LN13+104
	DD	imagerel $LN13+132
	DD	imagerel $chain$1$ZSTD_updateTree
xdata	SEGMENT
$unwind$ZSTD_initStats_ultra DD 0a2d19H
	DD	037011cH
	DD	0e00bf00dH
	DD	0c007d009H
	DD	060047005H
	DD	050023003H
	DD	imagerel __GSHandlerCheck
	DD	01a0H
$unwind$ZSTD_upscaleStats DD 010401H
	DD	04204H
$unwind$ZSTD_compressBlock_opt_generic DD 092d01H
	DD	03e012dH
	DD	0d01cf01eH
	DD	07018c01aH
	DD	030166017H
	DD	05015H
$chain$0$ZSTD_compressBlock_opt_generic DD 020821H
	DD	03de408H
	DD	imagerel ZSTD_compressBlock_opt_generic
	DD	imagerel ZSTD_compressBlock_opt_generic+218
	DD	imagerel $unwind$ZSTD_compressBlock_opt_generic
$chain$1$ZSTD_compressBlock_opt_generic DD 021H
	DD	imagerel ZSTD_compressBlock_opt_generic
	DD	imagerel ZSTD_compressBlock_opt_generic+218
	DD	imagerel $unwind$ZSTD_compressBlock_opt_generic
$unwind$ZSTD_BtGetAllMatches DD 0d7601H
	DD	021d476H
	DD	0227467H
	DD	023645cH
	DD	0240128H
	DD	0e01af01cH
	DD	03016c018H
	DD	05015H
$unwind$ZSTD_insertBtAndGetAllMatches DD 0a2701H
	DD	01f0127H
	DD	0e01ef020H
	DD	0c01ad01cH
	DD	060177018H
	DD	030155016H
$unwind$ZSTD_updateTree_internal DD 0a1901H
	DD	0d7419H
	DD	0c6419H
	DD	0b3419H
	DD	0f0155219H
	DD	0c011e013H
$chain$0$ZSTD_updateTree_internal DD 020521H
	DD	0a5405H
	DD	imagerel ZSTD_updateTree_internal
	DD	imagerel ZSTD_updateTree_internal+51
	DD	imagerel $unwind$ZSTD_updateTree_internal
$chain$1$ZSTD_updateTree_internal DD 021H
	DD	imagerel ZSTD_updateTree_internal
	DD	imagerel ZSTD_updateTree_internal+51
	DD	imagerel $unwind$ZSTD_updateTree_internal
$unwind$ZSTD_insertBt1 DD 0b1c01H
	DD	01e341cH
	DD	014011cH
	DD	0e013f015H
	DD	0c00fd011H
	DD	0600c700dH
	DD	0500bH
$unwind$ZSTD_insertAndFindFirstIndexHash3 DD 060f01H
	DD	03740fH
	DD	02640aH
	DD	013405H
$unwind$ZSTD_updateStats DD 020501H
	DD	013405H
$unwind$ZSTD_getMatchPrice DD 036b01H
	DD	03746bH
	DD	03002H
$unwind$ZSTD_rescaleFreqs DD 081301H
	DD	0b5413H
	DD	0a3413H
	DD	0f00f3213H
	DD	0700be00dH
$chain$0$ZSTD_rescaleFreqs DD 020521H
	DD	096405H
	DD	imagerel ZSTD_rescaleFreqs
	DD	imagerel ZSTD_rescaleFreqs+83
	DD	imagerel $unwind$ZSTD_rescaleFreqs
$chain$1$ZSTD_rescaleFreqs DD 021H
	DD	imagerel ZSTD_rescaleFreqs
	DD	imagerel ZSTD_rescaleFreqs+83
	DD	imagerel $unwind$ZSTD_rescaleFreqs
$unwind$ZSTD_downscaleStat DD 020501H
	DD	013405H
$unwind$ZSTD_count_2segments DD 081401H
	DD	086414H
	DD	075414H
	DD	063414H
	DD	070103214H
$unwind$ZSTD_storeSeq DD 020501H
	DD	013405H
$unwind$ZSTD_compressBlock_btopt_extDict DD 0a2f01H
	DD	035012fH
	DD	0e01ef020H
	DD	0c01ad01cH
	DD	060177018H
	DD	050153016H
$unwind$ZSTD_compressBlock_btultra DD 0a2c01H
	DD	02f012cH
	DD	0e01ef020H
	DD	0c01ad01cH
	DD	060177018H
	DD	050153016H
$unwind$ZSTD_compressBlock_btultra2 DD 0a2c01H
	DD	02f012cH
	DD	0e01ef020H
	DD	0c01ad01cH
	DD	060177018H
	DD	050153016H
$unwind$ZSTD_compressBlock_btultra_dictMatchState DD 092d01H
	DD	03c012dH
	DD	0d01cf01eH
	DD	07018c01aH
	DD	030166017H
	DD	05015H
$chain$0$ZSTD_compressBlock_btultra_dictMatchState DD 020821H
	DD	03be408H
	DD	imagerel $LN2055
	DD	imagerel $LN2055+216
	DD	imagerel $unwind$ZSTD_compressBlock_btultra_dictMatchState
$chain$1$ZSTD_compressBlock_btultra_dictMatchState DD 021H
	DD	imagerel $LN2055
	DD	imagerel $LN2055+216
	DD	imagerel $unwind$ZSTD_compressBlock_btultra_dictMatchState
$unwind$ZSTD_compressBlock_btultra_extDict DD 0a2f01H
	DD	035012fH
	DD	0e01ef020H
	DD	0c01ad01cH
	DD	060177018H
	DD	050153016H
$unwind$ZSTD_compressBlock_btopt DD 0a2c01H
	DD	02f012cH
	DD	0e01ef020H
	DD	0c01ad01cH
	DD	060177018H
	DD	050153016H
$unwind$ZSTD_compressBlock_btopt_dictMatchState DD 092d01H
	DD	03c012dH
	DD	0d01cf01eH
	DD	07018c01aH
	DD	030166017H
	DD	05015H
$chain$0$ZSTD_compressBlock_btopt_dictMatchState DD 020821H
	DD	03be408H
	DD	imagerel $LN2055
	DD	imagerel $LN2055+207
	DD	imagerel $unwind$ZSTD_compressBlock_btopt_dictMatchState
$chain$1$ZSTD_compressBlock_btopt_dictMatchState DD 021H
	DD	imagerel $LN2055
	DD	imagerel $LN2055+207
	DD	imagerel $unwind$ZSTD_compressBlock_btopt_dictMatchState
$unwind$ZSTD_updateTree DD 0a1801H
	DD	0d6418H
	DD	0c5418H
	DD	0b3418H
	DD	0f0145218H
	DD	07010e012H
$chain$0$ZSTD_updateTree DD 020521H
	DD	0ac405H
	DD	imagerel $LN13
	DD	imagerel $LN13+53
	DD	imagerel $unwind$ZSTD_updateTree
$chain$1$ZSTD_updateTree DD 021H
	DD	imagerel $LN13
	DD	imagerel $LN13+53
	DD	imagerel $unwind$ZSTD_updateTree
; Function compile flags: /Ogtpy
; File E:\dev\pyzstd\lib\compress\zstd_opt.c
_TEXT	SEGMENT
ms$ = 80
ip$ = 88
iend$ = 96
ZSTD_updateTree PROC

; 504  : void ZSTD_updateTree(ZSTD_matchState_t* ms, const BYTE* ip, const BYTE* iend) {

$LN13:
	mov	QWORD PTR [rsp+16], rbx
	mov	QWORD PTR [rsp+24], rbp
	mov	QWORD PTR [rsp+32], rsi
	push	rdi
	push	r14
	push	r15
	sub	rsp, 48					; 00000030H

; 488  :     const BYTE* const base = ms->window.base;

	mov	rbp, QWORD PTR [rcx+8]

; 504  : void ZSTD_updateTree(ZSTD_matchState_t* ms, const BYTE* ip, const BYTE* iend) {

	mov	rdi, rdx

; 490  :     U32 idx = ms->nextToUpdate;

	mov	ebx, DWORD PTR [rcx+36]
	sub	edi, ebp

; 505  :     ZSTD_updateTree_internal(ms, ip, iend, ms->cParams.minMatch, ZSTD_noDict);

	mov	r15d, DWORD PTR [rcx+200]
	mov	r14, r8
	mov	rsi, rcx

; 494  :     while(idx < target) {

	cmp	ebx, edi
	jae	SHORT $LN11@ZSTD_updat
	mov	QWORD PTR [rsp+80], r12
	xor	r12d, r12d
	npad	3
$LL4@ZSTD_updat:

; 495  :         U32 const forward = ZSTD_insertBt1(ms, base+idx, iend, mls, dictMode == ZSTD_extDict);

	mov	edx, ebx
	mov	r9d, r15d
	add	rdx, rbp
	mov	DWORD PTR [rsp+32], r12d
	mov	r8, r14
	mov	rcx, rsi
	call	ZSTD_insertBt1

; 496  :         assert(idx < (U32)(idx + forward));
; 497  :         idx += forward;

	add	ebx, eax
	cmp	ebx, edi
	jb	SHORT $LL4@ZSTD_updat

; 498  :     }
; 499  :     assert((size_t)(ip - base) <= (size_t)(U32)(-1));
; 500  :     assert((size_t)(iend - base) <= (size_t)(U32)(-1));
; 501  :     ms->nextToUpdate = target;

	mov	r12, QWORD PTR [rsp+80]
	mov	DWORD PTR [rsi+36], edi
	jmp	SHORT $LN5@ZSTD_updat
$LN11@ZSTD_updat:
	mov	DWORD PTR [rcx+36], edi
$LN5@ZSTD_updat:

; 506  : }

	mov	rbx, QWORD PTR [rsp+88]
	mov	rbp, QWORD PTR [rsp+96]
	mov	rsi, QWORD PTR [rsp+104]
	add	rsp, 48					; 00000030H
	pop	r15
	pop	r14
	pop	rdi
	ret	0
ZSTD_updateTree ENDP
_TEXT	ENDS
; Function compile flags: /Ogtpy
; File E:\dev\pyzstd\lib\compress\zstd_opt.c
; File E:\dev\pyzstd\lib\common\mem.h
; File E:\dev\pyzstd\lib\compress\zstd_opt.c
; File E:\dev\pyzstd\lib\common\mem.h
; File E:\dev\pyzstd\lib\compress\zstd_opt.c
; File E:\dev\pyzstd\lib\common\zstd_internal.h
; File E:\dev\pyzstd\lib\compress\zstd_opt.c
; File E:\dev\pyzstd\lib\common\zstd_internal.h
; File E:\dev\pyzstd\lib\compress\zstd_opt.c
; File E:\dev\pyzstd\lib\common\zstd_internal.h
; File E:\dev\pyzstd\lib\compress\zstd_opt.c
; File E:\dev\pyzstd\lib\common\zstd_internal.h
; File E:\dev\pyzstd\lib\compress\zstd_opt.c
; File E:\dev\pyzstd\lib\common\zstd_internal.h
; File E:\dev\pyzstd\lib\compress\zstd_opt.c
; File E:\dev\pyzstd\lib\common\zstd_internal.h
; File E:\dev\pyzstd\lib\compress\zstd_opt.c
; File E:\dev\pyzstd\lib\common\zstd_internal.h
; File E:\dev\pyzstd\lib\compress\zstd_opt.c
; File E:\dev\pyzstd\lib\common\zstd_internal.h
; File E:\dev\pyzstd\lib\compress\zstd_opt.c
; File E:\dev\pyzstd\lib\common\mem.h
; File E:\dev\pyzstd\lib\compress\zstd_opt.c
; File E:\dev\pyzstd\lib\common\mem.h
; File E:\dev\pyzstd\lib\compress\zstd_opt.c
; File E:\dev\pyzstd\lib\common\zstd_internal.h
; File E:\dev\pyzstd\lib\compress\zstd_opt.c
; File E:\dev\pyzstd\lib\common\zstd_internal.h
; File E:\dev\pyzstd\lib\compress\zstd_opt.c
; File E:\dev\pyzstd\lib\common\zstd_internal.h
; File E:\dev\pyzstd\lib\compress\zstd_opt.c
; File E:\dev\pyzstd\lib\common\zstd_internal.h
; File E:\dev\pyzstd\lib\compress\zstd_opt.c
; File E:\dev\pyzstd\lib\common\zstd_internal.h
; File E:\dev\pyzstd\lib\compress\zstd_opt.c
; File E:\dev\pyzstd\lib\common\zstd_internal.h
; File E:\dev\pyzstd\lib\compress\zstd_opt.c
; File E:\dev\pyzstd\lib\common\zstd_internal.h
; File E:\dev\pyzstd\lib\compress\zstd_opt.c
; File E:\dev\pyzstd\lib\common\zstd_internal.h
; File E:\dev\pyzstd\lib\compress\zstd_opt.c
; File E:\dev\pyzstd\lib\compress\zstd_compress_internal.h
; File E:\dev\pyzstd\lib\compress\zstd_opt.c
; File E:\dev\pyzstd\lib\compress\zstd_compress_internal.h
; File E:\dev\pyzstd\lib\compress\zstd_opt.c
; File E:\dev\pyzstd\lib\compress\zstd_compress_internal.h
; File E:\dev\pyzstd\lib\common\zstd_internal.h
; File E:\dev\pyzstd\lib\compress\zstd_compress_internal.h
; File E:\dev\pyzstd\lib\common\zstd_internal.h
; File E:\dev\pyzstd\lib\compress\zstd_compress_internal.h
; File E:\dev\pyzstd\lib\compress\zstd_opt.c
_TEXT	SEGMENT
current$1$ = 48
current$1$ = 48
current$1$ = 48
current$1$ = 48
matchEndIdx$1$ = 48
matchEndIdx$1$ = 48
matchEndIdx$1$ = 48
matchEndIdx$1$ = 48
matchEndIdx$1$ = 52
matchEndIdx$1$ = 52
matchEndIdx$1$ = 52
matchLow$1$ = 52
dmsIndexDelta$1$ = 52
dmsIndexDelta$1$ = 52
dmsIndexDelta$1$ = 52
tv13686 = 52
iend$1$ = 56
dmsIndexDelta$1$ = 64
dmsIndexDelta$1$ = 64
dmsIndexDelta$1$ = 64
matchEndIdx$1$ = 64
windowLow$1$ = 64
windowLow$1$ = 64
windowLow$1$ = 64
dmsIndexDelta$1$ = 64
current$1$ = 68
current$1$ = 68
current$1$ = 68
matchLow$1$ = 68
seqPos$1$ = 68
dmsLowLimit$1$ = 72
dmsLowLimit$1$ = 72
dmsLowLimit$1$ = 72
dmsIndexDelta$1$ = 72
sufficient_len$1$ = 72
matchNb$1$ = 72
tv13689 = 72
tv13688 = 72
tv13687 = 72
smallerPtr$1$ = 80
smallerPtr$1$ = 80
smallerPtr$1$ = 80
bestLength$1$ = 80
smallerPtr$1$ = 80
smallerPtr$1$ = 80
smallerPtr$1$ = 80
smallerPtr$1$ = 80
ip$1$ = 88
largerPtr$1$ = 96
largerPtr$1$ = 96
largerPtr$1$ = 96
smallerPtr$1$ = 96
largerPtr$1$ = 96
largerPtr$1$ = 96
largerPtr$1$ = 96
largerPtr$1$ = 96
base$1$ = 104
base$1$ = 104
base$1$ = 104
base$1$ = 104
commonLengthSmaller$2$ = 104
commonLengthSmaller$1$ = 104
commonLengthSmaller$2$ = 104
commonLengthSmaller$1$ = 104
commonLengthSmaller$2$ = 104
commonLengthSmaller$1$ = 104
base$1$ = 104
tv13700 = 104
tv13691 = 104
dmsLowLimit$1$ = 112
dmsLowLimit$1$ = 112
dmsLowLimit$1$ = 112
dmsLowLimit$1$ = 112
ll0$1$ = 112
commonLengthSmaller$2$ = 120
commonLengthSmaller$1$ = 120
dmsEnd$1$ = 120
dmsEnd$1$ = 120
largerPtr$1$ = 120
bestLength$1$ = 120
bestLength$1$ = 120
bestLength$1$ = 120
commonLengthSmaller$2$ = 120
commonLengthSmaller$1$ = 120
tv13874 = 120
btMask$1$ = 128
current$1$ = 128
cur$1$ = 128
tv13756 = 128
tv13752 = 128
bestLength$1$ = 136
bestLength$1$ = 136
bestLength$1$ = 136
prefixStart$1$ = 136
prefixStart$1$ = 136
prefixStart$1$ = 136
dmsBase$1$ = 136
offset$1$ = 136
tv13714 = 136
dmsBtMask$1$ = 144
sufficient_len$1$ = 144
matchLow$1$ = 144
dmsHighLimit$1$ = 144
dmsHighLimit$1$ = 144
dmsHighLimit$1$ = 144
tv13724 = 144
tv13718 = 144
dmsHashLog$1$ = 148
dmsHighLimit$1$ = 148
dmsHighLimit$1$ = 148
dmsBtMask$1$ = 148
dmsBtMask$1$ = 148
dmsBtMask$1$ = 148
tv13856 = 148
tv13682 = 148
btMask$1$ = 152
dmsBtMask$1$ = 152
dmsBtMask$1$ = 152
dmsLowLimit$1$ = 152
sufficient_len$1$ = 152
dmsHashLog$1$ = 152
dmsHashLog$1$ = 152
dmsHashLog$1$ = 152
dictLimit$1$ = 156
dictLimit$1$ = 156
dictLimit$1$ = 156
lastR$1$ = 156
litlen$1$ = 156
matchLow$1$ = 160
dmsHashLog$1$ = 160
dmsHashLog$1$ = 160
dmsHighLimit$1$ = 160
dmsHashLog$1$ = 160
btMask$1$ = 160
btMask$1$ = 160
btMask$1$ = 160
btMask$1$ = 164
btMask$1$ = 164
dmsBtMask$1$ = 164
dmsBtMask$1$ = 164
matchLow$1$ = 164
matchLow$1$ = 164
tv13826 = 164
tv13810 = 164
sufficient_len$1$ = 168
matchLow$1$ = 168
matchLow$1$ = 168
dmsHashLog$1$ = 168
dmsHighLimit$1$ = 168
dictLimit$1$ = 168
tv13846 = 168
tv13836 = 168
dictLimit$1$ = 172
btMask$1$ = 172
sufficient_len$1$ = 172
sufficient_len$1$ = 172
windowLow$1$ = 172
tv13800 = 172
tv13790 = 172
tv13760 = 172
lastR$1$ = 176
litlen$1$ = 176
tv13685 = 176
tv13684 = 176
tv13683 = 176
matches$1$ = 184
windowLow$1$ = 192
windowLow$1$ = 192
windowLow$1$ = 192
dmsEnd$1$ = 192
dmsEnd$1$ = 192
dmsEnd$1$ = 192
prefixStart$1$ = 192
tv13728 = 192
dummy32$1 = 192
dummy32$2 = 192
dummy32$3 = 192
r$4 = 192
r$5 = 192
r$6 = 192
prefixStart$1$ = 200
commonLengthLarger$1$ = 200
commonLengthSmaller$2$ = 200
commonLengthLarger$1$ = 200
commonLengthSmaller$2$ = 200
commonLengthLarger$1$ = 200
commonLengthSmaller$2$ = 200
dms$1$ = 200
dms$1$ = 200
dms$1$ = 200
dms$1$ = 200
dmsEnd$1$ = 208
commonLengthLarger$2$ = 208
commonLengthSmaller$1$ = 208
commonLengthLarger$2$ = 208
commonLengthSmaller$1$ = 208
commonLengthLarger$2$ = 208
commonLengthSmaller$1$ = 208
bt$1$ = 208
bt$1$ = 208
bt$1$ = 208
bt$1$ = 208
dms$1$ = 216
dms$1$ = 216
dmsEnd$1$ = 216
dmsBt$1$ = 216
dmsBt$1$ = 216
dmsBt$1$ = 216
dmsBt$1$ = 216
tv13862 = 216
tv13849 = 216
tv13839 = 216
tv13829 = 216
tv13813 = 216
rep$1$ = 224
commonLengthLarger$1$ = 224
commonLengthLarger$1$ = 224
commonLengthLarger$1$ = 224
bestLength$1$ = 224
windowLow$1$ = 232
sufficient_len$1$ = 232
sufficient_len$1$ = 232
tv13780 = 232
tv13748 = 232
dummy32$7 = 232
dmsHighLimit$1$ = 240
dictLimit$1$ = 240
dictLimit$1$ = 240
dictLimit$1$ = 240
base$1$ = 240
base$1$ = 240
base$1$ = 240
dmsEnd$1$ = 240
opt$1$ = 248
commonLengthLarger$2$ = 256
commonLengthLarger$1$ = 256
prefixStart$1$ = 256
prefixStart$1$ = 256
prefixStart$1$ = 256
dmsBase$1$ = 264
dmsBase$1$ = 264
dmsBase$1$ = 264
commonLengthLarger$1$ = 264
basePrice$1$ = 264
dmsBt$1$ = 272
dms$1$ = 272
dmsBt$1$ = 272
dmsBt$1$ = 272
tv13803 = 272
tv13793 = 272
tv13783 = 272
minMatch$1$ = 280
optStatePtr$1$ = 288
dmsBase$1$ = 296
dmsBase$1$ = 296
dmsBase$1$ = 296
dmsBase$1$ = 296
tv13857 = 304
lastSequence$5$ = 312
bt$1$ = 320
bt$1$ = 320
bt$1$ = 320
bt$1$ = 320
nextToUpdate3$8 = 328
sufficient_len$1$ = 332
dmsBt$1$ = 336
dms$1$ = 336
lastSequence$9 = 344
lastSequence$4$ = 376
ilimit$1$ = 384
$T10 = 432
$T11 = 448
ms$ = 544
seqStore$ = 552
rep$ = 560
src$ = 568
nbMatches$1$ = 576
nextPtr$1$ = 576
nextPtr$1$ = 576
nextPtr$1$ = 576
nbCompares$1$ = 576
commonLengthLarger$2$ = 576
commonLengthLarger$2$ = 576
commonLengthLarger$2$ = 576
commonLengthLarger$2$ = 576
inr$1$ = 576
ll0$1$ = 576
dummy32$12 = 576
r$13 = 576
dummy32$14 = 576
dummy32$15 = 576
r$16 = 576
dummy32$17 = 576
r$18 = 576
srcSize$ = 576
ZSTD_compressBlock_btopt_dictMatchState PROC

; 1173 : {

$LN2055:
	mov	QWORD PTR [rsp+32], r9
	mov	QWORD PTR [rsp+24], r8
	mov	QWORD PTR [rsp+16], rdx
	mov	QWORD PTR [rsp+8], rcx
	push	rbp
	push	rbx
	push	rsi
	push	rdi
	push	r12
	push	r13
	push	r15
	lea	rbp, QWORD PTR [rsp-224]
	sub	rsp, 480				; 000001e0H

; 813  :     U32 const sufficient_len = MIN(cParams->targetLength, ZSTD_OPT_NUM -1);

	mov	eax, DWORD PTR [rcx+204]
	lea	r13, QWORD PTR [rcx+72]
	mov	ebx, DWORD PTR [rcx+24]
	mov	edx, 4095				; 00000fffH
	add	rbx, QWORD PTR [rcx+8]

; 1173 : {

	mov	rdi, r9

; 807  :     const BYTE* const iend = istart + srcSize;

	mov	r8, QWORD PTR srcSize$[rbp-256]

; 808  :     const BYTE* const ilimit = iend - 8;
; 809  :     const BYTE* const base = ms->window.base;
; 810  :     const BYTE* const prefixStart = base + ms->window.dictLimit;
; 811  :     const ZSTD_compressionParameters* const cParams = &ms->cParams;
; 812  : 
; 813  :     U32 const sufficient_len = MIN(cParams->targetLength, ZSTD_OPT_NUM -1);

	cmp	eax, edx
	mov	QWORD PTR optStatePtr$1$[rbp-256], r13
	cmovb	edx, eax

; 814  :     U32 const minMatch = (cParams->minMatch == 3) ? 3 : 4;

	xor	r12d, r12d
	cmp	DWORD PTR [rcx+200], 3
	mov	eax, r12d
	lea	r15, QWORD PTR [r9+r8]
	mov	DWORD PTR sufficient_len$1$[rbp-256], edx
	setne	al
	mov	QWORD PTR iend$1$[rsp], r15
	add	eax, 3
	lea	rsi, QWORD PTR [r15-8]
	mov	DWORD PTR minMatch$1$[rbp-256], eax

; 815  :     U32 nextToUpdate3 = ms->nextToUpdate;
; 816  : 
; 817  :     ZSTD_optimal_t* const opt = optStatePtr->priceTable;
; 818  :     ZSTD_match_t* const matches = optStatePtr->matchTable;
; 819  :     ZSTD_optimal_t lastSequence;
; 820  : 
; 821  :     /* init */
; 822  :     DEBUGLOG(5, "ZSTD_compressBlock_opt_generic: current=%u, prefix=%u, nextToUpdate=%u",
; 823  :                 (U32)(ip - base), ms->window.dictLimit, ms->nextToUpdate);
; 824  :     assert(optLevel <= 2);
; 825  :     ZSTD_rescaleFreqs(optStatePtr, (const BYTE*)src, srcSize, optLevel);

	xor	r9d, r9d
	mov	eax, DWORD PTR [rcx+36]
	mov	rdx, rdi
	mov	DWORD PTR nextToUpdate3$8[rbp-256], eax
	mov	rcx, r13
	mov	rax, QWORD PTR [r13+40]
	mov	QWORD PTR opt$1$[rbp-256], rax
	mov	rax, QWORD PTR [r13+32]
	mov	QWORD PTR matches$1$[rbp-256], rax
	mov	QWORD PTR ilimit$1$[rbp-256], rsi
	call	ZSTD_rescaleFreqs
	cmp	rdi, rbx

; 826  :     ip += (ip==prefixStart);

	mov	eax, r12d
	sete	al
	lea	r9, QWORD PTR [rax+rdi]
	mov	QWORD PTR ip$1$[rsp], r9
	cmp	r9, rsi

; 827  : 
; 828  :     /* Match Loop */
; 829  :     while (ip < ilimit) {

	jae	$LN5@ZSTD_compr
	movsd	xmm0, QWORD PTR lastSequence$9[rbp-240]
	mov	eax, DWORD PTR lastSequence$9[rbp-232]
	movsd	QWORD PTR lastSequence$4$[rbp-256], xmm0
	mov	QWORD PTR [rsp+472], r14
	mov	DWORD PTR lastSequence$5$[rbp-256], eax
	npad	6
$LL4@ZSTD_compr:

; 752  :     U32 const matchLengthSearch = cParams->minMatch;

	mov	r13, QWORD PTR ms$[rbp-256]

; 833  :         {   U32 const litlen = (U32)(ip - anchor);

	mov	eax, r9d
	sub	eax, edi
	mov	DWORD PTR litlen$1$[rbp-256], eax

; 834  :             U32 const ll0 = !litlen;

	mov	eax, r12d
	sete	al

; 754  :     if (ip < ms->window.base + ms->nextToUpdate) return 0;   /* skipped area */

	mov	ebx, DWORD PTR [r13+36]
	mov	r14, QWORD PTR [r13+8]
	mov	esi, DWORD PTR [r13+200]

; 834  :             U32 const ll0 = !litlen;

	mov	DWORD PTR ll0$1$[rbp-256], eax

; 754  :     if (ip < ms->window.base + ms->nextToUpdate) return 0;   /* skipped area */

	lea	rax, QWORD PTR [r14+rbx]
	cmp	r9, rax
	jb	$LN1905@ZSTD_compr

; 489  :     U32 const target = (U32)(ip - base);

	mov	edi, r9d
	sub	edi, r14d

; 490  :     U32 idx = ms->nextToUpdate;
; 491  :     DEBUGLOG(6, "ZSTD_updateTree_internal, from %u to %u  (dictMode:%u)",
; 492  :                 idx, target, dictMode);
; 493  : 
; 494  :     while(idx < target) {

	cmp	ebx, edi
	jae	SHORT $LN129@ZSTD_compr
	npad	15
$LL128@ZSTD_compr:

; 495  :         U32 const forward = ZSTD_insertBt1(ms, base+idx, iend, mls, dictMode == ZSTD_extDict);

	mov	edx, ebx
	mov	r9d, esi
	add	rdx, r14
	mov	DWORD PTR [rsp+32], r12d
	mov	r8, r15
	mov	rcx, r13
	call	ZSTD_insertBt1

; 496  :         assert(idx < (U32)(idx + forward));
; 497  :         idx += forward;

	add	ebx, eax
	cmp	ebx, edi
	jb	SHORT $LL128@ZSTD_compr
	mov	r9, QWORD PTR ip$1$[rsp]
$LN129@ZSTD_compr:

; 756  :     switch(matchLengthSearch)

	mov	rbx, QWORD PTR [r13+48]
	mov	ecx, 4095				; 00000fffH

; 501  :     ms->nextToUpdate = target;

	mov	DWORD PTR [r13+36], edi

; 756  :     switch(matchLengthSearch)

	mov	edx, DWORD PTR [r13+192]
	cmp	esi, 3
	je	$LN122@ZSTD_compr
	mov	r15, QWORD PTR [r13+8]
	mov	r14d, r9d
	mov	QWORD PTR base$1$[rbp-256], r15
	cmp	esi, 5
	je	$LN124@ZSTD_compr
	lea	eax, DWORD PTR [rsi-6]
	cmp	eax, 1
	mov	eax, DWORD PTR [r13+204]
	ja	$LN123@ZSTD_compr

; 520  :     U32 const sufficient_len = MIN(cParams->targetLength, ZSTD_OPT_NUM -1);

	cmp	eax, ecx

; 523  :     U32 const hashLog = cParams->hashLog;
; 524  :     U32 const minMatch = (mls==3) ? 3 : 4;
; 525  :     U32* const hashTable = ms->hashTable;
; 526  :     size_t const h  = ZSTD_hashPtr(ip, hashLog, mls);

	mov	r8d, 6
	cmovb	ecx, eax
	sub	r14d, r15d
	mov	DWORD PTR sufficient_len$1$[rbp-256], ecx
	mov	rcx, r9
	mov	DWORD PTR current$1$[rsp], r14d
	call	ZSTD_hashPtr

; 527  :     U32 matchIndex  = hashTable[h];

	mov	esi, DWORD PTR [rbx+rax*4]

; 530  :     U32 const btMask= (1U << btLog) - 1;
; 531  :     size_t commonLengthSmaller=0, commonLengthLarger=0;
; 532  :     const BYTE* const dictBase = ms->window.dictBase;
; 533  :     U32 const dictLimit = ms->window.dictLimit;
; 534  :     const BYTE* const dictEnd = dictBase + dictLimit;
; 535  :     const BYTE* const prefixStart = base + dictLimit;
; 536  :     U32 const btLow = (btMask >= current) ? 0 : current - btMask;
; 537  :     U32 const windowLow = ZSTD_getLowestMatchIndex(ms, current, cParams->windowLog);

	mov	edx, r14d
	mov	ecx, DWORD PTR [r13+188]
	mov	rdi, QWORD PTR [r13+64]
	dec	ecx
	mov	r8d, DWORD PTR [r13+184]
	lea	rax, QWORD PTR [rbx+rax*4]
	mov	QWORD PTR tv13862[rbp-256], rax
	mov	ebx, 1
	mov	eax, DWORD PTR [r13+24]
	shl	ebx, cl
	mov	ecx, r12d
	mov	DWORD PTR dictLimit$1$[rbp-256], eax
	dec	ebx
	add	rax, r15
	mov	QWORD PTR bt$1$[rbp-256], rdi
	mov	QWORD PTR prefixStart$1$[rbp-256], rax
	mov	eax, r14d
	sub	eax, ebx
	mov	DWORD PTR btMask$1$[rbp-256], ebx
	cmp	ebx, r14d
	mov	QWORD PTR commonLengthSmaller$1$[rsp], r12
	mov	QWORD PTR commonLengthLarger$1$[rbp-256], r12
	cmovb	ecx, eax
	mov	DWORD PTR tv13689[rsp], ecx
	mov	rcx, r13
	call	ZSTD_getLowestMatchIndex
	mov	r9d, eax
	mov	DWORD PTR windowLow$1$[rsp], eax

; 539  :     U32* smallerPtr = bt + 2*(current&btMask);

	mov	ecx, ebx
	test	r9d, r9d
	mov	eax, 1

; 556  :     U32         const dmsBtMask     = dictMode == ZSTD_dictMatchState ? (1U << dmsBtLog) - 1 : 0;

	mov	r8d, 1
	cmovne	eax, r9d
	and	ecx, r14d
	mov	DWORD PTR matchLow$1$[rbp-256], eax
	add	ecx, ecx
	lea	rax, QWORD PTR [rdi+rcx*4]
	mov	ecx, DWORD PTR [r13+196]
	mov	QWORD PTR smallerPtr$1$[rsp], rax
	mov	edi, r12d
	add	rax, 4
	mov	r12d, 1
	mov	QWORD PTR largerPtr$1$[rsp], rax
	lea	eax, DWORD PTR [r14+9]
	shl	r12d, cl
	mov	rcx, QWORD PTR [r13+176]
	mov	DWORD PTR matchEndIdx$1$[rsp], eax
	mov	QWORD PTR dms$1$[rbp-256], rcx
	mov	rax, QWORD PTR [rcx]
	mov	rdx, QWORD PTR [rcx+8]
	mov	r10d, eax
	sub	r10d, edx
	mov	QWORD PTR dmsEnd$1$[rbp-256], rax
	mov	eax, r9d
	mov	QWORD PTR dmsBase$1$[rbp-256], rdx
	mov	edx, DWORD PTR [rcx+28]
	sub	eax, r10d
	mov	DWORD PTR dmsIndexDelta$1$[rsp], eax
	mov	eax, DWORD PTR [rcx+192]
	mov	ecx, DWORD PTR [rcx+188]
	dec	ecx
	mov	DWORD PTR dmsHashLog$1$[rbp-256], eax
	shl	r8d, cl

; 557  :     U32         const dmsBtLow      = dictMode == ZSTD_dictMatchState && dmsBtMask < dmsHighLimit - dmsLowLimit ? dmsHighLimit - dmsBtMask : dmsLowLimit;

	mov	eax, r10d
	dec	r8d
	mov	DWORD PTR dmsHighLimit$1$[rbp-256], r10d

; 558  : 
; 559  :     size_t bestLength = lengthToBeat-1;

	mov	ecx, r10d
	mov	DWORD PTR dmsLowLimit$1$[rsp], edx
	sub	ecx, r8d
	mov	DWORD PTR dmsBtMask$1$[rbp-256], r8d
	sub	eax, edx
	cmp	r8d, eax
	mov	eax, DWORD PTR minMatch$1$[rbp-256]
	cmovae	ecx, edx
	dec	eax
	mov	DWORD PTR tv13760[rbp-256], ecx
	mov	rcx, QWORD PTR rep$[rbp-256]
	mov	edx, r14d
	sub	edx, DWORD PTR dictLimit$1$[rbp-256]
	mov	r13d, eax
	mov	QWORD PTR tv13857[rbp-256], rax
	mov	QWORD PTR bestLength$1$[rsp], rax

; 560  :     DEBUGLOG(8, "ZSTD_insertBtAndGetAllMatches: current=%u", current);
; 561  : 
; 562  :     /* check repCode */
; 563  :     assert(ll0 <= 1);   /* necessarily 1 or 0 */
; 564  :     {   U32 const lastR = ZSTD_REP_NUM + ll0;

	mov	eax, DWORD PTR ll0$1$[rbp-256]

; 565  :         U32 repCode;
; 566  :         for (repCode = ll0; repCode < lastR; repCode++) {

	mov	ebx, eax
	mov	DWORD PTR tv13856[rbp-256], edx

; 560  :     DEBUGLOG(8, "ZSTD_insertBtAndGetAllMatches: current=%u", current);
; 561  : 
; 562  :     /* check repCode */
; 563  :     assert(ll0 <= 1);   /* necessarily 1 or 0 */
; 564  :     {   U32 const lastR = ZSTD_REP_NUM + ll0;

	lea	r15d, DWORD PTR [rax+3]
	lea	r14, QWORD PTR [rcx+rax*4]
	npad	3
$LL644@ZSTD_compr:

; 567  :             U32 const repOffset = (repCode==ZSTD_REP_NUM) ? (rep[0] - 1) : rep[repCode];

	cmp	ebx, 3
	jne	SHORT $LN711@ZSTD_compr
	mov	ecx, DWORD PTR [rcx]
	dec	ecx
	jmp	SHORT $LN712@ZSTD_compr
$LN711@ZSTD_compr:
	mov	ecx, DWORD PTR [r14]
$LN712@ZSTD_compr:

; 568  :             U32 const repIndex = current - repOffset;

	mov	r10d, DWORD PTR current$1$[rsp]

; 570  :             assert(current >= dictLimit);
; 571  :             if (repOffset-1 /* intentional overflow, discards 0 and -1 */ < current-dictLimit) {  /* equivalent to `current > repIndex >= dictLimit` */

	lea	r11d, DWORD PTR [rcx-1]
	sub	r10d, ecx
	xor	r8d, r8d
	cmp	r11d, edx
	jae	SHORT $LN649@ZSTD_compr

; 330  :     case 4 : return MEM_read32(memPtr);

	mov	r11, QWORD PTR ip$1$[rsp]

; 575  :                 if ((repIndex >= windowLow) & (ZSTD_readMINMATCH(ip, minMatch) == ZSTD_readMINMATCH(ip - repOffset, minMatch))) {

	mov	edx, ecx
	xor	ecx, ecx
	neg	rdx

; 330  :     case 4 : return MEM_read32(memPtr);

	mov	eax, DWORD PTR [r11]

; 575  :                 if ((repIndex >= windowLow) & (ZSTD_readMINMATCH(ip, minMatch) == ZSTD_readMINMATCH(ip - repOffset, minMatch))) {

	cmp	eax, DWORD PTR [rdx+r11]
	sete	cl
	xor	eax, eax
	cmp	r10d, r9d
	setae	al
	test	ecx, eax
	je	$LN653@ZSTD_compr

; 576  :                     repLen = (U32)ZSTD_count(ip+minMatch, ip+minMatch-repOffset, iLimit) + minMatch;

	mov	r8, QWORD PTR iend$1$[rsp]
	lea	rcx, QWORD PTR [r11+4]
	add	rdx, 4
	add	rdx, r11
	call	ZSTD_count
	lea	r8d, DWORD PTR [rax+4]

; 577  :                 }
; 578  :             } else {  /* repIndex < dictLimit || repIndex >= current */

	jmp	SHORT $LN1980@ZSTD_compr
$LN649@ZSTD_compr:

; 579  :                 const BYTE* const repMatch = dictMode == ZSTD_dictMatchState ?

	mov	ecx, DWORD PTR dmsIndexDelta$1$[rsp]

; 580  :                                              dmsBase + repIndex - dmsIndexDelta :
; 581  :                                              dictBase + repIndex;
; 582  :                 assert(current >= windowLow);
; 583  :                 if ( dictMode == ZSTD_extDict
; 584  :                   && ( ((repOffset-1) /*intentional overflow*/ < current - windowLow)  /* equivalent to `current > repIndex >= windowLow` */
; 585  :                      & (((U32)((dictLimit-1) - repIndex) >= 3) ) /* intentional overflow : do not test positions overlapping 2 memory segments */)
; 586  :                   && (ZSTD_readMINMATCH(ip, minMatch) == ZSTD_readMINMATCH(repMatch, minMatch)) ) {
; 587  :                     repLen = (U32)ZSTD_count_2segments(ip+minMatch, repMatch+minMatch, iLimit, dictEnd, prefixStart) + minMatch;
; 588  :                 }
; 589  :                 if (dictMode == ZSTD_dictMatchState
; 590  :                   && ( ((repOffset-1) /*intentional overflow*/ < current - (dmsLowLimit + dmsIndexDelta))  /* equivalent to `current > repIndex >= dmsLowLimit` */
; 591  :                      & ((U32)((dictLimit-1) - repIndex) >= 3) ) /* intentional overflow : do not test positions overlapping 2 memory segments */
; 592  :                   && (ZSTD_readMINMATCH(ip, minMatch) == ZSTD_readMINMATCH(repMatch, minMatch)) ) {

	xor	edx, edx
	mov	eax, DWORD PTR current$1$[rsp]
	sub	eax, ecx
	mov	r9d, r10d
	sub	eax, DWORD PTR dmsLowLimit$1$[rsp]
	sub	r9, rcx
	add	r9, QWORD PTR dmsBase$1$[rbp-256]
	mov	ecx, DWORD PTR dictLimit$1$[rbp-256]
	cmp	r11d, eax
	setb	dl
	sub	ecx, r10d
	xor	eax, eax
	dec	ecx
	cmp	ecx, 3
	setae	al
	test	edx, eax
	je	SHORT $LN1980@ZSTD_compr

; 330  :     case 4 : return MEM_read32(memPtr);

	mov	r11, QWORD PTR ip$1$[rsp]
	mov	eax, DWORD PTR [r11]

; 592  :                   && (ZSTD_readMINMATCH(ip, minMatch) == ZSTD_readMINMATCH(repMatch, minMatch)) ) {

	cmp	eax, DWORD PTR [r9]
	jne	SHORT $LN1979@ZSTD_compr

; 593  :                     repLen = (U32)ZSTD_count_2segments(ip+minMatch, repMatch+minMatch, iLimit, dmsEnd, prefixStart) + minMatch;

	mov	rax, QWORD PTR prefixStart$1$[rbp-256]
	lea	rdx, QWORD PTR [r9+4]
	mov	r9, QWORD PTR dmsEnd$1$[rbp-256]
	lea	rcx, QWORD PTR [r11+4]
	mov	r8, QWORD PTR iend$1$[rsp]
	mov	QWORD PTR [rsp+32], rax
	call	ZSTD_count_2segments
	lea	r8d, DWORD PTR [rax+4]
$LN1980@ZSTD_compr:

; 594  :             }   }
; 595  :             /* save longer solution */
; 596  :             if (repLen > bestLength) {

	mov	r11, QWORD PTR ip$1$[rsp]
$LN1979@ZSTD_compr:
	mov	r9d, DWORD PTR windowLow$1$[rsp]
$LN653@ZSTD_compr:
	mov	r10, QWORD PTR iend$1$[rsp]
	mov	edx, r8d
	cmp	rdx, r13
	jbe	SHORT $LN642@ZSTD_compr

; 597  :                 DEBUGLOG(8, "found repCode %u (ll0:%u, offset:%u) of length %u",
; 598  :                             repCode, ll0, repOffset, repLen);
; 599  :                 bestLength = repLen;
; 600  :                 matches[mnum].off = repCode - ll0;

	mov	rcx, QWORD PTR matches$1$[rbp-256]
	mov	r13d, edx
	mov	eax, edi

; 601  :                 matches[mnum].len = (U32)repLen;
; 602  :                 mnum++;

	inc	edi
	lea	rcx, QWORD PTR [rcx+rax*8]
	mov	eax, ebx
	mov	DWORD PTR [rcx+4], r8d
	sub	eax, DWORD PTR ll0$1$[rbp-256]
	mov	DWORD PTR [rcx], eax

; 603  :                 if ( (repLen > sufficient_len)
; 604  :                    | (ip+repLen == iLimit) ) {  /* best possible */

	lea	rax, QWORD PTR [r8+r11]
	xor	ecx, ecx
	mov	QWORD PTR bestLength$1$[rsp], rdx
	cmp	rax, r10
	sete	cl
	xor	eax, eax
	cmp	r8d, DWORD PTR sufficient_len$1$[rbp-256]
	seta	al
	or	ecx, eax
	jne	$LN131@ZSTD_compr
$LN642@ZSTD_compr:

; 565  :         U32 repCode;
; 566  :         for (repCode = ll0; repCode < lastR; repCode++) {

	mov	edx, DWORD PTR tv13856[rbp-256]
	inc	ebx
	mov	rcx, QWORD PTR rep$[rbp-256]
	add	r14, 4
	cmp	ebx, r15d
	jb	$LL644@ZSTD_compr

; 636  :         }   }   }
; 637  :         /* no dictMatchState lookup: dicts don't have a populated HC3 table */
; 638  :     }
; 639  : 
; 640  :     hashTable[h] = current;   /* Update Hash Table */

	mov	rcx, QWORD PTR tv13862[rbp-256]
	mov	eax, DWORD PTR current$1$[rsp]
	mov	DWORD PTR [rcx], eax

; 641  : 
; 642  :     while (nbCompares-- && (matchIndex >= matchLow)) {

	test	r12d, r12d
	je	$LN1767@ZSTD_compr
	npad	7
$LL645@ZSTD_compr:
	dec	r12d
	cmp	esi, DWORD PTR matchLow$1$[rbp-256]
	jb	$LN1972@ZSTD_compr

; 643  :         U32* const nextPtr = bt + 2*(matchIndex & btMask);

	mov	eax, DWORD PTR btMask$1$[rbp-256]

; 644  :         const BYTE* match;
; 645  :         size_t matchLength = MIN(commonLengthSmaller, commonLengthLarger);   /* guaranteed minimum nb of common bytes */
; 646  :         assert(current > matchIndex);
; 647  : 
; 648  :         if ((dictMode == ZSTD_noDict) || (dictMode == ZSTD_dictMatchState) || (matchIndex+matchLength >= dictLimit)) {
; 649  :             assert(matchIndex+matchLength >= dictLimit);  /* ensure the condition is correct when !extDict */
; 650  :             match = base + matchIndex;
; 651  :             if (matchIndex >= dictLimit) assert(memcmp(match, ip, matchLength) == 0);  /* ensure early section of match is equal as expected */
; 652  :             matchLength += ZSTD_count(ip+matchLength, match+matchLength, iLimit);

	mov	r8, r10
	mov	rcx, QWORD PTR bt$1$[rbp-256]
	and	eax, esi
	add	eax, eax
	mov	r14d, esi
	lea	r15, QWORD PTR [rcx+rax*4]
	mov	rcx, QWORD PTR commonLengthLarger$1$[rbp-256]
	cmp	QWORD PTR commonLengthSmaller$1$[rsp], rcx
	mov	rbx, rcx
	cmovb	rbx, QWORD PTR commonLengthSmaller$1$[rsp]
	add	r14, QWORD PTR base$1$[rbp-256]
	lea	rcx, QWORD PTR [rbx+r11]
	lea	rdx, QWORD PTR [r14+rbx]
	call	ZSTD_count
	add	rbx, rax

; 653  :         } else {
; 654  :             match = dictBase + matchIndex;
; 655  :             assert(memcmp(match, ip, matchLength) == 0);  /* ensure early section of match is equal as expected */
; 656  :             matchLength += ZSTD_count_2segments(ip+matchLength, match+matchLength, iLimit, dictEnd, prefixStart);
; 657  :             if (matchIndex+matchLength >= dictLimit)
; 658  :                 match = base + matchIndex;   /* prepare for match[matchLength] read */
; 659  :         }
; 660  : 
; 661  :         if (matchLength > bestLength) {

	cmp	rbx, r13
	jbe	SHORT $LN2004@ZSTD_compr

; 662  :             DEBUGLOG(8, "found match of length %u at distance %u (offCode=%u)",
; 663  :                     (U32)matchLength, current - matchIndex, current - matchIndex + ZSTD_REP_MOVE);
; 664  :             assert(matchEndIdx > matchIndex);
; 665  :             if (matchLength > matchEndIdx - matchIndex)

	mov	eax, DWORD PTR matchEndIdx$1$[rsp]
	mov	edx, ebx
	sub	eax, esi
	cmp	rbx, rax
	jbe	SHORT $LN669@ZSTD_compr

; 666  :                 matchEndIdx = matchIndex + (U32)matchLength;

	lea	eax, DWORD PTR [rsi+rbx]
	mov	DWORD PTR matchEndIdx$1$[rsp], eax
$LN669@ZSTD_compr:

; 667  :             bestLength = matchLength;
; 668  :             matches[mnum].off = (current - matchIndex) + ZSTD_REP_MOVE;

	mov	rcx, QWORD PTR matches$1$[rbp-256]

; 669  :             matches[mnum].len = (U32)matchLength;
; 670  :             mnum++;
; 671  :             if ( (matchLength > ZSTD_OPT_NUM)
; 672  :                | (ip+matchLength == iLimit) /* equal : no way to know if inf or sup */) {

	xor	r9d, r9d
	mov	r11, QWORD PTR ip$1$[rsp]
	mov	r13, rbx
	mov	r10, QWORD PTR iend$1$[rsp]
	mov	eax, edi
	inc	edi
	lea	rcx, QWORD PTR [rcx+rax*8]
	mov	eax, DWORD PTR current$1$[rsp]
	sub	eax, esi
	mov	DWORD PTR [rcx+4], edx
	add	eax, 2
	mov	QWORD PTR bestLength$1$[rsp], rbx
	mov	DWORD PTR [rcx], eax
	lea	rax, QWORD PTR [rbx+r11]
	cmp	rax, r10
	mov	ecx, r9d
	mov	eax, r9d
	sete	cl
	cmp	rbx, 4096				; 00001000H
	seta	al
	or	ecx, eax
	je	SHORT $LN670@ZSTD_compr
$LN1716@ZSTD_compr:

; 836  :             if (!nbMatches) { ip++; continue; }

	mov	rcx, QWORD PTR largerPtr$1$[rsp]
	mov	rax, QWORD PTR smallerPtr$1$[rsp]
	mov	DWORD PTR [rcx], r9d
	mov	DWORD PTR [rax], r9d
	jmp	$LN1963@ZSTD_compr
$LN2004@ZSTD_compr:

; 661  :         if (matchLength > bestLength) {

	mov	r10, QWORD PTR iend$1$[rsp]
	xor	r9d, r9d
	mov	r11, QWORD PTR ip$1$[rsp]
$LN670@ZSTD_compr:

; 675  :             }
; 676  :         }
; 677  : 
; 678  :         if (match[matchLength] < ip[matchLength]) {

	movzx	eax, BYTE PTR [rbx+r11]
	cmp	BYTE PTR [r14+rbx], al
	jae	SHORT $LN672@ZSTD_compr

; 679  :             /* match smaller than current */
; 680  :             *smallerPtr = matchIndex;             /* update smaller idx */

	mov	rax, QWORD PTR smallerPtr$1$[rsp]

; 681  :             commonLengthSmaller = matchLength;    /* all smaller will now have at least this guaranteed common length */

	mov	QWORD PTR commonLengthSmaller$1$[rsp], rbx
	mov	DWORD PTR [rax], esi

; 682  :             if (matchIndex <= btLow) { smallerPtr=&dummy32; break; }   /* beyond tree size, stop the search */

	cmp	esi, DWORD PTR tv13689[rsp]
	jbe	$LN1717@ZSTD_compr

; 683  :             smallerPtr = nextPtr+1;               /* new candidate => larger than match, which was smaller than current */

	add	r15, 4
	mov	QWORD PTR smallerPtr$1$[rsp], r15

; 685  :         } else {

	jmp	SHORT $LN2036@ZSTD_compr
$LN672@ZSTD_compr:

; 686  :             *largerPtr = matchIndex;

	mov	rcx, QWORD PTR largerPtr$1$[rsp]

; 687  :             commonLengthLarger = matchLength;

	mov	QWORD PTR commonLengthLarger$1$[rbp-256], rbx
	mov	DWORD PTR [rcx], esi

; 688  :             if (matchIndex <= btLow) { largerPtr=&dummy32; break; }   /* beyond tree size, stop the search */

	cmp	esi, DWORD PTR tv13689[rsp]
	jbe	$LN1718@ZSTD_compr

; 689  :             largerPtr = nextPtr;

	mov	QWORD PTR largerPtr$1$[rsp], r15
$LN2036@ZSTD_compr:

; 641  : 
; 642  :     while (nbCompares-- && (matchIndex >= matchLow)) {

	mov	esi, DWORD PTR [r15]
	test	r12d, r12d
	jne	$LL645@ZSTD_compr
$LN1767@ZSTD_compr:
	dec	r12d
$LN1972@ZSTD_compr:

; 691  :     }   }
; 692  : 
; 693  :     *smallerPtr = *largerPtr = 0;

	xor	r9d, r9d
$LN2037@ZSTD_compr:
	mov	rax, QWORD PTR smallerPtr$1$[rsp]
$LN646@ZSTD_compr:
	mov	rcx, QWORD PTR largerPtr$1$[rsp]
	mov	DWORD PTR [rcx], r9d
	mov	DWORD PTR [rax], r9d

; 694  : 
; 695  :     if (dictMode == ZSTD_dictMatchState && nbCompares) {

	test	r12d, r12d
	je	$LN1963@ZSTD_compr

; 696  :         size_t const dmsH = ZSTD_hashPtr(ip, dmsHashLog, mls);

	mov	edx, DWORD PTR dmsHashLog$1$[rbp-256]
	mov	r8d, 6
	mov	rcx, r11
	call	ZSTD_hashPtr

; 697  :         U32 dictMatchIndex = dms->hashTable[dmsH];

	mov	r8, QWORD PTR dms$1$[rbp-256]
	mov	rcx, QWORD PTR [r8+48]

; 698  :         const U32* const dmsBt = dms->chainTable;

	mov	r8, QWORD PTR [r8+64]
	mov	QWORD PTR dmsBt$1$[rbp-256], r8
	mov	r14d, DWORD PTR [rcx+rax*4]

; 699  :         commonLengthSmaller = commonLengthLarger = 0;

	xor	ecx, ecx
	xor	edx, edx
	mov	QWORD PTR commonLengthLarger$2$[rbp-256], rcx
	mov	QWORD PTR commonLengthSmaller$2$[rsp], rdx
	npad	11
$LL647@ZSTD_compr:

; 700  :         while (nbCompares-- && (dictMatchIndex > dmsLowLimit)) {

	dec	r12d
	cmp	r14d, DWORD PTR dmsLowLimit$1$[rsp]
	jbe	$LN1963@ZSTD_compr

; 703  :             const BYTE* match = dmsBase + dictMatchIndex;

	mov	rsi, QWORD PTR dmsBase$1$[rbp-256]
	mov	rbx, rcx

; 704  :             matchLength += ZSTD_count_2segments(ip+matchLength, match+matchLength, iLimit, dmsEnd, prefixStart);

	mov	r9, QWORD PTR dmsEnd$1$[rbp-256]
	mov	eax, r14d
	and	eax, DWORD PTR dmsBtMask$1$[rbp-256]
	add	eax, eax
	mov	r15d, r14d
	cmp	rdx, rcx
	mov	rcx, QWORD PTR ip$1$[rsp]
	cmovb	rbx, rdx
	add	rsi, r15
	lea	r13, QWORD PTR [r8+rax*4]
	add	rcx, rbx
	mov	rax, QWORD PTR prefixStart$1$[rbp-256]
	mov	r8, QWORD PTR iend$1$[rsp]
	lea	rdx, QWORD PTR [rsi+rbx]
	mov	QWORD PTR [rsp+32], rax
	call	ZSTD_count_2segments
	add	rbx, rax

; 705  :             if (dictMatchIndex+matchLength >= dmsHighLimit)

	mov	eax, DWORD PTR dmsHighLimit$1$[rbp-256]
	lea	rcx, QWORD PTR [rbx+r15]
	cmp	rcx, rax
	jb	SHORT $LN1985@ZSTD_compr

; 706  :                 match = base + dictMatchIndex + dmsIndexDelta;   /* to prepare for next usage of match[matchLength] */

	mov	eax, DWORD PTR dmsIndexDelta$1$[rsp]
	mov	esi, eax
	add	rsi, QWORD PTR base$1$[rbp-256]
	add	rsi, r15
	jmp	SHORT $LN677@ZSTD_compr
$LN1717@ZSTD_compr:

; 682  :             if (matchIndex <= btLow) { smallerPtr=&dummy32; break; }   /* beyond tree size, stop the search */

	lea	rax, QWORD PTR dummy32$12[rbp-256]
	jmp	$LN646@ZSTD_compr
$LN1718@ZSTD_compr:

; 688  :             if (matchIndex <= btLow) { largerPtr=&dummy32; break; }   /* beyond tree size, stop the search */

	lea	rax, QWORD PTR dummy32$12[rbp-256]
	mov	QWORD PTR largerPtr$1$[rsp], rax
	jmp	$LN2037@ZSTD_compr
$LN1985@ZSTD_compr:

; 705  :             if (dictMatchIndex+matchLength >= dmsHighLimit)

	mov	eax, DWORD PTR dmsIndexDelta$1$[rsp]
$LN677@ZSTD_compr:

; 707  : 
; 708  :             if (matchLength > bestLength) {

	cmp	rbx, QWORD PTR bestLength$1$[rsp]
	jbe	SHORT $LN2024@ZSTD_compr

; 709  :                 matchIndex = dictMatchIndex + dmsIndexDelta;

	lea	edx, DWORD PTR [r14+rax]

; 710  :                 DEBUGLOG(8, "found dms match of length %u at distance %u (offCode=%u)",
; 711  :                         (U32)matchLength, current - matchIndex, current - matchIndex + ZSTD_REP_MOVE);
; 712  :                 if (matchLength > matchEndIdx - matchIndex)

	mov	eax, DWORD PTR matchEndIdx$1$[rsp]
	sub	eax, edx
	cmp	rbx, rax
	jbe	SHORT $LN1843@ZSTD_compr

; 713  :                     matchEndIdx = matchIndex + (U32)matchLength;

	lea	eax, DWORD PTR [rbx+rdx]
	mov	DWORD PTR matchEndIdx$1$[rsp], eax
$LN1843@ZSTD_compr:

; 714  :                 bestLength = matchLength;
; 715  :                 matches[mnum].off = (current - matchIndex) + ZSTD_REP_MOVE;

	mov	rcx, QWORD PTR matches$1$[rbp-256]
	mov	eax, edi

; 716  :                 matches[mnum].len = (U32)matchLength;
; 717  :                 mnum++;

	inc	edi
	lea	rcx, QWORD PTR [rcx+rax*8]
	mov	eax, DWORD PTR current$1$[rsp]
	sub	eax, edx
	mov	DWORD PTR [rcx+4], ebx

; 718  :                 if ( (matchLength > ZSTD_OPT_NUM)
; 719  :                    | (ip+matchLength == iLimit) /* equal : no way to know if inf or sup */) {

	mov	rdx, QWORD PTR ip$1$[rsp]
	add	eax, 2
	mov	DWORD PTR [rcx], eax
	xor	ecx, ecx
	mov	QWORD PTR bestLength$1$[rsp], rbx
	lea	rax, QWORD PTR [rbx+rdx]
	cmp	rax, QWORD PTR iend$1$[rsp]
	sete	cl
	xor	eax, eax
	cmp	rbx, 4096				; 00001000H
	seta	al
	or	ecx, eax
	jne	$LN1963@ZSTD_compr

; 707  : 
; 708  :             if (matchLength > bestLength) {

	jmp	SHORT $LN680@ZSTD_compr
$LN2024@ZSTD_compr:
	mov	rdx, QWORD PTR ip$1$[rsp]
$LN680@ZSTD_compr:

; 720  :                     break;   /* drop, to guarantee consistency (miss a little bit of compression) */
; 721  :                 }
; 722  :             }
; 723  : 
; 724  :             if (dictMatchIndex <= dmsBtLow) { break; }   /* beyond tree size, stop the search */

	cmp	r14d, DWORD PTR tv13760[rbp-256]
	jbe	$LN1963@ZSTD_compr

; 725  :             if (match[matchLength] < ip[matchLength]) {

	movzx	eax, BYTE PTR [rbx+rdx]
	cmp	BYTE PTR [rsi+rbx], al
	jae	SHORT $LN682@ZSTD_compr

; 726  :                 commonLengthSmaller = matchLength;    /* all smaller will now have at least this guaranteed common length */
; 727  :                 dictMatchIndex = nextPtr[1];              /* new matchIndex larger than previous (closer to current) */

	mov	r14d, DWORD PTR [r13+4]
	mov	rdx, rbx

; 728  :             } else {

	mov	rcx, QWORD PTR commonLengthLarger$2$[rbp-256]
	mov	QWORD PTR commonLengthSmaller$2$[rsp], rbx
	jmp	SHORT $LN683@ZSTD_compr
$LN682@ZSTD_compr:

; 731  :                 dictMatchIndex = nextPtr[0];

	mov	r14d, DWORD PTR [r13]
	mov	rcx, rbx
	mov	rdx, QWORD PTR commonLengthSmaller$2$[rsp]

; 729  :                 /* match is larger than current */
; 730  :                 commonLengthLarger = matchLength;

	mov	QWORD PTR commonLengthLarger$2$[rbp-256], rbx
$LN683@ZSTD_compr:

; 700  :         while (nbCompares-- && (dictMatchIndex > dmsLowLimit)) {

	mov	r8, QWORD PTR dmsBt$1$[rbp-256]
	test	r12d, r12d
	jne	$LL647@ZSTD_compr

; 763  :     case 6 : return ZSTD_insertBtAndGetAllMatches(matches, ms, nextToUpdate3, ip, iHighLimit, dictMode, rep, ll0, lengthToBeat, 6);

	jmp	$LN1963@ZSTD_compr
$LN123@ZSTD_compr:

; 520  :     U32 const sufficient_len = MIN(cParams->targetLength, ZSTD_OPT_NUM -1);

	cmp	eax, ecx

; 523  :     U32 const hashLog = cParams->hashLog;
; 524  :     U32 const minMatch = (mls==3) ? 3 : 4;
; 525  :     U32* const hashTable = ms->hashTable;
; 526  :     size_t const h  = ZSTD_hashPtr(ip, hashLog, mls);

	mov	r8d, 4
	cmovb	ecx, eax
	sub	r14d, r15d
	mov	DWORD PTR sufficient_len$1$[rbp-256], ecx
	mov	rcx, r9
	mov	DWORD PTR current$1$[rsp], r14d
	call	ZSTD_hashPtr

; 527  :     U32 matchIndex  = hashTable[h];

	mov	esi, DWORD PTR [rbx+rax*4]

; 530  :     U32 const btMask= (1U << btLog) - 1;
; 531  :     size_t commonLengthSmaller=0, commonLengthLarger=0;
; 532  :     const BYTE* const dictBase = ms->window.dictBase;
; 533  :     U32 const dictLimit = ms->window.dictLimit;
; 534  :     const BYTE* const dictEnd = dictBase + dictLimit;
; 535  :     const BYTE* const prefixStart = base + dictLimit;
; 536  :     U32 const btLow = (btMask >= current) ? 0 : current - btMask;
; 537  :     U32 const windowLow = ZSTD_getLowestMatchIndex(ms, current, cParams->windowLog);

	mov	edx, r14d
	mov	ecx, DWORD PTR [r13+188]
	mov	rdi, QWORD PTR [r13+64]
	dec	ecx
	mov	r8d, DWORD PTR [r13+184]
	lea	rax, QWORD PTR [rbx+rax*4]
	mov	QWORD PTR tv13849[rbp-256], rax
	mov	ebx, 1
	mov	eax, DWORD PTR [r13+24]
	shl	ebx, cl
	mov	ecx, r12d
	mov	DWORD PTR dictLimit$1$[rbp-256], eax
	dec	ebx
	add	rax, r15
	mov	QWORD PTR bt$1$[rbp-256], rdi
	mov	QWORD PTR prefixStart$1$[rbp-256], rax
	mov	eax, r14d
	sub	eax, ebx
	mov	DWORD PTR btMask$1$[rbp-256], ebx
	cmp	ebx, r14d
	mov	QWORD PTR commonLengthSmaller$1$[rsp], r12
	mov	QWORD PTR commonLengthLarger$1$[rbp-256], r12
	cmovb	ecx, eax
	mov	DWORD PTR tv13688[rsp], ecx
	mov	rcx, r13
	call	ZSTD_getLowestMatchIndex
	mov	r9d, eax
	mov	DWORD PTR windowLow$1$[rsp], eax

; 539  :     U32* smallerPtr = bt + 2*(current&btMask);

	mov	ecx, ebx
	test	r9d, r9d
	mov	eax, 1

; 556  :     U32         const dmsBtMask     = dictMode == ZSTD_dictMatchState ? (1U << dmsBtLog) - 1 : 0;

	mov	r8d, 1
	cmovne	eax, r9d
	and	ecx, r14d
	mov	DWORD PTR matchLow$1$[rbp-256], eax
	add	ecx, ecx
	lea	rax, QWORD PTR [rdi+rcx*4]
	mov	ecx, DWORD PTR [r13+196]
	mov	QWORD PTR smallerPtr$1$[rsp], rax
	mov	edi, r12d
	add	rax, 4
	mov	r12d, 1
	mov	QWORD PTR largerPtr$1$[rsp], rax
	lea	eax, DWORD PTR [r14+9]
	shl	r12d, cl
	mov	rcx, QWORD PTR [r13+176]
	mov	DWORD PTR matchEndIdx$1$[rsp], eax
	mov	QWORD PTR dms$1$[rbp-256], rcx
	mov	rax, QWORD PTR [rcx]
	mov	rdx, QWORD PTR [rcx+8]
	mov	r10d, eax
	sub	r10d, edx
	mov	QWORD PTR dmsEnd$1$[rbp-256], rax
	mov	eax, r9d
	mov	QWORD PTR dmsBase$1$[rbp-256], rdx
	mov	edx, DWORD PTR [rcx+28]
	sub	eax, r10d
	mov	DWORD PTR dmsIndexDelta$1$[rsp], eax
	mov	eax, DWORD PTR [rcx+192]
	mov	ecx, DWORD PTR [rcx+188]
	dec	ecx
	mov	DWORD PTR dmsHashLog$1$[rbp-256], eax
	shl	r8d, cl

; 557  :     U32         const dmsBtLow      = dictMode == ZSTD_dictMatchState && dmsBtMask < dmsHighLimit - dmsLowLimit ? dmsHighLimit - dmsBtMask : dmsLowLimit;

	mov	eax, r10d
	dec	r8d
	mov	DWORD PTR dmsHighLimit$1$[rbp-256], r10d

; 558  : 
; 559  :     size_t bestLength = lengthToBeat-1;

	mov	ecx, r10d
	mov	DWORD PTR dmsLowLimit$1$[rsp], edx
	sub	ecx, r8d
	mov	DWORD PTR dmsBtMask$1$[rbp-256], r8d
	sub	eax, edx
	cmp	r8d, eax
	mov	eax, DWORD PTR minMatch$1$[rbp-256]
	cmovae	ecx, edx
	dec	eax
	mov	DWORD PTR tv13756[rbp-256], ecx
	mov	rcx, QWORD PTR rep$[rbp-256]
	mov	edx, r14d
	sub	edx, DWORD PTR dictLimit$1$[rbp-256]
	mov	r13d, eax
	mov	QWORD PTR tv13857[rbp-256], rax
	mov	QWORD PTR bestLength$1$[rsp], rax

; 560  :     DEBUGLOG(8, "ZSTD_insertBtAndGetAllMatches: current=%u", current);
; 561  : 
; 562  :     /* check repCode */
; 563  :     assert(ll0 <= 1);   /* necessarily 1 or 0 */
; 564  :     {   U32 const lastR = ZSTD_REP_NUM + ll0;

	mov	eax, DWORD PTR ll0$1$[rbp-256]

; 565  :         U32 repCode;
; 566  :         for (repCode = ll0; repCode < lastR; repCode++) {

	mov	ebx, eax
	mov	DWORD PTR tv13846[rbp-256], edx

; 560  :     DEBUGLOG(8, "ZSTD_insertBtAndGetAllMatches: current=%u", current);
; 561  : 
; 562  :     /* check repCode */
; 563  :     assert(ll0 <= 1);   /* necessarily 1 or 0 */
; 564  :     {   U32 const lastR = ZSTD_REP_NUM + ll0;

	lea	r15d, DWORD PTR [rax+3]
	lea	r14, QWORD PTR [rcx+rax*4]
	npad	3
$LL304@ZSTD_compr:

; 567  :             U32 const repOffset = (repCode==ZSTD_REP_NUM) ? (rep[0] - 1) : rep[repCode];

	cmp	ebx, 3
	jne	SHORT $LN371@ZSTD_compr
	mov	ecx, DWORD PTR [rcx]
	dec	ecx
	jmp	SHORT $LN372@ZSTD_compr
$LN371@ZSTD_compr:
	mov	ecx, DWORD PTR [r14]
$LN372@ZSTD_compr:

; 568  :             U32 const repIndex = current - repOffset;

	mov	r10d, DWORD PTR current$1$[rsp]

; 570  :             assert(current >= dictLimit);
; 571  :             if (repOffset-1 /* intentional overflow, discards 0 and -1 */ < current-dictLimit) {  /* equivalent to `current > repIndex >= dictLimit` */

	lea	r11d, DWORD PTR [rcx-1]
	sub	r10d, ecx
	xor	r8d, r8d
	cmp	r11d, edx
	jae	SHORT $LN309@ZSTD_compr

; 330  :     case 4 : return MEM_read32(memPtr);

	mov	r11, QWORD PTR ip$1$[rsp]

; 575  :                 if ((repIndex >= windowLow) & (ZSTD_readMINMATCH(ip, minMatch) == ZSTD_readMINMATCH(ip - repOffset, minMatch))) {

	mov	edx, ecx
	xor	ecx, ecx
	neg	rdx

; 330  :     case 4 : return MEM_read32(memPtr);

	mov	eax, DWORD PTR [r11]

; 575  :                 if ((repIndex >= windowLow) & (ZSTD_readMINMATCH(ip, minMatch) == ZSTD_readMINMATCH(ip - repOffset, minMatch))) {

	cmp	eax, DWORD PTR [rdx+r11]
	sete	cl
	xor	eax, eax
	cmp	r10d, r9d
	setae	al
	test	ecx, eax
	je	$LN313@ZSTD_compr

; 576  :                     repLen = (U32)ZSTD_count(ip+minMatch, ip+minMatch-repOffset, iLimit) + minMatch;

	mov	r8, QWORD PTR iend$1$[rsp]
	lea	rcx, QWORD PTR [r11+4]
	add	rdx, 4
	add	rdx, r11
	call	ZSTD_count
	lea	r8d, DWORD PTR [rax+4]

; 577  :                 }
; 578  :             } else {  /* repIndex < dictLimit || repIndex >= current */

	jmp	SHORT $LN1982@ZSTD_compr
$LN309@ZSTD_compr:

; 579  :                 const BYTE* const repMatch = dictMode == ZSTD_dictMatchState ?

	mov	ecx, DWORD PTR dmsIndexDelta$1$[rsp]

; 580  :                                              dmsBase + repIndex - dmsIndexDelta :
; 581  :                                              dictBase + repIndex;
; 582  :                 assert(current >= windowLow);
; 583  :                 if ( dictMode == ZSTD_extDict
; 584  :                   && ( ((repOffset-1) /*intentional overflow*/ < current - windowLow)  /* equivalent to `current > repIndex >= windowLow` */
; 585  :                      & (((U32)((dictLimit-1) - repIndex) >= 3) ) /* intentional overflow : do not test positions overlapping 2 memory segments */)
; 586  :                   && (ZSTD_readMINMATCH(ip, minMatch) == ZSTD_readMINMATCH(repMatch, minMatch)) ) {
; 587  :                     repLen = (U32)ZSTD_count_2segments(ip+minMatch, repMatch+minMatch, iLimit, dictEnd, prefixStart) + minMatch;
; 588  :                 }
; 589  :                 if (dictMode == ZSTD_dictMatchState
; 590  :                   && ( ((repOffset-1) /*intentional overflow*/ < current - (dmsLowLimit + dmsIndexDelta))  /* equivalent to `current > repIndex >= dmsLowLimit` */
; 591  :                      & ((U32)((dictLimit-1) - repIndex) >= 3) ) /* intentional overflow : do not test positions overlapping 2 memory segments */
; 592  :                   && (ZSTD_readMINMATCH(ip, minMatch) == ZSTD_readMINMATCH(repMatch, minMatch)) ) {

	xor	edx, edx
	mov	eax, DWORD PTR current$1$[rsp]
	sub	eax, ecx
	mov	r9d, r10d
	sub	eax, DWORD PTR dmsLowLimit$1$[rsp]
	sub	r9, rcx
	add	r9, QWORD PTR dmsBase$1$[rbp-256]
	mov	ecx, DWORD PTR dictLimit$1$[rbp-256]
	cmp	r11d, eax
	setb	dl
	sub	ecx, r10d
	xor	eax, eax
	dec	ecx
	cmp	ecx, 3
	setae	al
	test	edx, eax
	je	SHORT $LN1982@ZSTD_compr

; 330  :     case 4 : return MEM_read32(memPtr);

	mov	r11, QWORD PTR ip$1$[rsp]
	mov	eax, DWORD PTR [r11]

; 592  :                   && (ZSTD_readMINMATCH(ip, minMatch) == ZSTD_readMINMATCH(repMatch, minMatch)) ) {

	cmp	eax, DWORD PTR [r9]
	jne	SHORT $LN1981@ZSTD_compr

; 593  :                     repLen = (U32)ZSTD_count_2segments(ip+minMatch, repMatch+minMatch, iLimit, dmsEnd, prefixStart) + minMatch;

	mov	rax, QWORD PTR prefixStart$1$[rbp-256]
	lea	rdx, QWORD PTR [r9+4]
	mov	r9, QWORD PTR dmsEnd$1$[rbp-256]
	lea	rcx, QWORD PTR [r11+4]
	mov	r8, QWORD PTR iend$1$[rsp]
	mov	QWORD PTR [rsp+32], rax
	call	ZSTD_count_2segments
	lea	r8d, DWORD PTR [rax+4]
$LN1982@ZSTD_compr:

; 594  :             }   }
; 595  :             /* save longer solution */
; 596  :             if (repLen > bestLength) {

	mov	r11, QWORD PTR ip$1$[rsp]
$LN1981@ZSTD_compr:
	mov	r9d, DWORD PTR windowLow$1$[rsp]
$LN313@ZSTD_compr:
	mov	r10, QWORD PTR iend$1$[rsp]
	mov	edx, r8d
	cmp	rdx, r13
	jbe	SHORT $LN302@ZSTD_compr

; 597  :                 DEBUGLOG(8, "found repCode %u (ll0:%u, offset:%u) of length %u",
; 598  :                             repCode, ll0, repOffset, repLen);
; 599  :                 bestLength = repLen;
; 600  :                 matches[mnum].off = repCode - ll0;

	mov	rcx, QWORD PTR matches$1$[rbp-256]
	mov	r13d, edx
	mov	eax, edi

; 601  :                 matches[mnum].len = (U32)repLen;
; 602  :                 mnum++;

	inc	edi
	lea	rcx, QWORD PTR [rcx+rax*8]
	mov	eax, ebx
	mov	DWORD PTR [rcx+4], r8d
	sub	eax, DWORD PTR ll0$1$[rbp-256]
	mov	DWORD PTR [rcx], eax

; 603  :                 if ( (repLen > sufficient_len)
; 604  :                    | (ip+repLen == iLimit) ) {  /* best possible */

	lea	rax, QWORD PTR [r8+r11]
	xor	ecx, ecx
	mov	QWORD PTR bestLength$1$[rsp], rdx
	cmp	rax, r10
	sete	cl
	xor	eax, eax
	cmp	r8d, DWORD PTR sufficient_len$1$[rbp-256]
	seta	al
	or	ecx, eax
	jne	$LN131@ZSTD_compr
$LN302@ZSTD_compr:

; 565  :         U32 repCode;
; 566  :         for (repCode = ll0; repCode < lastR; repCode++) {

	mov	edx, DWORD PTR tv13846[rbp-256]
	inc	ebx
	mov	rcx, QWORD PTR rep$[rbp-256]
	add	r14, 4
	cmp	ebx, r15d
	jb	$LL304@ZSTD_compr

; 636  :         }   }   }
; 637  :         /* no dictMatchState lookup: dicts don't have a populated HC3 table */
; 638  :     }
; 639  : 
; 640  :     hashTable[h] = current;   /* Update Hash Table */

	mov	rcx, QWORD PTR tv13849[rbp-256]
	mov	eax, DWORD PTR current$1$[rsp]
	mov	DWORD PTR [rcx], eax

; 641  : 
; 642  :     while (nbCompares-- && (matchIndex >= matchLow)) {

	test	r12d, r12d
	je	$LN1770@ZSTD_compr
	npad	7
$LL305@ZSTD_compr:
	dec	r12d
	cmp	esi, DWORD PTR matchLow$1$[rbp-256]
	jb	$LN1973@ZSTD_compr

; 643  :         U32* const nextPtr = bt + 2*(matchIndex & btMask);

	mov	eax, DWORD PTR btMask$1$[rbp-256]

; 644  :         const BYTE* match;
; 645  :         size_t matchLength = MIN(commonLengthSmaller, commonLengthLarger);   /* guaranteed minimum nb of common bytes */
; 646  :         assert(current > matchIndex);
; 647  : 
; 648  :         if ((dictMode == ZSTD_noDict) || (dictMode == ZSTD_dictMatchState) || (matchIndex+matchLength >= dictLimit)) {
; 649  :             assert(matchIndex+matchLength >= dictLimit);  /* ensure the condition is correct when !extDict */
; 650  :             match = base + matchIndex;
; 651  :             if (matchIndex >= dictLimit) assert(memcmp(match, ip, matchLength) == 0);  /* ensure early section of match is equal as expected */
; 652  :             matchLength += ZSTD_count(ip+matchLength, match+matchLength, iLimit);

	mov	r8, r10
	mov	rcx, QWORD PTR bt$1$[rbp-256]
	and	eax, esi
	add	eax, eax
	mov	r14d, esi
	lea	r15, QWORD PTR [rcx+rax*4]
	mov	rcx, QWORD PTR commonLengthLarger$1$[rbp-256]
	cmp	QWORD PTR commonLengthSmaller$1$[rsp], rcx
	mov	rbx, rcx
	cmovb	rbx, QWORD PTR commonLengthSmaller$1$[rsp]
	add	r14, QWORD PTR base$1$[rbp-256]
	lea	rcx, QWORD PTR [rbx+r11]
	lea	rdx, QWORD PTR [r14+rbx]
	call	ZSTD_count
	add	rbx, rax

; 653  :         } else {
; 654  :             match = dictBase + matchIndex;
; 655  :             assert(memcmp(match, ip, matchLength) == 0);  /* ensure early section of match is equal as expected */
; 656  :             matchLength += ZSTD_count_2segments(ip+matchLength, match+matchLength, iLimit, dictEnd, prefixStart);
; 657  :             if (matchIndex+matchLength >= dictLimit)
; 658  :                 match = base + matchIndex;   /* prepare for match[matchLength] read */
; 659  :         }
; 660  : 
; 661  :         if (matchLength > bestLength) {

	cmp	rbx, r13
	jbe	SHORT $LN2006@ZSTD_compr

; 662  :             DEBUGLOG(8, "found match of length %u at distance %u (offCode=%u)",
; 663  :                     (U32)matchLength, current - matchIndex, current - matchIndex + ZSTD_REP_MOVE);
; 664  :             assert(matchEndIdx > matchIndex);
; 665  :             if (matchLength > matchEndIdx - matchIndex)

	mov	eax, DWORD PTR matchEndIdx$1$[rsp]
	mov	edx, ebx
	sub	eax, esi
	cmp	rbx, rax
	jbe	SHORT $LN329@ZSTD_compr

; 666  :                 matchEndIdx = matchIndex + (U32)matchLength;

	lea	eax, DWORD PTR [rsi+rbx]
	mov	DWORD PTR matchEndIdx$1$[rsp], eax
$LN329@ZSTD_compr:

; 667  :             bestLength = matchLength;
; 668  :             matches[mnum].off = (current - matchIndex) + ZSTD_REP_MOVE;

	mov	rcx, QWORD PTR matches$1$[rbp-256]

; 669  :             matches[mnum].len = (U32)matchLength;
; 670  :             mnum++;
; 671  :             if ( (matchLength > ZSTD_OPT_NUM)
; 672  :                | (ip+matchLength == iLimit) /* equal : no way to know if inf or sup */) {

	xor	r9d, r9d
	mov	r11, QWORD PTR ip$1$[rsp]
	mov	r13, rbx
	mov	r10, QWORD PTR iend$1$[rsp]
	mov	eax, edi
	inc	edi
	lea	rcx, QWORD PTR [rcx+rax*8]
	mov	eax, DWORD PTR current$1$[rsp]
	sub	eax, esi
	mov	DWORD PTR [rcx+4], edx
	add	eax, 2
	mov	QWORD PTR bestLength$1$[rsp], rbx
	mov	DWORD PTR [rcx], eax
	lea	rax, QWORD PTR [rbx+r11]
	cmp	rax, r10
	mov	ecx, r9d
	mov	eax, r9d
	sete	cl
	cmp	rbx, 4096				; 00001000H
	seta	al
	or	ecx, eax
	jne	$LN1716@ZSTD_compr

; 653  :         } else {
; 654  :             match = dictBase + matchIndex;
; 655  :             assert(memcmp(match, ip, matchLength) == 0);  /* ensure early section of match is equal as expected */
; 656  :             matchLength += ZSTD_count_2segments(ip+matchLength, match+matchLength, iLimit, dictEnd, prefixStart);
; 657  :             if (matchIndex+matchLength >= dictLimit)
; 658  :                 match = base + matchIndex;   /* prepare for match[matchLength] read */
; 659  :         }
; 660  : 
; 661  :         if (matchLength > bestLength) {

	jmp	SHORT $LN330@ZSTD_compr
$LN2006@ZSTD_compr:
	mov	r10, QWORD PTR iend$1$[rsp]
	xor	r9d, r9d
	mov	r11, QWORD PTR ip$1$[rsp]
$LN330@ZSTD_compr:

; 675  :             }
; 676  :         }
; 677  : 
; 678  :         if (match[matchLength] < ip[matchLength]) {

	movzx	eax, BYTE PTR [rbx+r11]
	cmp	BYTE PTR [r14+rbx], al
	jae	SHORT $LN332@ZSTD_compr

; 679  :             /* match smaller than current */
; 680  :             *smallerPtr = matchIndex;             /* update smaller idx */

	mov	rax, QWORD PTR smallerPtr$1$[rsp]

; 681  :             commonLengthSmaller = matchLength;    /* all smaller will now have at least this guaranteed common length */

	mov	QWORD PTR commonLengthSmaller$1$[rsp], rbx
	mov	DWORD PTR [rax], esi

; 682  :             if (matchIndex <= btLow) { smallerPtr=&dummy32; break; }   /* beyond tree size, stop the search */

	cmp	esi, DWORD PTR tv13688[rsp]
	jbe	$LN1723@ZSTD_compr

; 683  :             smallerPtr = nextPtr+1;               /* new candidate => larger than match, which was smaller than current */

	add	r15, 4
	mov	QWORD PTR smallerPtr$1$[rsp], r15

; 685  :         } else {

	jmp	SHORT $LN2038@ZSTD_compr
$LN332@ZSTD_compr:

; 686  :             *largerPtr = matchIndex;

	mov	rcx, QWORD PTR largerPtr$1$[rsp]

; 687  :             commonLengthLarger = matchLength;

	mov	QWORD PTR commonLengthLarger$1$[rbp-256], rbx
	mov	DWORD PTR [rcx], esi

; 688  :             if (matchIndex <= btLow) { largerPtr=&dummy32; break; }   /* beyond tree size, stop the search */

	cmp	esi, DWORD PTR tv13688[rsp]
	jbe	$LN1724@ZSTD_compr

; 689  :             largerPtr = nextPtr;

	mov	QWORD PTR largerPtr$1$[rsp], r15
$LN2038@ZSTD_compr:

; 641  : 
; 642  :     while (nbCompares-- && (matchIndex >= matchLow)) {

	mov	esi, DWORD PTR [r15]
	test	r12d, r12d
	jne	$LL305@ZSTD_compr
$LN1770@ZSTD_compr:
	dec	r12d
$LN1973@ZSTD_compr:

; 691  :     }   }
; 692  : 
; 693  :     *smallerPtr = *largerPtr = 0;

	xor	r9d, r9d
$LN2039@ZSTD_compr:
	mov	rax, QWORD PTR smallerPtr$1$[rsp]
$LN306@ZSTD_compr:
	mov	rcx, QWORD PTR largerPtr$1$[rsp]
	mov	DWORD PTR [rcx], r9d
	mov	DWORD PTR [rax], r9d

; 694  : 
; 695  :     if (dictMode == ZSTD_dictMatchState && nbCompares) {

	test	r12d, r12d
	je	$LN1963@ZSTD_compr

; 696  :         size_t const dmsH = ZSTD_hashPtr(ip, dmsHashLog, mls);

	mov	edx, DWORD PTR dmsHashLog$1$[rbp-256]
	mov	r8d, 4
	mov	rcx, r11
	call	ZSTD_hashPtr

; 697  :         U32 dictMatchIndex = dms->hashTable[dmsH];

	mov	r8, QWORD PTR dms$1$[rbp-256]
	mov	rcx, QWORD PTR [r8+48]

; 698  :         const U32* const dmsBt = dms->chainTable;

	mov	r8, QWORD PTR [r8+64]
	mov	QWORD PTR dmsBt$1$[rbp-256], r8
	mov	r14d, DWORD PTR [rcx+rax*4]

; 699  :         commonLengthSmaller = commonLengthLarger = 0;

	xor	ecx, ecx
	xor	edx, edx
	mov	QWORD PTR commonLengthLarger$2$[rbp-256], rcx
	mov	QWORD PTR commonLengthSmaller$2$[rsp], rdx
	npad	10
$LL307@ZSTD_compr:

; 700  :         while (nbCompares-- && (dictMatchIndex > dmsLowLimit)) {

	dec	r12d
	cmp	r14d, DWORD PTR dmsLowLimit$1$[rsp]
	jbe	$LN1963@ZSTD_compr

; 703  :             const BYTE* match = dmsBase + dictMatchIndex;

	mov	rsi, QWORD PTR dmsBase$1$[rbp-256]
	mov	rbx, rcx

; 704  :             matchLength += ZSTD_count_2segments(ip+matchLength, match+matchLength, iLimit, dmsEnd, prefixStart);

	mov	r9, QWORD PTR dmsEnd$1$[rbp-256]
	mov	eax, r14d
	and	eax, DWORD PTR dmsBtMask$1$[rbp-256]
	add	eax, eax
	mov	r15d, r14d
	cmp	rdx, rcx
	mov	rcx, QWORD PTR ip$1$[rsp]
	cmovb	rbx, rdx
	add	rsi, r15
	lea	r13, QWORD PTR [r8+rax*4]
	add	rcx, rbx
	mov	rax, QWORD PTR prefixStart$1$[rbp-256]
	mov	r8, QWORD PTR iend$1$[rsp]
	lea	rdx, QWORD PTR [rsi+rbx]
	mov	QWORD PTR [rsp+32], rax
	call	ZSTD_count_2segments
	add	rbx, rax

; 705  :             if (dictMatchIndex+matchLength >= dmsHighLimit)

	mov	eax, DWORD PTR dmsHighLimit$1$[rbp-256]
	lea	rcx, QWORD PTR [rbx+r15]
	cmp	rcx, rax
	jb	SHORT $LN1986@ZSTD_compr

; 706  :                 match = base + dictMatchIndex + dmsIndexDelta;   /* to prepare for next usage of match[matchLength] */

	mov	eax, DWORD PTR dmsIndexDelta$1$[rsp]
	mov	esi, eax
	add	rsi, QWORD PTR base$1$[rbp-256]
	add	rsi, r15
	jmp	SHORT $LN337@ZSTD_compr
$LN1723@ZSTD_compr:

; 682  :             if (matchIndex <= btLow) { smallerPtr=&dummy32; break; }   /* beyond tree size, stop the search */

	lea	rax, QWORD PTR dummy32$15[rbp-256]
	jmp	$LN306@ZSTD_compr
$LN1724@ZSTD_compr:

; 688  :             if (matchIndex <= btLow) { largerPtr=&dummy32; break; }   /* beyond tree size, stop the search */

	lea	rax, QWORD PTR dummy32$15[rbp-256]
	mov	QWORD PTR largerPtr$1$[rsp], rax
	jmp	$LN2039@ZSTD_compr
$LN1986@ZSTD_compr:

; 705  :             if (dictMatchIndex+matchLength >= dmsHighLimit)

	mov	eax, DWORD PTR dmsIndexDelta$1$[rsp]
$LN337@ZSTD_compr:

; 707  : 
; 708  :             if (matchLength > bestLength) {

	cmp	rbx, QWORD PTR bestLength$1$[rsp]
	jbe	SHORT $LN2025@ZSTD_compr

; 709  :                 matchIndex = dictMatchIndex + dmsIndexDelta;

	lea	edx, DWORD PTR [r14+rax]

; 710  :                 DEBUGLOG(8, "found dms match of length %u at distance %u (offCode=%u)",
; 711  :                         (U32)matchLength, current - matchIndex, current - matchIndex + ZSTD_REP_MOVE);
; 712  :                 if (matchLength > matchEndIdx - matchIndex)

	mov	eax, DWORD PTR matchEndIdx$1$[rsp]
	sub	eax, edx
	cmp	rbx, rax
	jbe	SHORT $LN1845@ZSTD_compr

; 713  :                     matchEndIdx = matchIndex + (U32)matchLength;

	lea	eax, DWORD PTR [rdx+rbx]
	mov	DWORD PTR matchEndIdx$1$[rsp], eax
$LN1845@ZSTD_compr:

; 714  :                 bestLength = matchLength;
; 715  :                 matches[mnum].off = (current - matchIndex) + ZSTD_REP_MOVE;

	mov	rcx, QWORD PTR matches$1$[rbp-256]
	mov	eax, edi

; 716  :                 matches[mnum].len = (U32)matchLength;
; 717  :                 mnum++;

	inc	edi
	lea	rcx, QWORD PTR [rcx+rax*8]
	mov	eax, DWORD PTR current$1$[rsp]
	sub	eax, edx
	mov	DWORD PTR [rcx+4], ebx

; 718  :                 if ( (matchLength > ZSTD_OPT_NUM)
; 719  :                    | (ip+matchLength == iLimit) /* equal : no way to know if inf or sup */) {

	mov	rdx, QWORD PTR ip$1$[rsp]
	add	eax, 2
	mov	DWORD PTR [rcx], eax
	xor	ecx, ecx
	mov	QWORD PTR bestLength$1$[rsp], rbx
	lea	rax, QWORD PTR [rbx+rdx]
	cmp	rax, QWORD PTR iend$1$[rsp]
	sete	cl
	xor	eax, eax
	cmp	rbx, 4096				; 00001000H
	seta	al
	or	ecx, eax
	jne	$LN1963@ZSTD_compr

; 707  : 
; 708  :             if (matchLength > bestLength) {

	jmp	SHORT $LN340@ZSTD_compr
$LN2025@ZSTD_compr:
	mov	rdx, QWORD PTR ip$1$[rsp]
$LN340@ZSTD_compr:

; 720  :                     break;   /* drop, to guarantee consistency (miss a little bit of compression) */
; 721  :                 }
; 722  :             }
; 723  : 
; 724  :             if (dictMatchIndex <= dmsBtLow) { break; }   /* beyond tree size, stop the search */

	cmp	r14d, DWORD PTR tv13756[rbp-256]
	jbe	$LN1963@ZSTD_compr

; 725  :             if (match[matchLength] < ip[matchLength]) {

	movzx	eax, BYTE PTR [rbx+rdx]
	cmp	BYTE PTR [rsi+rbx], al
	jae	SHORT $LN342@ZSTD_compr

; 726  :                 commonLengthSmaller = matchLength;    /* all smaller will now have at least this guaranteed common length */
; 727  :                 dictMatchIndex = nextPtr[1];              /* new matchIndex larger than previous (closer to current) */

	mov	r14d, DWORD PTR [r13+4]
	mov	rdx, rbx

; 728  :             } else {

	mov	rcx, QWORD PTR commonLengthLarger$2$[rbp-256]
	mov	QWORD PTR commonLengthSmaller$2$[rsp], rbx
	jmp	SHORT $LN343@ZSTD_compr
$LN342@ZSTD_compr:

; 731  :                 dictMatchIndex = nextPtr[0];

	mov	r14d, DWORD PTR [r13]
	mov	rcx, rbx
	mov	rdx, QWORD PTR commonLengthSmaller$2$[rsp]

; 729  :                 /* match is larger than current */
; 730  :                 commonLengthLarger = matchLength;

	mov	QWORD PTR commonLengthLarger$2$[rbp-256], rbx
$LN343@ZSTD_compr:

; 700  :         while (nbCompares-- && (dictMatchIndex > dmsLowLimit)) {

	mov	r8, QWORD PTR dmsBt$1$[rbp-256]
	test	r12d, r12d
	jne	$LL307@ZSTD_compr

; 760  :     case 4 : return ZSTD_insertBtAndGetAllMatches(matches, ms, nextToUpdate3, ip, iHighLimit, dictMode, rep, ll0, lengthToBeat, 4);

	jmp	$LN1963@ZSTD_compr
$LN124@ZSTD_compr:

; 520  :     U32 const sufficient_len = MIN(cParams->targetLength, ZSTD_OPT_NUM -1);

	mov	eax, DWORD PTR [r13+204]

; 523  :     U32 const hashLog = cParams->hashLog;
; 524  :     U32 const minMatch = (mls==3) ? 3 : 4;
; 525  :     U32* const hashTable = ms->hashTable;
; 526  :     size_t const h  = ZSTD_hashPtr(ip, hashLog, mls);

	mov	r8d, 5
	cmp	eax, ecx
	cmovb	ecx, eax
	sub	r14d, r15d
	mov	DWORD PTR sufficient_len$1$[rbp-256], ecx
	mov	rcx, r9
	mov	DWORD PTR current$1$[rsp], r14d
	call	ZSTD_hashPtr

; 527  :     U32 matchIndex  = hashTable[h];

	mov	esi, DWORD PTR [rbx+rax*4]

; 530  :     U32 const btMask= (1U << btLog) - 1;
; 531  :     size_t commonLengthSmaller=0, commonLengthLarger=0;
; 532  :     const BYTE* const dictBase = ms->window.dictBase;
; 533  :     U32 const dictLimit = ms->window.dictLimit;
; 534  :     const BYTE* const dictEnd = dictBase + dictLimit;
; 535  :     const BYTE* const prefixStart = base + dictLimit;
; 536  :     U32 const btLow = (btMask >= current) ? 0 : current - btMask;
; 537  :     U32 const windowLow = ZSTD_getLowestMatchIndex(ms, current, cParams->windowLog);

	mov	edx, r14d
	mov	ecx, DWORD PTR [r13+188]
	mov	rdi, QWORD PTR [r13+64]
	dec	ecx
	mov	r8d, DWORD PTR [r13+184]
	lea	rax, QWORD PTR [rbx+rax*4]
	mov	QWORD PTR tv13839[rbp-256], rax
	mov	ebx, 1
	mov	eax, DWORD PTR [r13+24]
	shl	ebx, cl
	mov	ecx, r12d
	mov	DWORD PTR dictLimit$1$[rbp-256], eax
	dec	ebx
	add	rax, r15
	mov	QWORD PTR bt$1$[rbp-256], rdi
	mov	QWORD PTR prefixStart$1$[rbp-256], rax
	mov	eax, r14d
	sub	eax, ebx
	mov	DWORD PTR btMask$1$[rbp-256], ebx
	cmp	ebx, r14d
	mov	QWORD PTR commonLengthSmaller$1$[rsp], r12
	mov	QWORD PTR commonLengthLarger$1$[rbp-256], r12
	cmovb	ecx, eax
	mov	DWORD PTR tv13687[rsp], ecx
	mov	rcx, r13
	call	ZSTD_getLowestMatchIndex
	mov	r9d, eax
	mov	DWORD PTR windowLow$1$[rsp], eax

; 539  :     U32* smallerPtr = bt + 2*(current&btMask);

	mov	ecx, ebx
	test	r9d, r9d
	mov	eax, 1

; 556  :     U32         const dmsBtMask     = dictMode == ZSTD_dictMatchState ? (1U << dmsBtLog) - 1 : 0;

	mov	r8d, 1
	cmovne	eax, r9d
	and	ecx, r14d
	mov	DWORD PTR matchLow$1$[rbp-256], eax
	add	ecx, ecx
	lea	rax, QWORD PTR [rdi+rcx*4]
	mov	ecx, DWORD PTR [r13+196]
	mov	QWORD PTR smallerPtr$1$[rsp], rax
	mov	edi, r12d
	add	rax, 4
	mov	r12d, 1
	mov	QWORD PTR largerPtr$1$[rsp], rax
	lea	eax, DWORD PTR [r14+9]
	mov	DWORD PTR matchEndIdx$1$[rsp], eax
	shl	r12d, cl
	mov	rcx, QWORD PTR [r13+176]
	mov	QWORD PTR dms$1$[rbp-256], rcx
	mov	rax, QWORD PTR [rcx]
	mov	rdx, QWORD PTR [rcx+8]
	mov	r10d, eax
	sub	r10d, edx
	mov	QWORD PTR dmsEnd$1$[rbp-256], rax
	mov	eax, r9d
	mov	QWORD PTR dmsBase$1$[rbp-256], rdx
	mov	edx, DWORD PTR [rcx+28]
	sub	eax, r10d
	mov	DWORD PTR dmsIndexDelta$1$[rsp], eax
	mov	eax, DWORD PTR [rcx+192]
	mov	ecx, DWORD PTR [rcx+188]
	dec	ecx
	mov	DWORD PTR dmsHashLog$1$[rbp-256], eax
	shl	r8d, cl

; 557  :     U32         const dmsBtLow      = dictMode == ZSTD_dictMatchState && dmsBtMask < dmsHighLimit - dmsLowLimit ? dmsHighLimit - dmsBtMask : dmsLowLimit;

	mov	eax, r10d
	dec	r8d
	mov	DWORD PTR dmsHighLimit$1$[rbp-256], r10d
	sub	eax, edx
	mov	DWORD PTR dmsBtMask$1$[rbp-256], r8d

; 558  : 
; 559  :     size_t bestLength = lengthToBeat-1;

	mov	ecx, r10d
	mov	DWORD PTR dmsLowLimit$1$[rsp], edx
	sub	ecx, r8d
	cmp	r8d, eax
	mov	eax, DWORD PTR minMatch$1$[rbp-256]
	dec	eax
	cmovae	ecx, edx
	mov	QWORD PTR tv13857[rbp-256], rax
	mov	edx, r14d
	mov	DWORD PTR tv13752[rbp-256], ecx
	mov	rcx, QWORD PTR rep$[rbp-256]
	mov	r13d, eax
	sub	edx, DWORD PTR dictLimit$1$[rbp-256]
	mov	QWORD PTR bestLength$1$[rsp], rax

; 560  :     DEBUGLOG(8, "ZSTD_insertBtAndGetAllMatches: current=%u", current);
; 561  : 
; 562  :     /* check repCode */
; 563  :     assert(ll0 <= 1);   /* necessarily 1 or 0 */
; 564  :     {   U32 const lastR = ZSTD_REP_NUM + ll0;

	mov	eax, DWORD PTR ll0$1$[rbp-256]

; 565  :         U32 repCode;
; 566  :         for (repCode = ll0; repCode < lastR; repCode++) {

	mov	ebx, eax
	mov	DWORD PTR tv13836[rbp-256], edx

; 560  :     DEBUGLOG(8, "ZSTD_insertBtAndGetAllMatches: current=%u", current);
; 561  : 
; 562  :     /* check repCode */
; 563  :     assert(ll0 <= 1);   /* necessarily 1 or 0 */
; 564  :     {   U32 const lastR = ZSTD_REP_NUM + ll0;

	lea	r15d, DWORD PTR [rax+3]
	lea	r14, QWORD PTR [rcx+rax*4]
$LL474@ZSTD_compr:

; 567  :             U32 const repOffset = (repCode==ZSTD_REP_NUM) ? (rep[0] - 1) : rep[repCode];

	cmp	ebx, 3
	jne	SHORT $LN541@ZSTD_compr
	mov	ecx, DWORD PTR [rcx]
	dec	ecx
	jmp	SHORT $LN542@ZSTD_compr
$LN541@ZSTD_compr:
	mov	ecx, DWORD PTR [r14]
$LN542@ZSTD_compr:

; 568  :             U32 const repIndex = current - repOffset;

	mov	r10d, DWORD PTR current$1$[rsp]

; 570  :             assert(current >= dictLimit);
; 571  :             if (repOffset-1 /* intentional overflow, discards 0 and -1 */ < current-dictLimit) {  /* equivalent to `current > repIndex >= dictLimit` */

	lea	r11d, DWORD PTR [rcx-1]
	sub	r10d, ecx
	xor	r8d, r8d
	cmp	r11d, edx
	jae	SHORT $LN479@ZSTD_compr

; 330  :     case 4 : return MEM_read32(memPtr);

	mov	r11, QWORD PTR ip$1$[rsp]

; 575  :                 if ((repIndex >= windowLow) & (ZSTD_readMINMATCH(ip, minMatch) == ZSTD_readMINMATCH(ip - repOffset, minMatch))) {

	mov	edx, ecx
	xor	ecx, ecx
	neg	rdx

; 330  :     case 4 : return MEM_read32(memPtr);

	mov	eax, DWORD PTR [r11]

; 575  :                 if ((repIndex >= windowLow) & (ZSTD_readMINMATCH(ip, minMatch) == ZSTD_readMINMATCH(ip - repOffset, minMatch))) {

	cmp	eax, DWORD PTR [rdx+r11]
	sete	cl
	xor	eax, eax
	cmp	r10d, r9d
	setae	al
	test	ecx, eax
	je	$LN483@ZSTD_compr

; 576  :                     repLen = (U32)ZSTD_count(ip+minMatch, ip+minMatch-repOffset, iLimit) + minMatch;

	mov	r8, QWORD PTR iend$1$[rsp]
	lea	rcx, QWORD PTR [r11+4]
	add	rdx, 4
	add	rdx, r11
	call	ZSTD_count
	lea	r8d, DWORD PTR [rax+4]

; 577  :                 }
; 578  :             } else {  /* repIndex < dictLimit || repIndex >= current */

	jmp	SHORT $LN1984@ZSTD_compr
$LN479@ZSTD_compr:

; 579  :                 const BYTE* const repMatch = dictMode == ZSTD_dictMatchState ?

	mov	ecx, DWORD PTR dmsIndexDelta$1$[rsp]

; 580  :                                              dmsBase + repIndex - dmsIndexDelta :
; 581  :                                              dictBase + repIndex;
; 582  :                 assert(current >= windowLow);
; 583  :                 if ( dictMode == ZSTD_extDict
; 584  :                   && ( ((repOffset-1) /*intentional overflow*/ < current - windowLow)  /* equivalent to `current > repIndex >= windowLow` */
; 585  :                      & (((U32)((dictLimit-1) - repIndex) >= 3) ) /* intentional overflow : do not test positions overlapping 2 memory segments */)
; 586  :                   && (ZSTD_readMINMATCH(ip, minMatch) == ZSTD_readMINMATCH(repMatch, minMatch)) ) {
; 587  :                     repLen = (U32)ZSTD_count_2segments(ip+minMatch, repMatch+minMatch, iLimit, dictEnd, prefixStart) + minMatch;
; 588  :                 }
; 589  :                 if (dictMode == ZSTD_dictMatchState
; 590  :                   && ( ((repOffset-1) /*intentional overflow*/ < current - (dmsLowLimit + dmsIndexDelta))  /* equivalent to `current > repIndex >= dmsLowLimit` */
; 591  :                      & ((U32)((dictLimit-1) - repIndex) >= 3) ) /* intentional overflow : do not test positions overlapping 2 memory segments */
; 592  :                   && (ZSTD_readMINMATCH(ip, minMatch) == ZSTD_readMINMATCH(repMatch, minMatch)) ) {

	xor	edx, edx
	mov	eax, DWORD PTR current$1$[rsp]
	sub	eax, ecx
	mov	r9d, r10d
	sub	eax, DWORD PTR dmsLowLimit$1$[rsp]
	sub	r9, rcx
	add	r9, QWORD PTR dmsBase$1$[rbp-256]
	mov	ecx, DWORD PTR dictLimit$1$[rbp-256]
	cmp	r11d, eax
	setb	dl
	sub	ecx, r10d
	xor	eax, eax
	dec	ecx
	cmp	ecx, 3
	setae	al
	test	edx, eax
	je	SHORT $LN1984@ZSTD_compr

; 330  :     case 4 : return MEM_read32(memPtr);

	mov	r11, QWORD PTR ip$1$[rsp]
	mov	eax, DWORD PTR [r11]

; 592  :                   && (ZSTD_readMINMATCH(ip, minMatch) == ZSTD_readMINMATCH(repMatch, minMatch)) ) {

	cmp	eax, DWORD PTR [r9]
	jne	SHORT $LN1983@ZSTD_compr

; 593  :                     repLen = (U32)ZSTD_count_2segments(ip+minMatch, repMatch+minMatch, iLimit, dmsEnd, prefixStart) + minMatch;

	mov	rax, QWORD PTR prefixStart$1$[rbp-256]
	lea	rdx, QWORD PTR [r9+4]
	mov	r9, QWORD PTR dmsEnd$1$[rbp-256]
	lea	rcx, QWORD PTR [r11+4]
	mov	r8, QWORD PTR iend$1$[rsp]
	mov	QWORD PTR [rsp+32], rax
	call	ZSTD_count_2segments
	lea	r8d, DWORD PTR [rax+4]
$LN1984@ZSTD_compr:

; 594  :             }   }
; 595  :             /* save longer solution */
; 596  :             if (repLen > bestLength) {

	mov	r11, QWORD PTR ip$1$[rsp]
$LN1983@ZSTD_compr:
	mov	r9d, DWORD PTR windowLow$1$[rsp]
$LN483@ZSTD_compr:
	mov	r10, QWORD PTR iend$1$[rsp]
	mov	edx, r8d
	cmp	rdx, r13
	jbe	SHORT $LN472@ZSTD_compr

; 597  :                 DEBUGLOG(8, "found repCode %u (ll0:%u, offset:%u) of length %u",
; 598  :                             repCode, ll0, repOffset, repLen);
; 599  :                 bestLength = repLen;
; 600  :                 matches[mnum].off = repCode - ll0;

	mov	rcx, QWORD PTR matches$1$[rbp-256]
	mov	r13d, edx
	mov	eax, edi

; 601  :                 matches[mnum].len = (U32)repLen;
; 602  :                 mnum++;

	inc	edi
	lea	rcx, QWORD PTR [rcx+rax*8]
	mov	eax, ebx
	mov	DWORD PTR [rcx+4], r8d
	sub	eax, DWORD PTR ll0$1$[rbp-256]
	mov	DWORD PTR [rcx], eax

; 603  :                 if ( (repLen > sufficient_len)
; 604  :                    | (ip+repLen == iLimit) ) {  /* best possible */

	lea	rax, QWORD PTR [r8+r11]
	xor	ecx, ecx
	mov	QWORD PTR bestLength$1$[rsp], rdx
	cmp	rax, r10
	sete	cl
	xor	eax, eax
	cmp	r8d, DWORD PTR sufficient_len$1$[rbp-256]
	seta	al
	or	ecx, eax
	jne	$LN131@ZSTD_compr
$LN472@ZSTD_compr:

; 565  :         U32 repCode;
; 566  :         for (repCode = ll0; repCode < lastR; repCode++) {

	mov	edx, DWORD PTR tv13836[rbp-256]
	inc	ebx
	mov	rcx, QWORD PTR rep$[rbp-256]
	add	r14, 4
	cmp	ebx, r15d
	jb	$LL474@ZSTD_compr

; 636  :         }   }   }
; 637  :         /* no dictMatchState lookup: dicts don't have a populated HC3 table */
; 638  :     }
; 639  : 
; 640  :     hashTable[h] = current;   /* Update Hash Table */

	mov	rcx, QWORD PTR tv13839[rbp-256]
	mov	eax, DWORD PTR current$1$[rsp]
	mov	DWORD PTR [rcx], eax

; 641  : 
; 642  :     while (nbCompares-- && (matchIndex >= matchLow)) {

	test	r12d, r12d
	je	$LN1773@ZSTD_compr
	npad	3
$LL475@ZSTD_compr:
	dec	r12d
	cmp	esi, DWORD PTR matchLow$1$[rbp-256]
	jb	$LN1974@ZSTD_compr

; 643  :         U32* const nextPtr = bt + 2*(matchIndex & btMask);

	mov	eax, DWORD PTR btMask$1$[rbp-256]

; 644  :         const BYTE* match;
; 645  :         size_t matchLength = MIN(commonLengthSmaller, commonLengthLarger);   /* guaranteed minimum nb of common bytes */
; 646  :         assert(current > matchIndex);
; 647  : 
; 648  :         if ((dictMode == ZSTD_noDict) || (dictMode == ZSTD_dictMatchState) || (matchIndex+matchLength >= dictLimit)) {
; 649  :             assert(matchIndex+matchLength >= dictLimit);  /* ensure the condition is correct when !extDict */
; 650  :             match = base + matchIndex;
; 651  :             if (matchIndex >= dictLimit) assert(memcmp(match, ip, matchLength) == 0);  /* ensure early section of match is equal as expected */
; 652  :             matchLength += ZSTD_count(ip+matchLength, match+matchLength, iLimit);

	mov	r8, r10
	mov	rcx, QWORD PTR bt$1$[rbp-256]
	and	eax, esi
	add	eax, eax
	mov	r14d, esi
	lea	r15, QWORD PTR [rcx+rax*4]
	mov	rcx, QWORD PTR commonLengthLarger$1$[rbp-256]
	cmp	QWORD PTR commonLengthSmaller$1$[rsp], rcx
	mov	rbx, rcx
	cmovb	rbx, QWORD PTR commonLengthSmaller$1$[rsp]
	add	r14, QWORD PTR base$1$[rbp-256]
	lea	rcx, QWORD PTR [rbx+r11]
	lea	rdx, QWORD PTR [r14+rbx]
	call	ZSTD_count
	add	rbx, rax

; 653  :         } else {
; 654  :             match = dictBase + matchIndex;
; 655  :             assert(memcmp(match, ip, matchLength) == 0);  /* ensure early section of match is equal as expected */
; 656  :             matchLength += ZSTD_count_2segments(ip+matchLength, match+matchLength, iLimit, dictEnd, prefixStart);
; 657  :             if (matchIndex+matchLength >= dictLimit)
; 658  :                 match = base + matchIndex;   /* prepare for match[matchLength] read */
; 659  :         }
; 660  : 
; 661  :         if (matchLength > bestLength) {

	cmp	rbx, r13
	jbe	SHORT $LN2008@ZSTD_compr

; 662  :             DEBUGLOG(8, "found match of length %u at distance %u (offCode=%u)",
; 663  :                     (U32)matchLength, current - matchIndex, current - matchIndex + ZSTD_REP_MOVE);
; 664  :             assert(matchEndIdx > matchIndex);
; 665  :             if (matchLength > matchEndIdx - matchIndex)

	mov	eax, DWORD PTR matchEndIdx$1$[rsp]
	mov	edx, ebx
	sub	eax, esi
	cmp	rbx, rax
	jbe	SHORT $LN499@ZSTD_compr

; 666  :                 matchEndIdx = matchIndex + (U32)matchLength;

	lea	eax, DWORD PTR [rbx+rsi]
	mov	DWORD PTR matchEndIdx$1$[rsp], eax
$LN499@ZSTD_compr:

; 667  :             bestLength = matchLength;
; 668  :             matches[mnum].off = (current - matchIndex) + ZSTD_REP_MOVE;

	mov	rcx, QWORD PTR matches$1$[rbp-256]

; 669  :             matches[mnum].len = (U32)matchLength;
; 670  :             mnum++;
; 671  :             if ( (matchLength > ZSTD_OPT_NUM)
; 672  :                | (ip+matchLength == iLimit) /* equal : no way to know if inf or sup */) {

	xor	r9d, r9d
	mov	r11, QWORD PTR ip$1$[rsp]
	mov	r13, rbx
	mov	r10, QWORD PTR iend$1$[rsp]
	mov	eax, edi
	inc	edi
	lea	rcx, QWORD PTR [rcx+rax*8]
	mov	eax, DWORD PTR current$1$[rsp]
	sub	eax, esi
	mov	DWORD PTR [rcx+4], edx
	add	eax, 2
	mov	QWORD PTR bestLength$1$[rsp], rbx
	mov	DWORD PTR [rcx], eax
	lea	rax, QWORD PTR [rbx+r11]
	cmp	rax, r10
	mov	ecx, r9d
	mov	eax, r9d
	sete	cl
	cmp	rbx, 4096				; 00001000H
	seta	al
	or	ecx, eax
	jne	$LN1716@ZSTD_compr

; 653  :         } else {
; 654  :             match = dictBase + matchIndex;
; 655  :             assert(memcmp(match, ip, matchLength) == 0);  /* ensure early section of match is equal as expected */
; 656  :             matchLength += ZSTD_count_2segments(ip+matchLength, match+matchLength, iLimit, dictEnd, prefixStart);
; 657  :             if (matchIndex+matchLength >= dictLimit)
; 658  :                 match = base + matchIndex;   /* prepare for match[matchLength] read */
; 659  :         }
; 660  : 
; 661  :         if (matchLength > bestLength) {

	jmp	SHORT $LN500@ZSTD_compr
$LN2008@ZSTD_compr:
	mov	r10, QWORD PTR iend$1$[rsp]
	xor	r9d, r9d
	mov	r11, QWORD PTR ip$1$[rsp]
$LN500@ZSTD_compr:

; 675  :             }
; 676  :         }
; 677  : 
; 678  :         if (match[matchLength] < ip[matchLength]) {

	movzx	eax, BYTE PTR [rbx+r11]
	cmp	BYTE PTR [r14+rbx], al
	jae	SHORT $LN502@ZSTD_compr

; 679  :             /* match smaller than current */
; 680  :             *smallerPtr = matchIndex;             /* update smaller idx */

	mov	rax, QWORD PTR smallerPtr$1$[rsp]

; 681  :             commonLengthSmaller = matchLength;    /* all smaller will now have at least this guaranteed common length */

	mov	QWORD PTR commonLengthSmaller$1$[rsp], rbx
	mov	DWORD PTR [rax], esi

; 682  :             if (matchIndex <= btLow) { smallerPtr=&dummy32; break; }   /* beyond tree size, stop the search */

	cmp	esi, DWORD PTR tv13687[rsp]
	jbe	$LN1729@ZSTD_compr

; 683  :             smallerPtr = nextPtr+1;               /* new candidate => larger than match, which was smaller than current */

	add	r15, 4
	mov	QWORD PTR smallerPtr$1$[rsp], r15

; 685  :         } else {

	jmp	SHORT $LN2040@ZSTD_compr
$LN502@ZSTD_compr:

; 686  :             *largerPtr = matchIndex;

	mov	rcx, QWORD PTR largerPtr$1$[rsp]

; 687  :             commonLengthLarger = matchLength;

	mov	QWORD PTR commonLengthLarger$1$[rbp-256], rbx
	mov	DWORD PTR [rcx], esi

; 688  :             if (matchIndex <= btLow) { largerPtr=&dummy32; break; }   /* beyond tree size, stop the search */

	cmp	esi, DWORD PTR tv13687[rsp]
	jbe	$LN1730@ZSTD_compr

; 689  :             largerPtr = nextPtr;

	mov	QWORD PTR largerPtr$1$[rsp], r15
$LN2040@ZSTD_compr:

; 641  : 
; 642  :     while (nbCompares-- && (matchIndex >= matchLow)) {

	mov	esi, DWORD PTR [r15]
	test	r12d, r12d
	jne	$LL475@ZSTD_compr
$LN1773@ZSTD_compr:
	dec	r12d
$LN1974@ZSTD_compr:

; 691  :     }   }
; 692  : 
; 693  :     *smallerPtr = *largerPtr = 0;

	xor	r9d, r9d
$LN2041@ZSTD_compr:
	mov	rax, QWORD PTR smallerPtr$1$[rsp]
$LN476@ZSTD_compr:
	mov	rcx, QWORD PTR largerPtr$1$[rsp]
	mov	DWORD PTR [rcx], r9d
	mov	DWORD PTR [rax], r9d

; 694  : 
; 695  :     if (dictMode == ZSTD_dictMatchState && nbCompares) {

	test	r12d, r12d
	je	$LN1963@ZSTD_compr

; 696  :         size_t const dmsH = ZSTD_hashPtr(ip, dmsHashLog, mls);

	mov	edx, DWORD PTR dmsHashLog$1$[rbp-256]
	mov	r8d, 5
	mov	rcx, r11
	call	ZSTD_hashPtr

; 697  :         U32 dictMatchIndex = dms->hashTable[dmsH];

	mov	r8, QWORD PTR dms$1$[rbp-256]
	mov	rcx, QWORD PTR [r8+48]

; 698  :         const U32* const dmsBt = dms->chainTable;

	mov	r8, QWORD PTR [r8+64]
	mov	QWORD PTR dmsBt$1$[rbp-256], r8
	mov	r14d, DWORD PTR [rcx+rax*4]

; 699  :         commonLengthSmaller = commonLengthLarger = 0;

	xor	ecx, ecx
	xor	edx, edx
	mov	QWORD PTR commonLengthLarger$2$[rbp-256], rcx
	mov	QWORD PTR commonLengthSmaller$2$[rsp], rdx
	npad	10
$LL477@ZSTD_compr:

; 700  :         while (nbCompares-- && (dictMatchIndex > dmsLowLimit)) {

	dec	r12d
	cmp	r14d, DWORD PTR dmsLowLimit$1$[rsp]
	jbe	$LN1963@ZSTD_compr

; 703  :             const BYTE* match = dmsBase + dictMatchIndex;

	mov	rsi, QWORD PTR dmsBase$1$[rbp-256]
	mov	rbx, rcx

; 704  :             matchLength += ZSTD_count_2segments(ip+matchLength, match+matchLength, iLimit, dmsEnd, prefixStart);

	mov	r9, QWORD PTR dmsEnd$1$[rbp-256]
	mov	eax, r14d
	and	eax, DWORD PTR dmsBtMask$1$[rbp-256]
	add	eax, eax
	mov	r15d, r14d
	cmp	rdx, rcx
	mov	rcx, QWORD PTR ip$1$[rsp]
	cmovb	rbx, rdx
	add	rsi, r15
	lea	r13, QWORD PTR [r8+rax*4]
	add	rcx, rbx
	mov	rax, QWORD PTR prefixStart$1$[rbp-256]
	mov	r8, QWORD PTR iend$1$[rsp]
	lea	rdx, QWORD PTR [rsi+rbx]
	mov	QWORD PTR [rsp+32], rax
	call	ZSTD_count_2segments
	add	rbx, rax

; 705  :             if (dictMatchIndex+matchLength >= dmsHighLimit)

	mov	eax, DWORD PTR dmsHighLimit$1$[rbp-256]
	lea	rcx, QWORD PTR [r15+rbx]
	cmp	rcx, rax
	jb	SHORT $LN1987@ZSTD_compr

; 706  :                 match = base + dictMatchIndex + dmsIndexDelta;   /* to prepare for next usage of match[matchLength] */

	mov	eax, DWORD PTR dmsIndexDelta$1$[rsp]
	lea	rsi, QWORD PTR [r15+rax]
	add	rsi, QWORD PTR base$1$[rbp-256]
	jmp	SHORT $LN507@ZSTD_compr
$LN1729@ZSTD_compr:

; 682  :             if (matchIndex <= btLow) { smallerPtr=&dummy32; break; }   /* beyond tree size, stop the search */

	lea	rax, QWORD PTR dummy32$14[rbp-256]
	jmp	$LN476@ZSTD_compr
$LN1730@ZSTD_compr:

; 688  :             if (matchIndex <= btLow) { largerPtr=&dummy32; break; }   /* beyond tree size, stop the search */

	lea	rax, QWORD PTR dummy32$14[rbp-256]
	mov	QWORD PTR largerPtr$1$[rsp], rax
	jmp	$LN2041@ZSTD_compr
$LN1987@ZSTD_compr:

; 705  :             if (dictMatchIndex+matchLength >= dmsHighLimit)

	mov	eax, DWORD PTR dmsIndexDelta$1$[rsp]
$LN507@ZSTD_compr:

; 707  : 
; 708  :             if (matchLength > bestLength) {

	cmp	rbx, QWORD PTR bestLength$1$[rsp]
	jbe	SHORT $LN2026@ZSTD_compr

; 709  :                 matchIndex = dictMatchIndex + dmsIndexDelta;

	lea	edx, DWORD PTR [r14+rax]

; 710  :                 DEBUGLOG(8, "found dms match of length %u at distance %u (offCode=%u)",
; 711  :                         (U32)matchLength, current - matchIndex, current - matchIndex + ZSTD_REP_MOVE);
; 712  :                 if (matchLength > matchEndIdx - matchIndex)

	mov	eax, DWORD PTR matchEndIdx$1$[rsp]
	sub	eax, edx
	cmp	rbx, rax
	jbe	SHORT $LN1847@ZSTD_compr

; 713  :                     matchEndIdx = matchIndex + (U32)matchLength;

	lea	eax, DWORD PTR [rbx+rdx]
	mov	DWORD PTR matchEndIdx$1$[rsp], eax
$LN1847@ZSTD_compr:

; 714  :                 bestLength = matchLength;
; 715  :                 matches[mnum].off = (current - matchIndex) + ZSTD_REP_MOVE;

	mov	rcx, QWORD PTR matches$1$[rbp-256]
	mov	eax, edi

; 716  :                 matches[mnum].len = (U32)matchLength;
; 717  :                 mnum++;

	inc	edi
	lea	rcx, QWORD PTR [rcx+rax*8]
	mov	eax, DWORD PTR current$1$[rsp]
	sub	eax, edx
	mov	DWORD PTR [rcx+4], ebx

; 718  :                 if ( (matchLength > ZSTD_OPT_NUM)
; 719  :                    | (ip+matchLength == iLimit) /* equal : no way to know if inf or sup */) {

	mov	rdx, QWORD PTR ip$1$[rsp]
	add	eax, 2
	mov	DWORD PTR [rcx], eax
	xor	ecx, ecx
	mov	QWORD PTR bestLength$1$[rsp], rbx
	lea	rax, QWORD PTR [rbx+rdx]
	cmp	rax, QWORD PTR iend$1$[rsp]
	sete	cl
	xor	eax, eax
	cmp	rbx, 4096				; 00001000H
	seta	al
	or	ecx, eax
	jne	$LN1963@ZSTD_compr

; 707  : 
; 708  :             if (matchLength > bestLength) {

	jmp	SHORT $LN510@ZSTD_compr
$LN2026@ZSTD_compr:
	mov	rdx, QWORD PTR ip$1$[rsp]
$LN510@ZSTD_compr:

; 720  :                     break;   /* drop, to guarantee consistency (miss a little bit of compression) */
; 721  :                 }
; 722  :             }
; 723  : 
; 724  :             if (dictMatchIndex <= dmsBtLow) { break; }   /* beyond tree size, stop the search */

	cmp	r14d, DWORD PTR tv13752[rbp-256]
	jbe	$LN1963@ZSTD_compr

; 725  :             if (match[matchLength] < ip[matchLength]) {

	movzx	eax, BYTE PTR [rbx+rdx]
	cmp	BYTE PTR [rsi+rbx], al
	jae	SHORT $LN512@ZSTD_compr

; 726  :                 commonLengthSmaller = matchLength;    /* all smaller will now have at least this guaranteed common length */
; 727  :                 dictMatchIndex = nextPtr[1];              /* new matchIndex larger than previous (closer to current) */

	mov	r14d, DWORD PTR [r13+4]
	mov	rdx, rbx

; 728  :             } else {

	mov	rcx, QWORD PTR commonLengthLarger$2$[rbp-256]
	mov	QWORD PTR commonLengthSmaller$2$[rsp], rbx
	jmp	SHORT $LN513@ZSTD_compr
$LN512@ZSTD_compr:

; 731  :                 dictMatchIndex = nextPtr[0];

	mov	r14d, DWORD PTR [r13]
	mov	rcx, rbx
	mov	rdx, QWORD PTR commonLengthSmaller$2$[rsp]

; 729  :                 /* match is larger than current */
; 730  :                 commonLengthLarger = matchLength;

	mov	QWORD PTR commonLengthLarger$2$[rbp-256], rbx
$LN513@ZSTD_compr:

; 700  :         while (nbCompares-- && (dictMatchIndex > dmsLowLimit)) {

	mov	r8, QWORD PTR dmsBt$1$[rbp-256]
	test	r12d, r12d
	jne	$LL477@ZSTD_compr

; 761  :     case 5 : return ZSTD_insertBtAndGetAllMatches(matches, ms, nextToUpdate3, ip, iHighLimit, dictMode, rep, ll0, lengthToBeat, 5);

	jmp	$LN1963@ZSTD_compr
$LN122@ZSTD_compr:

; 520  :     U32 const sufficient_len = MIN(cParams->targetLength, ZSTD_OPT_NUM -1);

	mov	eax, DWORD PTR [r13+204]

; 522  :     U32 const current = (U32)(ip-base);

	mov	r15d, r9d
	mov	r12, QWORD PTR [r13+8]
	cmp	eax, ecx

; 523  :     U32 const hashLog = cParams->hashLog;
; 524  :     U32 const minMatch = (mls==3) ? 3 : 4;
; 525  :     U32* const hashTable = ms->hashTable;
; 526  :     size_t const h  = ZSTD_hashPtr(ip, hashLog, mls);

	mov	r8d, 3
	mov	QWORD PTR base$1$[rsp], r12
	cmovb	ecx, eax
	sub	r15d, r12d
	mov	DWORD PTR sufficient_len$1$[rsp], ecx
	mov	rcx, r9
	mov	DWORD PTR current$1$[rbp-256], r15d
	call	ZSTD_hashPtr

; 527  :     U32 matchIndex  = hashTable[h];

	mov	esi, DWORD PTR [rbx+rax*4]

; 530  :     U32 const btMask= (1U << btLog) - 1;
; 531  :     size_t commonLengthSmaller=0, commonLengthLarger=0;
; 532  :     const BYTE* const dictBase = ms->window.dictBase;
; 533  :     U32 const dictLimit = ms->window.dictLimit;
; 534  :     const BYTE* const dictEnd = dictBase + dictLimit;
; 535  :     const BYTE* const prefixStart = base + dictLimit;
; 536  :     U32 const btLow = (btMask >= current) ? 0 : current - btMask;
; 537  :     U32 const windowLow = ZSTD_getLowestMatchIndex(ms, current, cParams->windowLog);

	mov	edx, r15d
	mov	r14d, DWORD PTR [r13+24]
	mov	ecx, DWORD PTR [r13+188]
	mov	rdi, QWORD PTR [r13+64]
	lea	rax, QWORD PTR [rbx+rax*4]
	mov	r8d, DWORD PTR [r13+184]
	dec	ecx
	mov	QWORD PTR tv13829[rbp-256], rax
	mov	ebx, 1
	shl	ebx, cl
	lea	rax, QWORD PTR [r12+r14]
	xor	ecx, ecx
	mov	QWORD PTR prefixStart$1$[rbp-256], rax
	dec	ebx
	mov	QWORD PTR commonLengthSmaller$1$[rsp], rcx
	mov	QWORD PTR commonLengthLarger$1$[rbp-256], rcx
	mov	eax, r15d
	sub	eax, ebx
	mov	QWORD PTR bt$1$[rbp-256], rdi
	cmp	ebx, r15d
	mov	DWORD PTR btMask$1$[rbp-256], ebx
	mov	DWORD PTR dictLimit$1$[rbp-256], r14d
	cmovb	ecx, eax
	mov	DWORD PTR tv13686[rsp], ecx
	mov	rcx, r13
	call	ZSTD_getLowestMatchIndex
	mov	edx, eax
	mov	DWORD PTR windowLow$1$[rbp-256], eax

; 538  :     U32 const matchLow = windowLow ? windowLow : 1;

	test	edx, edx

; 539  :     U32* smallerPtr = bt + 2*(current&btMask);

	mov	ecx, ebx
	mov	eax, 1

; 544  :     U32 nbCompares = 1U << cParams->searchLog;

	mov	r12d, 1
	cmovne	eax, edx
	and	ecx, r15d
	add	ecx, ecx
	mov	DWORD PTR matchLow$1$[rsp], eax
	lea	rax, QWORD PTR [rdi+rcx*4]
	mov	ecx, DWORD PTR [r13+196]
	mov	QWORD PTR smallerPtr$1$[rsp], rax
	xor	edi, edi
	add	rax, 4
	shl	r12d, cl
	mov	QWORD PTR largerPtr$1$[rsp], rax
	lea	eax, DWORD PTR [r15+9]
	mov	DWORD PTR matchEndIdx$1$[rsp], eax

; 545  : 
; 546  :     const ZSTD_matchState_t* dms    = dictMode == ZSTD_dictMatchState ? ms->dictMatchState : NULL;

	mov	rax, QWORD PTR [r13+176]
	mov	QWORD PTR dms$1$[rbp-256], rax

; 547  :     const ZSTD_compressionParameters* const dmsCParams =
; 548  :                                       dictMode == ZSTD_dictMatchState ? &dms->cParams : NULL;
; 549  :     const BYTE* const dmsBase       = dictMode == ZSTD_dictMatchState ? dms->window.base : NULL;
; 550  :     const BYTE* const dmsEnd        = dictMode == ZSTD_dictMatchState ? dms->window.nextSrc : NULL;

	mov	rcx, QWORD PTR [rax]
	mov	r8, QWORD PTR [rax+8]

; 551  :     U32         const dmsHighLimit  = dictMode == ZSTD_dictMatchState ? (U32)(dmsEnd - dmsBase) : 0;

	mov	r9d, ecx
	sub	r9d, r8d
	mov	QWORD PTR dmsEnd$1$[rbp-256], rcx

; 552  :     U32         const dmsLowLimit   = dictMode == ZSTD_dictMatchState ? dms->window.lowLimit : 0;
; 553  :     U32         const dmsIndexDelta = dictMode == ZSTD_dictMatchState ? windowLow - dmsHighLimit : 0;
; 554  :     U32         const dmsHashLog    = dictMode == ZSTD_dictMatchState ? dmsCParams->hashLog : hashLog;

	mov	ecx, DWORD PTR [rax+192]
	sub	edx, r9d
	mov	DWORD PTR dmsIndexDelta$1$[rsp], edx

; 556  :     U32         const dmsBtMask     = dictMode == ZSTD_dictMatchState ? (1U << dmsBtLog) - 1 : 0;

	mov	edx, 1
	mov	DWORD PTR dmsHashLog$1$[rbp-256], ecx
	mov	ecx, DWORD PTR [rax+188]
	dec	ecx
	mov	QWORD PTR dmsBase$1$[rbp-256], r8
	mov	r8d, DWORD PTR [rax+28]

; 557  :     U32         const dmsBtLow      = dictMode == ZSTD_dictMatchState && dmsBtMask < dmsHighLimit - dmsLowLimit ? dmsHighLimit - dmsBtMask : dmsLowLimit;

	mov	eax, r9d
	shl	edx, cl
	dec	edx
	mov	DWORD PTR dmsHighLimit$1$[rbp-256], r9d
	mov	DWORD PTR dmsBtMask$1$[rbp-256], edx
	sub	eax, r8d
	mov	DWORD PTR dmsLowLimit$1$[rsp], r8d

; 558  : 
; 559  :     size_t bestLength = lengthToBeat-1;

	mov	ecx, r9d
	sub	ecx, edx
	cmp	edx, eax
	mov	eax, DWORD PTR minMatch$1$[rbp-256]
	dec	eax
	mov	edx, r15d
	cmovae	ecx, r8d
	mov	QWORD PTR tv13857[rbp-256], rax
	sub	edx, r14d
	mov	QWORD PTR bestLength$1$[rbp-256], rax
	mov	r13d, eax
	mov	DWORD PTR tv13748[rbp-256], ecx

; 560  :     DEBUGLOG(8, "ZSTD_insertBtAndGetAllMatches: current=%u", current);
; 561  : 
; 562  :     /* check repCode */
; 563  :     assert(ll0 <= 1);   /* necessarily 1 or 0 */
; 564  :     {   U32 const lastR = ZSTD_REP_NUM + ll0;

	mov	eax, DWORD PTR ll0$1$[rbp-256]
	mov	rcx, QWORD PTR rep$[rbp-256]

; 565  :         U32 repCode;
; 566  :         for (repCode = ll0; repCode < lastR; repCode++) {

	mov	ebx, eax
	mov	DWORD PTR tv13826[rbp-256], edx

; 560  :     DEBUGLOG(8, "ZSTD_insertBtAndGetAllMatches: current=%u", current);
; 561  : 
; 562  :     /* check repCode */
; 563  :     assert(ll0 <= 1);   /* necessarily 1 or 0 */
; 564  :     {   U32 const lastR = ZSTD_REP_NUM + ll0;

	lea	r11d, DWORD PTR [rax+3]
	mov	DWORD PTR lastR$1$[rbp-256], r11d
	lea	r14, QWORD PTR [rcx+rax*4]
	npad	6
$LL134@ZSTD_compr:

; 567  :             U32 const repOffset = (repCode==ZSTD_REP_NUM) ? (rep[0] - 1) : rep[repCode];

	cmp	ebx, 3
	jne	SHORT $LN201@ZSTD_compr
	mov	eax, DWORD PTR [rcx]
	dec	eax
	jmp	SHORT $LN202@ZSTD_compr
$LN201@ZSTD_compr:
	mov	eax, DWORD PTR [r14]
$LN202@ZSTD_compr:

; 568  :             U32 const repIndex = current - repOffset;

	mov	r10d, r15d

; 570  :             assert(current >= dictLimit);
; 571  :             if (repOffset-1 /* intentional overflow, discards 0 and -1 */ < current-dictLimit) {  /* equivalent to `current > repIndex >= dictLimit` */

	lea	ecx, DWORD PTR [rax-1]
	sub	r10d, eax
	xor	r8d, r8d
	cmp	ecx, edx
	jae	SHORT $LN139@ZSTD_compr

; 332  :                 return MEM_read32(memPtr)<<8;

	mov	rcx, QWORD PTR ip$1$[rsp]

; 575  :                 if ((repIndex >= windowLow) & (ZSTD_readMINMATCH(ip, minMatch) == ZSTD_readMINMATCH(ip - repOffset, minMatch))) {

	mov	r9d, eax
	neg	r9

; 332  :                 return MEM_read32(memPtr)<<8;

	mov	edx, DWORD PTR [rcx]
	shl	edx, 8
; File E:\dev\pyzstd\lib\common\mem.h

; 188  :     const union { U32 u; BYTE c[4]; } one = { 1 };   /* don't use static : performance detrimental  */

	mov	eax, DWORD PTR [r9+rcx]
; File E:\dev\pyzstd\lib\compress\zstd_opt.c

; 575  :                 if ((repIndex >= windowLow) & (ZSTD_readMINMATCH(ip, minMatch) == ZSTD_readMINMATCH(ip - repOffset, minMatch))) {

	xor	ecx, ecx

; 332  :                 return MEM_read32(memPtr)<<8;

	shl	eax, 8

; 575  :                 if ((repIndex >= windowLow) & (ZSTD_readMINMATCH(ip, minMatch) == ZSTD_readMINMATCH(ip - repOffset, minMatch))) {

	cmp	edx, eax
	sete	cl
	xor	eax, eax
	cmp	r10d, DWORD PTR windowLow$1$[rbp-256]
	setae	al
	test	ecx, eax
	je	$LN2030@ZSTD_compr

; 576  :                     repLen = (U32)ZSTD_count(ip+minMatch, ip+minMatch-repOffset, iLimit) + minMatch;

	mov	rax, QWORD PTR ip$1$[rsp]
	mov	r8, QWORD PTR iend$1$[rsp]
	lea	rdx, QWORD PTR [rax+3]
	add	rdx, r9
	lea	rcx, QWORD PTR [rax+3]
	call	ZSTD_count
	lea	r8d, DWORD PTR [rax+3]

; 577  :                 }
; 578  :             } else {  /* repIndex < dictLimit || repIndex >= current */

	jmp	SHORT $LN2051@ZSTD_compr
$LN139@ZSTD_compr:

; 579  :                 const BYTE* const repMatch = dictMode == ZSTD_dictMatchState ?

	mov	edx, DWORD PTR dmsIndexDelta$1$[rsp]

; 580  :                                              dmsBase + repIndex - dmsIndexDelta :
; 581  :                                              dictBase + repIndex;
; 582  :                 assert(current >= windowLow);
; 583  :                 if ( dictMode == ZSTD_extDict
; 584  :                   && ( ((repOffset-1) /*intentional overflow*/ < current - windowLow)  /* equivalent to `current > repIndex >= windowLow` */
; 585  :                      & (((U32)((dictLimit-1) - repIndex) >= 3) ) /* intentional overflow : do not test positions overlapping 2 memory segments */)
; 586  :                   && (ZSTD_readMINMATCH(ip, minMatch) == ZSTD_readMINMATCH(repMatch, minMatch)) ) {
; 587  :                     repLen = (U32)ZSTD_count_2segments(ip+minMatch, repMatch+minMatch, iLimit, dictEnd, prefixStart) + minMatch;
; 588  :                 }
; 589  :                 if (dictMode == ZSTD_dictMatchState
; 590  :                   && ( ((repOffset-1) /*intentional overflow*/ < current - (dmsLowLimit + dmsIndexDelta))  /* equivalent to `current > repIndex >= dmsLowLimit` */
; 591  :                      & ((U32)((dictLimit-1) - repIndex) >= 3) ) /* intentional overflow : do not test positions overlapping 2 memory segments */
; 592  :                   && (ZSTD_readMINMATCH(ip, minMatch) == ZSTD_readMINMATCH(repMatch, minMatch)) ) {

	mov	eax, r15d
	sub	eax, edx
	mov	r9d, r10d
	sub	eax, DWORD PTR dmsLowLimit$1$[rsp]
	sub	r9, rdx
	add	r9, QWORD PTR dmsBase$1$[rbp-256]
	xor	edx, edx
	cmp	ecx, eax
	mov	ecx, DWORD PTR dictLimit$1$[rbp-256]
	setb	dl
	sub	ecx, r10d
	xor	eax, eax
	dec	ecx
	cmp	ecx, 3
	setae	al
	test	edx, eax
	je	SHORT $LN2030@ZSTD_compr

; 332  :                 return MEM_read32(memPtr)<<8;

	mov	r10, QWORD PTR ip$1$[rsp]
; File E:\dev\pyzstd\lib\common\mem.h

; 188  :     const union { U32 u; BYTE c[4]; } one = { 1 };   /* don't use static : performance detrimental  */

	mov	eax, DWORD PTR [r9]
; File E:\dev\pyzstd\lib\compress\zstd_opt.c

; 332  :                 return MEM_read32(memPtr)<<8;

	shl	eax, 8
	mov	ecx, DWORD PTR [r10]
	shl	ecx, 8

; 592  :                   && (ZSTD_readMINMATCH(ip, minMatch) == ZSTD_readMINMATCH(repMatch, minMatch)) ) {

	cmp	ecx, eax
	jne	SHORT $LN143@ZSTD_compr

; 593  :                     repLen = (U32)ZSTD_count_2segments(ip+minMatch, repMatch+minMatch, iLimit, dmsEnd, prefixStart) + minMatch;

	mov	rax, QWORD PTR prefixStart$1$[rbp-256]
	lea	rdx, QWORD PTR [r9+3]
	mov	r9, QWORD PTR dmsEnd$1$[rbp-256]
	lea	rcx, QWORD PTR [r10+3]
	mov	r8, QWORD PTR iend$1$[rsp]
	mov	QWORD PTR [rsp+32], rax
	call	ZSTD_count_2segments
	lea	r8d, DWORD PTR [rax+3]
$LN2051@ZSTD_compr:

; 594  :             }   }
; 595  :             /* save longer solution */
; 596  :             if (repLen > bestLength) {

	mov	r11d, DWORD PTR lastR$1$[rbp-256]
$LN2030@ZSTD_compr:
	mov	r10, QWORD PTR ip$1$[rsp]
$LN143@ZSTD_compr:
	mov	r9, QWORD PTR iend$1$[rsp]
	mov	edx, r8d
	cmp	rdx, r13
	jbe	SHORT $LN132@ZSTD_compr

; 597  :                 DEBUGLOG(8, "found repCode %u (ll0:%u, offset:%u) of length %u",
; 598  :                             repCode, ll0, repOffset, repLen);
; 599  :                 bestLength = repLen;
; 600  :                 matches[mnum].off = repCode - ll0;

	mov	rcx, QWORD PTR matches$1$[rbp-256]
	mov	eax, ebx
	sub	eax, DWORD PTR ll0$1$[rbp-256]
	lea	rcx, QWORD PTR [rcx+rdi*8]
	mov	DWORD PTR [rcx], eax

; 601  :                 matches[mnum].len = (U32)repLen;
; 602  :                 mnum++;

	inc	edi
	mov	DWORD PTR [rcx+4], r8d

; 603  :                 if ( (repLen > sufficient_len)
; 604  :                    | (ip+repLen == iLimit) ) {  /* best possible */

	lea	rax, QWORD PTR [r8+r10]
	xor	ecx, ecx
	mov	QWORD PTR bestLength$1$[rbp-256], rdx
	cmp	rax, r9
	mov	r13d, edx
	sete	cl
	xor	eax, eax
	cmp	r8d, DWORD PTR sufficient_len$1$[rsp]
	seta	al
	or	ecx, eax
	jne	$LN131@ZSTD_compr
$LN132@ZSTD_compr:

; 565  :         U32 repCode;
; 566  :         for (repCode = ll0; repCode < lastR; repCode++) {

	inc	ebx
	add	r14, 4
	cmp	ebx, r11d
	jae	SHORT $LN1936@ZSTD_compr
	mov	edx, DWORD PTR tv13826[rbp-256]
	mov	rcx, QWORD PTR rep$[rbp-256]
	jmp	$LL134@ZSTD_compr
$LN1936@ZSTD_compr:

; 605  :                     return mnum;
; 606  :     }   }   }   }
; 607  : 
; 608  :     /* HC3 match finder */
; 609  :     if ((mls == 3) /*static*/ && (bestLength < mls)) {

	cmp	r13, 3
	jae	$LN1990@ZSTD_compr

; 610  :         U32 const matchIndex3 = ZSTD_insertAndFindFirstIndexHash3(ms, nextToUpdate3, ip);

	mov	r14, QWORD PTR ms$[rbp-256]
	lea	rdx, QWORD PTR nextToUpdate3$8[rbp-256]
	mov	rcx, r14
	mov	r8, r10
	call	ZSTD_insertAndFindFirstIndexHash3

; 611  :         if ((matchIndex3 >= matchLow)
; 612  :           & (current - matchIndex3 < (1<<18)) /*heuristic : longer distance likely too expensive*/ ) {

	mov	r8d, DWORD PTR matchLow$1$[rsp]
	xor	r11d, r11d
	mov	edx, r11d
	mov	ecx, r11d
	mov	ebx, r15d
	sub	ebx, eax
	cmp	eax, r8d
	setae	dl
	cmp	ebx, 262144				; 00040000H
	setb	cl
	test	edx, ecx
	je	SHORT $LN2011@ZSTD_compr

; 613  :             size_t mlen;
; 614  :             if ((dictMode == ZSTD_noDict) /*static*/ || (dictMode == ZSTD_dictMatchState) /*static*/ || (matchIndex3 >= dictLimit)) {
; 615  :                 const BYTE* const match = base + matchIndex3;
; 616  :                 mlen = ZSTD_count(ip, match, iLimit);

	mov	r8, QWORD PTR iend$1$[rsp]
	mov	rcx, QWORD PTR ip$1$[rsp]
	mov	edx, eax
	add	rdx, QWORD PTR base$1$[rsp]
	call	ZSTD_count

; 617  :             } else {
; 618  :                 const BYTE* const match = dictBase + matchIndex3;
; 619  :                 mlen = ZSTD_count_2segments(ip, match, iLimit, dictEnd, prefixStart);
; 620  :             }
; 621  : 
; 622  :             /* save best solution */
; 623  :             if (mlen >= mls /* == 3 > bestLength */) {

	mov	r10, QWORD PTR ip$1$[rsp]
	xor	r11d, r11d
	mov	r9, QWORD PTR iend$1$[rsp]
	cmp	rax, 3
	jb	SHORT $LN1991@ZSTD_compr

; 624  :                 DEBUGLOG(8, "found small match with hlog3, of length %u",
; 625  :                             (U32)mlen);
; 626  :                 bestLength = mlen;
; 627  :                 assert(current > matchIndex3);
; 628  :                 assert(mnum==0);  /* no prior solution */
; 629  :                 matches[0].off = (current - matchIndex3) + ZSTD_REP_MOVE;

	mov	rdx, QWORD PTR matches$1$[rbp-256]
	lea	ecx, DWORD PTR [rbx+2]

; 630  :                 matches[0].len = (U32)mlen;
; 631  :                 mnum = 1;
; 632  :                 if ( (mlen > sufficient_len) |

	mov	r8d, r11d
	mov	QWORD PTR bestLength$1$[rbp-256], rax
	mov	r13, rax
	lea	edi, QWORD PTR [r11+1]
	mov	DWORD PTR [rdx], ecx
	lea	rcx, QWORD PTR [rax+r10]
	cmp	rcx, r9
	mov	DWORD PTR [rdx+4], eax
	mov	ecx, DWORD PTR sufficient_len$1$[rsp]
	mov	edx, r11d
	sete	r8b
	cmp	rax, rcx
	seta	dl
	or	r8d, edx
	je	SHORT $LN1991@ZSTD_compr

; 633  :                      (ip+mlen == iLimit) ) {  /* best possible length */
; 634  :                     ms->nextToUpdate = current+1;  /* skip insertion */

	lea	eax, DWORD PTR [r15+1]
	mov	DWORD PTR [r14+36], eax

; 635  :                     return 1;

	jmp	$LN131@ZSTD_compr
$LN1990@ZSTD_compr:

; 605  :                     return mnum;
; 606  :     }   }   }   }
; 607  : 
; 608  :     /* HC3 match finder */
; 609  :     if ((mls == 3) /*static*/ && (bestLength < mls)) {

	mov	r8d, DWORD PTR matchLow$1$[rsp]
	xor	r11d, r11d
	jmp	SHORT $LN152@ZSTD_compr
$LN1991@ZSTD_compr:

; 636  :         }   }   }
; 637  :         /* no dictMatchState lookup: dicts don't have a populated HC3 table */
; 638  :     }
; 639  : 
; 640  :     hashTable[h] = current;   /* Update Hash Table */

	mov	r8d, DWORD PTR matchLow$1$[rsp]
	jmp	SHORT $LN152@ZSTD_compr
$LN2011@ZSTD_compr:

; 611  :         if ((matchIndex3 >= matchLow)
; 612  :           & (current - matchIndex3 < (1<<18)) /*heuristic : longer distance likely too expensive*/ ) {

	mov	r9, QWORD PTR iend$1$[rsp]
	mov	r10, QWORD PTR ip$1$[rsp]
$LN152@ZSTD_compr:

; 636  :         }   }   }
; 637  :         /* no dictMatchState lookup: dicts don't have a populated HC3 table */
; 638  :     }
; 639  : 
; 640  :     hashTable[h] = current;   /* Update Hash Table */

	mov	rax, QWORD PTR tv13829[rbp-256]
	mov	DWORD PTR [rax], r15d

; 641  : 
; 642  :     while (nbCompares-- && (matchIndex >= matchLow)) {

	test	r12d, r12d
	je	$LN1776@ZSTD_compr
$LL135@ZSTD_compr:
	dec	r12d
	cmp	esi, r8d
	jb	$LN1975@ZSTD_compr

; 643  :         U32* const nextPtr = bt + 2*(matchIndex & btMask);

	mov	eax, DWORD PTR btMask$1$[rbp-256]

; 644  :         const BYTE* match;
; 645  :         size_t matchLength = MIN(commonLengthSmaller, commonLengthLarger);   /* guaranteed minimum nb of common bytes */
; 646  :         assert(current > matchIndex);
; 647  : 
; 648  :         if ((dictMode == ZSTD_noDict) || (dictMode == ZSTD_dictMatchState) || (matchIndex+matchLength >= dictLimit)) {
; 649  :             assert(matchIndex+matchLength >= dictLimit);  /* ensure the condition is correct when !extDict */
; 650  :             match = base + matchIndex;
; 651  :             if (matchIndex >= dictLimit) assert(memcmp(match, ip, matchLength) == 0);  /* ensure early section of match is equal as expected */
; 652  :             matchLength += ZSTD_count(ip+matchLength, match+matchLength, iLimit);

	mov	r8, r9
	mov	rcx, QWORD PTR bt$1$[rbp-256]
	and	eax, esi
	add	eax, eax
	mov	r14d, esi
	lea	r15, QWORD PTR [rcx+rax*4]
	mov	rcx, QWORD PTR commonLengthLarger$1$[rbp-256]
	cmp	QWORD PTR commonLengthSmaller$1$[rsp], rcx
	mov	rbx, rcx
	cmovb	rbx, QWORD PTR commonLengthSmaller$1$[rsp]
	add	r14, QWORD PTR base$1$[rsp]
	lea	rcx, QWORD PTR [rbx+r10]
	lea	rdx, QWORD PTR [r14+rbx]
	call	ZSTD_count
	add	rbx, rax

; 653  :         } else {
; 654  :             match = dictBase + matchIndex;
; 655  :             assert(memcmp(match, ip, matchLength) == 0);  /* ensure early section of match is equal as expected */
; 656  :             matchLength += ZSTD_count_2segments(ip+matchLength, match+matchLength, iLimit, dictEnd, prefixStart);
; 657  :             if (matchIndex+matchLength >= dictLimit)
; 658  :                 match = base + matchIndex;   /* prepare for match[matchLength] read */
; 659  :         }
; 660  : 
; 661  :         if (matchLength > bestLength) {

	cmp	rbx, r13
	jbe	SHORT $LN2010@ZSTD_compr

; 662  :             DEBUGLOG(8, "found match of length %u at distance %u (offCode=%u)",
; 663  :                     (U32)matchLength, current - matchIndex, current - matchIndex + ZSTD_REP_MOVE);
; 664  :             assert(matchEndIdx > matchIndex);
; 665  :             if (matchLength > matchEndIdx - matchIndex)

	mov	eax, DWORD PTR matchEndIdx$1$[rsp]
	mov	edx, ebx
	sub	eax, esi
	cmp	rbx, rax
	jbe	SHORT $LN159@ZSTD_compr

; 666  :                 matchEndIdx = matchIndex + (U32)matchLength;

	lea	eax, DWORD PTR [rbx+rsi]
	mov	DWORD PTR matchEndIdx$1$[rsp], eax
$LN159@ZSTD_compr:

; 667  :             bestLength = matchLength;
; 668  :             matches[mnum].off = (current - matchIndex) + ZSTD_REP_MOVE;

	mov	rcx, QWORD PTR matches$1$[rbp-256]

; 669  :             matches[mnum].len = (U32)matchLength;
; 670  :             mnum++;
; 671  :             if ( (matchLength > ZSTD_OPT_NUM)
; 672  :                | (ip+matchLength == iLimit) /* equal : no way to know if inf or sup */) {

	xor	r11d, r11d
	mov	r10, QWORD PTR ip$1$[rsp]
	mov	r13, rbx
	mov	r9, QWORD PTR iend$1$[rsp]
	mov	eax, edi
	inc	edi
	lea	rcx, QWORD PTR [rcx+rax*8]
	mov	eax, DWORD PTR current$1$[rbp-256]
	sub	eax, esi
	mov	DWORD PTR [rcx+4], edx
	add	eax, 2
	mov	QWORD PTR bestLength$1$[rbp-256], rbx
	mov	DWORD PTR [rcx], eax
	lea	rax, QWORD PTR [rbx+r10]
	cmp	rax, r9
	mov	ecx, r11d
	mov	eax, r11d
	sete	cl
	cmp	rbx, 4096				; 00001000H
	seta	al
	or	ecx, eax
	je	SHORT $LN160@ZSTD_compr

; 673  :                 if (dictMode == ZSTD_dictMatchState) nbCompares = 0; /* break should also skip searching dms */

	mov	rcx, QWORD PTR largerPtr$1$[rsp]
	mov	rax, QWORD PTR smallerPtr$1$[rsp]
	mov	DWORD PTR [rcx], r11d
	mov	DWORD PTR [rax], r11d

; 674  :                 break; /* drop, to preserve bt consistency (miss a little bit of compression) */

	jmp	$LN1963@ZSTD_compr
$LN2010@ZSTD_compr:

; 653  :         } else {
; 654  :             match = dictBase + matchIndex;
; 655  :             assert(memcmp(match, ip, matchLength) == 0);  /* ensure early section of match is equal as expected */
; 656  :             matchLength += ZSTD_count_2segments(ip+matchLength, match+matchLength, iLimit, dictEnd, prefixStart);
; 657  :             if (matchIndex+matchLength >= dictLimit)
; 658  :                 match = base + matchIndex;   /* prepare for match[matchLength] read */
; 659  :         }
; 660  : 
; 661  :         if (matchLength > bestLength) {

	mov	r9, QWORD PTR iend$1$[rsp]
	xor	r11d, r11d
	mov	r10, QWORD PTR ip$1$[rsp]
$LN160@ZSTD_compr:

; 675  :             }
; 676  :         }
; 677  : 
; 678  :         if (match[matchLength] < ip[matchLength]) {

	movzx	eax, BYTE PTR [rbx+r10]
	cmp	BYTE PTR [r14+rbx], al
	jae	SHORT $LN162@ZSTD_compr

; 679  :             /* match smaller than current */
; 680  :             *smallerPtr = matchIndex;             /* update smaller idx */

	mov	rax, QWORD PTR smallerPtr$1$[rsp]

; 681  :             commonLengthSmaller = matchLength;    /* all smaller will now have at least this guaranteed common length */

	mov	QWORD PTR commonLengthSmaller$1$[rsp], rbx
	mov	DWORD PTR [rax], esi

; 682  :             if (matchIndex <= btLow) { smallerPtr=&dummy32; break; }   /* beyond tree size, stop the search */

	cmp	esi, DWORD PTR tv13686[rsp]
	jbe	SHORT $LN1735@ZSTD_compr

; 683  :             smallerPtr = nextPtr+1;               /* new candidate => larger than match, which was smaller than current */

	add	r15, 4
	mov	QWORD PTR smallerPtr$1$[rsp], r15

; 685  :         } else {

	jmp	SHORT $LN2042@ZSTD_compr
$LN162@ZSTD_compr:

; 686  :             *largerPtr = matchIndex;

	mov	rcx, QWORD PTR largerPtr$1$[rsp]

; 687  :             commonLengthLarger = matchLength;

	mov	QWORD PTR commonLengthLarger$1$[rbp-256], rbx
	mov	DWORD PTR [rcx], esi

; 688  :             if (matchIndex <= btLow) { largerPtr=&dummy32; break; }   /* beyond tree size, stop the search */

	cmp	esi, DWORD PTR tv13686[rsp]
	jbe	SHORT $LN1736@ZSTD_compr

; 689  :             largerPtr = nextPtr;

	mov	QWORD PTR largerPtr$1$[rsp], r15
$LN2042@ZSTD_compr:

; 641  : 
; 642  :     while (nbCompares-- && (matchIndex >= matchLow)) {

	mov	esi, DWORD PTR [r15]
	test	r12d, r12d
	je	SHORT $LN1776@ZSTD_compr
	mov	r8d, DWORD PTR matchLow$1$[rsp]
	jmp	$LL135@ZSTD_compr
$LN1735@ZSTD_compr:

; 682  :             if (matchIndex <= btLow) { smallerPtr=&dummy32; break; }   /* beyond tree size, stop the search */

	lea	rax, QWORD PTR dummy32$17[rbp-256]
	jmp	SHORT $LN136@ZSTD_compr
$LN1736@ZSTD_compr:

; 688  :             if (matchIndex <= btLow) { largerPtr=&dummy32; break; }   /* beyond tree size, stop the search */

	lea	rax, QWORD PTR dummy32$17[rbp-256]
	mov	QWORD PTR largerPtr$1$[rsp], rax
	jmp	SHORT $LN1975@ZSTD_compr
$LN1776@ZSTD_compr:

; 641  : 
; 642  :     while (nbCompares-- && (matchIndex >= matchLow)) {

	dec	r12d
$LN1975@ZSTD_compr:

; 691  :     }   }
; 692  : 
; 693  :     *smallerPtr = *largerPtr = 0;

	mov	rax, QWORD PTR smallerPtr$1$[rsp]
$LN136@ZSTD_compr:
	mov	rcx, QWORD PTR largerPtr$1$[rsp]
	mov	DWORD PTR [rcx], r11d
	mov	DWORD PTR [rax], r11d

; 694  : 
; 695  :     if (dictMode == ZSTD_dictMatchState && nbCompares) {

	test	r12d, r12d
	je	$LN1963@ZSTD_compr

; 696  :         size_t const dmsH = ZSTD_hashPtr(ip, dmsHashLog, mls);

	mov	edx, DWORD PTR dmsHashLog$1$[rbp-256]
	mov	r8d, 3
	mov	rcx, r10
	call	ZSTD_hashPtr

; 697  :         U32 dictMatchIndex = dms->hashTable[dmsH];

	mov	r8, QWORD PTR dms$1$[rbp-256]
	mov	rcx, QWORD PTR [r8+48]

; 698  :         const U32* const dmsBt = dms->chainTable;

	mov	r8, QWORD PTR [r8+64]
	mov	QWORD PTR dmsBt$1$[rbp-256], r8
	mov	r14d, DWORD PTR [rcx+rax*4]

; 699  :         commonLengthSmaller = commonLengthLarger = 0;

	xor	ecx, ecx
	xor	edx, edx
	mov	QWORD PTR commonLengthLarger$2$[rbp-256], rcx
	mov	QWORD PTR commonLengthSmaller$2$[rsp], rdx
	npad	8
$LL137@ZSTD_compr:

; 700  :         while (nbCompares-- && (dictMatchIndex > dmsLowLimit)) {

	dec	r12d
	cmp	r14d, DWORD PTR dmsLowLimit$1$[rsp]
	jbe	$LN1963@ZSTD_compr

; 703  :             const BYTE* match = dmsBase + dictMatchIndex;

	mov	rsi, QWORD PTR dmsBase$1$[rbp-256]
	mov	rbx, rcx

; 704  :             matchLength += ZSTD_count_2segments(ip+matchLength, match+matchLength, iLimit, dmsEnd, prefixStart);

	mov	r9, QWORD PTR dmsEnd$1$[rbp-256]
	mov	eax, r14d
	and	eax, DWORD PTR dmsBtMask$1$[rbp-256]
	add	eax, eax
	mov	r15d, r14d
	cmp	rdx, rcx
	mov	rcx, QWORD PTR ip$1$[rsp]
	cmovb	rbx, rdx
	add	rsi, r15
	lea	r13, QWORD PTR [r8+rax*4]
	add	rcx, rbx
	mov	rax, QWORD PTR prefixStart$1$[rbp-256]
	mov	r8, QWORD PTR iend$1$[rsp]
	lea	rdx, QWORD PTR [rsi+rbx]
	mov	QWORD PTR [rsp+32], rax
	call	ZSTD_count_2segments
	add	rbx, rax

; 705  :             if (dictMatchIndex+matchLength >= dmsHighLimit)

	mov	eax, DWORD PTR dmsHighLimit$1$[rbp-256]
	lea	rcx, QWORD PTR [r15+rbx]
	cmp	rcx, rax
	jb	SHORT $LN1989@ZSTD_compr

; 706  :                 match = base + dictMatchIndex + dmsIndexDelta;   /* to prepare for next usage of match[matchLength] */

	mov	eax, DWORD PTR dmsIndexDelta$1$[rsp]
	lea	rsi, QWORD PTR [r15+rax]
	add	rsi, QWORD PTR base$1$[rsp]
	jmp	SHORT $LN167@ZSTD_compr
$LN1989@ZSTD_compr:

; 705  :             if (dictMatchIndex+matchLength >= dmsHighLimit)

	mov	eax, DWORD PTR dmsIndexDelta$1$[rsp]
$LN167@ZSTD_compr:

; 707  : 
; 708  :             if (matchLength > bestLength) {

	cmp	rbx, QWORD PTR bestLength$1$[rbp-256]
	jbe	SHORT $LN2027@ZSTD_compr

; 709  :                 matchIndex = dictMatchIndex + dmsIndexDelta;

	lea	edx, DWORD PTR [r14+rax]

; 710  :                 DEBUGLOG(8, "found dms match of length %u at distance %u (offCode=%u)",
; 711  :                         (U32)matchLength, current - matchIndex, current - matchIndex + ZSTD_REP_MOVE);
; 712  :                 if (matchLength > matchEndIdx - matchIndex)

	mov	eax, DWORD PTR matchEndIdx$1$[rsp]
	sub	eax, edx
	cmp	rbx, rax
	jbe	SHORT $LN1849@ZSTD_compr

; 713  :                     matchEndIdx = matchIndex + (U32)matchLength;

	lea	eax, DWORD PTR [rbx+rdx]
	mov	DWORD PTR matchEndIdx$1$[rsp], eax
$LN1849@ZSTD_compr:

; 714  :                 bestLength = matchLength;
; 715  :                 matches[mnum].off = (current - matchIndex) + ZSTD_REP_MOVE;

	mov	rcx, QWORD PTR matches$1$[rbp-256]
	mov	eax, edi

; 716  :                 matches[mnum].len = (U32)matchLength;
; 717  :                 mnum++;

	inc	edi
	lea	rcx, QWORD PTR [rcx+rax*8]
	mov	eax, DWORD PTR current$1$[rbp-256]
	sub	eax, edx
	mov	DWORD PTR [rcx+4], ebx

; 718  :                 if ( (matchLength > ZSTD_OPT_NUM)
; 719  :                    | (ip+matchLength == iLimit) /* equal : no way to know if inf or sup */) {

	mov	rdx, QWORD PTR ip$1$[rsp]
	add	eax, 2
	mov	DWORD PTR [rcx], eax
	xor	ecx, ecx
	mov	QWORD PTR bestLength$1$[rbp-256], rbx
	lea	rax, QWORD PTR [rbx+rdx]
	cmp	rax, QWORD PTR iend$1$[rsp]
	sete	cl
	xor	eax, eax
	cmp	rbx, 4096				; 00001000H
	seta	al
	or	ecx, eax
	jne	SHORT $LN1963@ZSTD_compr

; 707  : 
; 708  :             if (matchLength > bestLength) {

	jmp	SHORT $LN170@ZSTD_compr
$LN2027@ZSTD_compr:
	mov	rdx, QWORD PTR ip$1$[rsp]
$LN170@ZSTD_compr:

; 720  :                     break;   /* drop, to guarantee consistency (miss a little bit of compression) */
; 721  :                 }
; 722  :             }
; 723  : 
; 724  :             if (dictMatchIndex <= dmsBtLow) { break; }   /* beyond tree size, stop the search */

	cmp	r14d, DWORD PTR tv13748[rbp-256]
	jbe	SHORT $LN1963@ZSTD_compr

; 725  :             if (match[matchLength] < ip[matchLength]) {

	movzx	eax, BYTE PTR [rbx+rdx]
	cmp	BYTE PTR [rsi+rbx], al
	jae	SHORT $LN172@ZSTD_compr

; 726  :                 commonLengthSmaller = matchLength;    /* all smaller will now have at least this guaranteed common length */
; 727  :                 dictMatchIndex = nextPtr[1];              /* new matchIndex larger than previous (closer to current) */

	mov	r14d, DWORD PTR [r13+4]
	mov	rdx, rbx

; 728  :             } else {

	mov	rcx, QWORD PTR commonLengthLarger$2$[rbp-256]
	mov	QWORD PTR commonLengthSmaller$2$[rsp], rbx
	jmp	SHORT $LN173@ZSTD_compr
$LN172@ZSTD_compr:

; 731  :                 dictMatchIndex = nextPtr[0];

	mov	r14d, DWORD PTR [r13]
	mov	rcx, rbx
	mov	rdx, QWORD PTR commonLengthSmaller$2$[rsp]

; 729  :                 /* match is larger than current */
; 730  :                 commonLengthLarger = matchLength;

	mov	QWORD PTR commonLengthLarger$2$[rbp-256], rbx
$LN173@ZSTD_compr:

; 700  :         while (nbCompares-- && (dictMatchIndex > dmsLowLimit)) {

	mov	r8, QWORD PTR dmsBt$1$[rbp-256]
	test	r12d, r12d
	jne	$LL137@ZSTD_compr
$LN1963@ZSTD_compr:

; 836  :             if (!nbMatches) { ip++; continue; }

	mov	rcx, QWORD PTR ms$[rbp-256]
	mov	eax, DWORD PTR matchEndIdx$1$[rsp]
	add	eax, -8					; fffffff8H
	mov	DWORD PTR [rcx+36], eax
$LN131@ZSTD_compr:
	test	edi, edi
	je	$LN2028@ZSTD_compr

; 837  : 
; 838  :             /* initialize opt[0] */
; 839  :             { U32 i ; for (i=0; i<ZSTD_REP_NUM; i++) opt[0].rep[i] = rep[i]; }

	mov	rcx, QWORD PTR opt$1$[rbp-256]

; 840  :             opt[0].mlen = 0;  /* means is_a_literal */

	xor	r15d, r15d
	mov	rsi, QWORD PTR rep$[rbp-256]

; 841  :             opt[0].litlen = litlen;
; 842  :             /* We don't need to include the actual price of the literals because
; 843  :              * it is static for the duration of the forward pass, and is included
; 844  :              * in every price. We include the literal length to avoid negative
; 845  :              * prices when we subtract the previous literal length.
; 846  :              */
; 847  :             opt[0].price = ZSTD_litLengthPrice(litlen, optStatePtr, optLevel);

	xor	r8d, r8d
	mov	ebx, DWORD PTR litlen$1$[rbp-256]
	mov	r13, QWORD PTR optStatePtr$1$[rbp-256]
	mov	rdx, r13
	mov	eax, DWORD PTR [rsi]
	mov	DWORD PTR [rcx+16], eax
	mov	eax, DWORD PTR [rsi+4]
	mov	DWORD PTR [rcx+20], eax
	mov	eax, DWORD PTR [rsi+8]
	mov	DWORD PTR [rcx+24], eax
	mov	DWORD PTR [rcx+8], r15d
	mov	DWORD PTR [rcx+12], ebx
	mov	ecx, ebx
	call	ZSTD_litLengthPrice
	mov	r10, QWORD PTR opt$1$[rbp-256]

; 848  : 
; 849  :             /* large match -> immediate encoding */
; 850  :             {   U32 const maxML = matches[nbMatches-1].len;

	mov	r14, QWORD PTR matches$1$[rbp-256]
	mov	DWORD PTR [r10], eax
	lea	eax, DWORD PTR [rdi-1]
	mov	ecx, eax
	mov	eax, DWORD PTR [r14+rax*8+4]

; 851  :                 U32 const maxOffset = matches[nbMatches-1].off;
; 852  :                 DEBUGLOG(6, "found %u matches of maxLength=%u and maxOffCode=%u at cPos=%u => start new series",
; 853  :                             nbMatches, maxML, maxOffset, (U32)(ip-prefixStart));
; 854  : 
; 855  :                 if (maxML > sufficient_len) {

	cmp	eax, DWORD PTR sufficient_len$1$[rbp-256]
	jbe	SHORT $LN35@ZSTD_compr

; 856  :                     lastSequence.litlen = litlen;
; 857  :                     lastSequence.mlen = maxML;

	mov	DWORD PTR lastSequence$9[rbp-248], eax

; 858  :                     lastSequence.off = maxOffset;

	mov	eax, DWORD PTR [r14+rcx*8]

; 859  :                     DEBUGLOG(6, "large match (%u>%u), immediate encoding",
; 860  :                                 maxML, sufficient_len);
; 861  :                     cur = 0;
; 862  :                     last_pos = ZSTD_totalLen(lastSequence);
; 863  :                     goto _shortestPath;

	mov	r14d, DWORD PTR lastSequence$5$[rbp-256]
	mov	DWORD PTR lastSequence$9[rbp-252], eax
	mov	DWORD PTR lastSequence$9[rbp-244], ebx
	movups	xmm2, XMMWORD PTR lastSequence$9[rbp-256]
	jmp	$LN2043@ZSTD_compr
$LN35@ZSTD_compr:

; 864  :             }   }
; 865  : 
; 866  :             /* set prices for first matches starting position == 0 */
; 867  :             {   U32 const literalsPrice = opt[0].price + ZSTD_litLengthPrice(0, optStatePtr, optLevel);

	xor	r8d, r8d
	mov	rdx, r13
	xor	ecx, ecx
	call	ZSTD_litLengthPrice
	mov	r10, QWORD PTR opt$1$[rbp-256]
	mov	rdx, QWORD PTR tv13857[rbp-256]
	mov	rcx, rdx
	mov	esi, DWORD PTR [r10]
	add	esi, eax
	lea	ebx, DWORD PTR [rdx+1]
	lea	rax, QWORD PTR [r10+28]
	npad	11
$LL11@ZSTD_compr:

; 868  :                 U32 pos;
; 869  :                 U32 matchNb;
; 870  :                 for (pos = 1; pos < minMatch; pos++) {
; 871  :                     opt[pos].price = ZSTD_MAX_PRICE;   /* mlen, litlen and price will be fixed during forward scanning */

	mov	DWORD PTR [rax], 1073741824		; 40000000H
	lea	rax, QWORD PTR [rax+28]
	sub	rcx, 1
	jne	SHORT $LL11@ZSTD_compr

; 872  :                 }
; 873  :                 for (matchNb = 0; matchNb < nbMatches; matchNb++) {

	test	edi, edi
	je	$LN13@ZSTD_compr

; 713  :                     matchEndIdx = matchIndex + (U32)matchLength;

	mov	eax, edi
	mov	r13, r14
	mov	QWORD PTR tv13874[rsp], rax
	mov	QWORD PTR tv13700[rsp], r14
	npad	9
$LL14@ZSTD_compr:

; 875  :                     U32 const end = matches[matchNb].len;

	mov	r15d, DWORD PTR [r13+4]
	mov	r14d, DWORD PTR [r13]

; 876  :                     for ( ; pos <= end ; pos++ ) {

	cmp	ebx, r15d
	ja	$LN12@ZSTD_compr
	mov	r13d, DWORD PTR litlen$1$[rbp-256]
	lea	r12d, DWORD PTR [r14+1]
	mov	r11, QWORD PTR optStatePtr$1$[rbp-256]
	npad	3
$LL17@ZSTD_compr:
; File E:\dev\pyzstd\lib\common\zstd_internal.h

; 397  :         unsigned long r=0;

	xor	edx, edx

; 398  :         return _BitScanReverse(&r, val) ? (unsigned)r : 0;

	bsr	eax, r12d
	mov	r8d, edx
	mov	DWORD PTR r$18[rbp-256], edx
; File E:\dev\pyzstd\lib\compress\zstd_opt.c

; 267  :     if (optPtr->priceType == zop_predef)  /* fixed scheme, do not use statistics */

	mov	DWORD PTR r$16[rbp-256], edx
; File E:\dev\pyzstd\lib\common\zstd_internal.h

; 398  :         return _BitScanReverse(&r, val) ? (unsigned)r : 0;

	cmovne	r8d, eax
; File E:\dev\pyzstd\lib\compress\zstd_opt.c

; 267  :     if (optPtr->priceType == zop_predef)  /* fixed scheme, do not use statistics */

	cmp	DWORD PTR [r11+80], 1
	jne	SHORT $LN856@ZSTD_compr
; File E:\dev\pyzstd\lib\common\zstd_internal.h

; 398  :         return _BitScanReverse(&r, val) ? (unsigned)r : 0;

	lea	eax, DWORD PTR [rbx-2]
	bsr	ecx, eax
	mov	eax, edx
; File E:\dev\pyzstd\lib\compress\zstd_opt.c

; 268  :         return WEIGHT(mlBase, optLevel) + ((16 + offCode) * BITCOST_MULTIPLIER);

	lea	edx, DWORD PTR [r8+16]
; File E:\dev\pyzstd\lib\common\zstd_internal.h

; 398  :         return _BitScanReverse(&r, val) ? (unsigned)r : 0;

	cmovne	eax, ecx
; File E:\dev\pyzstd\lib\compress\zstd_opt.c

; 268  :         return WEIGHT(mlBase, optLevel) + ((16 + offCode) * BITCOST_MULTIPLIER);

	add	edx, eax
	shl	edx, 8
	add	edx, esi
	jmp	$LN855@ZSTD_compr
$LN856@ZSTD_compr:

; 271  :     price = (offCode * BITCOST_MULTIPLIER) + (optPtr->offCodeSumBasePrice - WEIGHT(optPtr->offCodeFreq[offCode], optLevel));

	mov	rax, QWORD PTR [r11+24]
	mov	edi, r8d
	mov	eax, DWORD PTR [rax+r8*4]

; 43   :     return (ZSTD_highbit32(stat+1) * BITCOST_MULTIPLIER);

	inc	eax
; File E:\dev\pyzstd\lib\common\zstd_internal.h

; 398  :         return _BitScanReverse(&r, val) ? (unsigned)r : 0;

	bsr	ecx, eax
	mov	eax, edx
	cmovne	eax, ecx
; File E:\dev\pyzstd\lib\compress\zstd_opt.c

; 271  :     price = (offCode * BITCOST_MULTIPLIER) + (optPtr->offCodeSumBasePrice - WEIGHT(optPtr->offCodeFreq[offCode], optLevel));

	sub	edi, eax
	shl	edi, 8
	add	edi, DWORD PTR [r11+76]

; 272  :     if ((optLevel<2) /*static*/ && offCode >= 20)

	cmp	r8d, 20
	jb	SHORT $LN857@ZSTD_compr

; 273  :         price += (offCode-19)*2 * BITCOST_MULTIPLIER; /* handicap for long distance offsets, favor decompression speed */

	shl	r8d, 9
	add	edi, -9728				; ffffda00H
	add	edi, r8d
$LN857@ZSTD_compr:

; 276  :     {   U32 const mlCode = ZSTD_MLcode(mlBase);

	lea	ecx, DWORD PTR [rbx-3]
	call	ZSTD_MLcode

; 277  :         price += (ML_bits[mlCode] * BITCOST_MULTIPLIER) + (optPtr->matchLengthSumBasePrice - WEIGHT(optPtr->matchLengthFreq[mlCode], optLevel));

	mov	r11, QWORD PTR optStatePtr$1$[rbp-256]
; File E:\dev\pyzstd\lib\common\zstd_internal.h

; 397  :         unsigned long r=0;

	xor	r8d, r8d
	mov	r10, QWORD PTR opt$1$[rbp-256]
; File E:\dev\pyzstd\lib\compress\zstd_opt.c

; 276  :     {   U32 const mlCode = ZSTD_MLcode(mlBase);

	mov	eax, eax
; File E:\dev\pyzstd\lib\common\zstd_internal.h

; 397  :         unsigned long r=0;

	mov	DWORD PTR r$13[rbp-256], r8d
; File E:\dev\pyzstd\lib\compress\zstd_opt.c

; 277  :         price += (ML_bits[mlCode] * BITCOST_MULTIPLIER) + (optPtr->matchLengthSumBasePrice - WEIGHT(optPtr->matchLengthFreq[mlCode], optLevel));

	lea	rdx, QWORD PTR [rax*4]
	mov	rax, QWORD PTR [r11+16]
	mov	eax, DWORD PTR [rdx+rax]

; 43   :     return (ZSTD_highbit32(stat+1) * BITCOST_MULTIPLIER);

	inc	eax
; File E:\dev\pyzstd\lib\common\zstd_internal.h

; 398  :         return _BitScanReverse(&r, val) ? (unsigned)r : 0;

	bsr	ecx, eax
	mov	eax, r8d
	cmovne	eax, ecx
; File E:\dev\pyzstd\lib\compress\zstd_opt.c

; 283  :     return price;

	lea	rcx, OFFSET FLAT:ML_bits
	mov	edx, DWORD PTR [rdx+rcx]
	sub	edx, eax
	shl	edx, 8
	add	edx, 51					; 00000033H
	add	edx, DWORD PTR [r11+72]
	add	edx, esi
	add	edx, edi
$LN855@ZSTD_compr:

; 881  :                         opt[pos].mlen = pos;

	mov	eax, ebx
	imul	rcx, rax, 28
	mov	DWORD PTR [rcx+r10+8], ebx
	inc	ebx

; 882  :                         opt[pos].off = offset;

	mov	DWORD PTR [rcx+r10+4], r14d

; 883  :                         opt[pos].litlen = litlen;

	mov	DWORD PTR [rcx+r10+12], r13d

; 884  :                         opt[pos].price = sequencePrice;

	mov	DWORD PTR [rcx+r10], edx
	cmp	ebx, r15d
	jbe	$LL17@ZSTD_compr
	mov	r13, QWORD PTR tv13700[rsp]
	mov	rax, QWORD PTR tv13874[rsp]
$LN12@ZSTD_compr:

; 872  :                 }
; 873  :                 for (matchNb = 0; matchNb < nbMatches; matchNb++) {

	add	r13, 8
	sub	rax, 1
	mov	QWORD PTR tv13700[rsp], r13
	mov	QWORD PTR tv13874[rsp], rax
	jne	$LL14@ZSTD_compr
	mov	r13, QWORD PTR optStatePtr$1$[rbp-256]
$LN13@ZSTD_compr:

; 885  :                 }   }
; 886  :                 last_pos = pos-1;

	dec	ebx

; 887  :             }
; 888  :         }
; 889  : 
; 890  :         /* check further positions */
; 891  :         for (cur = 1; cur <= last_pos; cur++) {

	mov	r8d, 1
	mov	DWORD PTR seqPos$1$[rsp], ebx
	mov	DWORD PTR cur$1$[rbp-256], r8d
	cmp	ebx, r8d
	jb	$LN1943@ZSTD_compr
	npad	1
$LL20@ZSTD_compr:

; 892  :             const BYTE* const inr = ip + cur;

	mov	rsi, QWORD PTR ip$1$[rsp]

; 893  :             assert(cur < ZSTD_OPT_NUM);
; 894  :             DEBUGLOG(7, "cPos:%zi==rPos:%u", inr-istart, cur)
; 895  : 
; 896  :             /* Fix current position with one literal if cheaper */
; 897  :             {   U32 const litlen = (opt[cur-1].mlen == 0) ? opt[cur-1].litlen + 1 : 1;

	lea	r15d, DWORD PTR [r8-1]
	imul	rdi, r15, 28
	mov	r12d, r8d
	add	rsi, r12
	add	rdi, r10
	mov	QWORD PTR inr$1$[rbp-256], rsi
	cmp	DWORD PTR [rdi+8], 0
	jne	SHORT $LN57@ZSTD_compr
	mov	r14d, DWORD PTR [rdi+12]
	inc	r14d
	jmp	SHORT $LN58@ZSTD_compr
$LN57@ZSTD_compr:
	mov	r14d, 1
$LN58@ZSTD_compr:

; 898  :                 int const price = opt[cur-1].price

	lea	ecx, DWORD PTR [r14-1]
	xor	r8d, r8d
	mov	rdx, r13
	call	ZSTD_litLengthPrice
	mov	edi, DWORD PTR [rdi]
	lea	rcx, QWORD PTR [rsi-1]
	xor	r9d, r9d
	mov	r8, r13
	sub	edi, eax
	lea	edx, QWORD PTR [r9+1]
	call	ZSTD_rawLiteralsCost
	xor	r8d, r8d
	mov	rdx, r13
	mov	ecx, r14d
	add	edi, eax
	call	ZSTD_litLengthPrice

; 899  :                                 + ZSTD_rawLiteralsCost(ip+cur-1, 1, optStatePtr, optLevel)
; 900  :                                 + ZSTD_litLengthPrice(litlen, optStatePtr, optLevel)
; 901  :                                 - ZSTD_litLengthPrice(litlen-1, optStatePtr, optLevel);
; 902  :                 assert(price < 1000000000); /* overflow check */
; 903  :                 if (price <= opt[cur].price) {

	mov	r10, QWORD PTR opt$1$[rbp-256]
	add	eax, edi
	imul	rdi, r12, 28
	xor	r12d, r12d
	add	rdi, r10
	cmp	eax, DWORD PTR [rdi]
	jg	SHORT $LN1926@ZSTD_compr

; 904  :                     DEBUGLOG(7, "cPos:%zi==rPos:%u : better price (%.2f<=%.2f) using literal (ll==%u) (hist:%u,%u,%u)",
; 905  :                                 inr-istart, cur, ZSTD_fCost(price), ZSTD_fCost(opt[cur].price), litlen,
; 906  :                                 opt[cur-1].rep[0], opt[cur-1].rep[1], opt[cur-1].rep[2]);
; 907  :                     opt[cur].mlen = 0;
; 908  :                     opt[cur].off = 0;

	mov	QWORD PTR [rdi+4], r12

; 909  :                     opt[cur].litlen = litlen;

	mov	DWORD PTR [rdi+12], r14d

; 910  :                     opt[cur].price = price;

	mov	DWORD PTR [rdi], eax
$LN1926@ZSTD_compr:

; 911  :                 } else {
; 912  :                     DEBUGLOG(7, "cPos:%zi==rPos:%u : literal would cost more (%.2f>%.2f) (hist:%u,%u,%u)",
; 913  :                                 inr-istart, cur, ZSTD_fCost(price), ZSTD_fCost(opt[cur].price),
; 914  :                                 opt[cur].rep[0], opt[cur].rep[1], opt[cur].rep[2]);
; 915  :                 }
; 916  :             }
; 917  : 
; 918  :             /* Set the repcodes of the current position. We must do it here
; 919  :              * because we rely on the repcodes of the 2nd to last sequence being
; 920  :              * correct to set the next chunks repcodes during the backward
; 921  :              * traversal.
; 922  :              */
; 923  :             ZSTD_STATIC_ASSERT(sizeof(opt[cur].rep) == sizeof(repcodes_t));
; 924  :             assert(cur >= opt[cur].mlen);
; 925  :             if (opt[cur].mlen != 0) {

	mov	ecx, DWORD PTR [rdi+8]
	test	ecx, ecx
	je	SHORT $LN38@ZSTD_compr

; 926  :                 U32 const prev = cur - opt[cur].mlen;

	mov	eax, DWORD PTR cur$1$[rbp-256]

; 927  :                 repcodes_t newReps = ZSTD_updateRep(opt[prev].rep, opt[cur].off, opt[cur].litlen==0);

	lea	rdx, QWORD PTR [r10+16]
	cmp	DWORD PTR [rdi+12], 0
	mov	r9d, r12d
	mov	r8d, DWORD PTR [rdi+4]
	sete	r9b
	sub	eax, ecx
	imul	rcx, rax, 28
	add	rdx, rcx
	lea	rcx, QWORD PTR $T10[rbp-256]
	call	ZSTD_updateRep

; 928  :                 memcpy(opt[cur].rep, &newReps, sizeof(repcodes_t));
; 929  :             } else {

	mov	r10, QWORD PTR opt$1$[rbp-256]
	movsd	xmm0, QWORD PTR [rax]
	mov	ecx, DWORD PTR [rax+8]
	movsd	QWORD PTR [rdi+16], xmm0
	mov	DWORD PTR [rdi+24], ecx
	jmp	SHORT $LN39@ZSTD_compr
$LN38@ZSTD_compr:

; 930  :                 memcpy(opt[cur].rep, opt[cur - 1].rep, sizeof(repcodes_t));

	imul	rax, r15, 28
	movsd	xmm0, QWORD PTR [rax+r10+16]
	mov	eax, DWORD PTR [rax+r10+24]
	movsd	QWORD PTR [rdi+16], xmm0
	mov	DWORD PTR [rdi+24], eax
$LN39@ZSTD_compr:

; 931  :             }
; 932  : 
; 933  :             /* last match must start at a minimum distance of 8 from oend */
; 934  :             if (inr > ilimit) continue;

	mov	r8d, DWORD PTR cur$1$[rbp-256]
	cmp	rsi, QWORD PTR ilimit$1$[rbp-256]
	ja	$LN18@ZSTD_compr

; 935  : 
; 936  :             if (cur == last_pos) break;

	cmp	r8d, ebx
	je	$LN1943@ZSTD_compr

; 937  : 
; 938  :             if ( (optLevel==0) /*static_test*/
; 939  :               && (opt[cur+1].price <= opt[cur].price + (BITCOST_MULTIPLIER/2)) ) {

	mov	r14d, DWORD PTR [rdi]
	lea	ecx, DWORD PTR [r8+1]
	imul	rdx, rcx, 28
	lea	eax, DWORD PTR [r14+128]
	cmp	DWORD PTR [rdx+r10], eax
	jle	$LN18@ZSTD_compr

; 940  :                 DEBUGLOG(7, "move to next rPos:%u : price is <=", cur+1);
; 941  :                 continue;  /* skip unpromising positions; about ~+6% speed, -0.01 ratio */
; 942  :             }
; 943  : 
; 944  :             {   U32 const ll0 = (opt[cur].mlen != 0);

	mov	eax, DWORD PTR [rdi+8]
	mov	ecx, r12d
	test	eax, eax
	setne	cl
	mov	DWORD PTR ll0$1$[rsp], ecx

; 945  :                 U32 const litlen = (opt[cur].mlen == 0) ? opt[cur].litlen : 0;

	test	eax, eax
	jne	SHORT $LN59@ZSTD_compr
	mov	eax, DWORD PTR [rdi+12]
	mov	DWORD PTR litlen$1$[rbp-256], eax
	jmp	SHORT $LN60@ZSTD_compr
$LN59@ZSTD_compr:
	mov	DWORD PTR litlen$1$[rbp-256], r12d
$LN60@ZSTD_compr:

; 946  :                 U32 const previousPrice = opt[cur].price;
; 947  :                 U32 const basePrice = previousPrice + ZSTD_litLengthPrice(0, optStatePtr, optLevel);

	xor	r8d, r8d
	mov	rdx, r13
	xor	ecx, ecx
	call	ZSTD_litLengthPrice
	add	eax, r14d

; 948  :                 U32 const nbMatches = ZSTD_BtGetAllMatches(matches, ms, &nextToUpdate3, inr, iend, dictMode, opt[cur].rep, ll0, minMatch);

	add	rdi, 16
	mov	DWORD PTR basePrice$1$[rbp-256], eax

; 752  :     U32 const matchLengthSearch = cParams->minMatch;

	mov	rax, QWORD PTR ms$[rbp-256]

; 948  :                 U32 const nbMatches = ZSTD_BtGetAllMatches(matches, ms, &nextToUpdate3, inr, iend, dictMode, opt[cur].rep, ll0, minMatch);

	mov	QWORD PTR rep$1$[rbp-256], rdi

; 754  :     if (ip < ms->window.base + ms->nextToUpdate) return 0;   /* skipped area */

	mov	edi, DWORD PTR [rax+36]
	mov	r12, QWORD PTR [rax+8]
	mov	r15d, DWORD PTR [rax+200]
	lea	rcx, QWORD PTR [r12+rdi]
	cmp	rsi, rcx
	jb	$LN2032@ZSTD_compr

; 489  :     U32 const target = (U32)(ip - base);

	mov	r14d, esi
	sub	r14d, r12d

; 490  :     U32 idx = ms->nextToUpdate;
; 491  :     DEBUGLOG(6, "ZSTD_updateTree_internal, from %u to %u  (dictMode:%u)",
; 492  :                 idx, target, dictMode);
; 493  : 
; 494  :     while(idx < target) {

	cmp	edi, r14d
	jae	SHORT $LN933@ZSTD_compr
	mov	rsi, QWORD PTR iend$1$[rsp]
	mov	rbx, rax
	npad	6
$LL932@ZSTD_compr:

; 495  :         U32 const forward = ZSTD_insertBt1(ms, base+idx, iend, mls, dictMode == ZSTD_extDict);

	mov	edx, edi
	mov	r9d, r15d
	add	rdx, r12
	mov	DWORD PTR [rsp+32], 0
	mov	r8, rsi
	mov	rcx, rbx
	call	ZSTD_insertBt1

; 496  :         assert(idx < (U32)(idx + forward));
; 497  :         idx += forward;

	add	edi, eax
	cmp	edi, r14d
	jb	SHORT $LL932@ZSTD_compr
	mov	ebx, DWORD PTR seqPos$1$[rsp]
	mov	rsi, QWORD PTR inr$1$[rbp-256]
$LN933@ZSTD_compr:

; 498  :     }
; 499  :     assert((size_t)(ip - base) <= (size_t)(U32)(-1));
; 500  :     assert((size_t)(iend - base) <= (size_t)(U32)(-1));
; 501  :     ms->nextToUpdate = target;

	mov	r12, QWORD PTR ms$[rbp-256]

; 756  :     switch(matchLengthSearch)

	mov	ecx, 4095				; 00000fffH
	mov	rdi, QWORD PTR [r12+48]

; 501  :     ms->nextToUpdate = target;

	mov	DWORD PTR [r12+36], r14d

; 756  :     switch(matchLengthSearch)

	mov	edx, DWORD PTR [r12+192]
	cmp	r15d, 3
	je	$LN926@ZSTD_compr
	mov	r13d, esi
	cmp	r15d, 5
	je	$LN928@ZSTD_compr
	lea	eax, DWORD PTR [r15-6]
	cmp	eax, 1
	mov	eax, DWORD PTR [r12+204]
	ja	$LN927@ZSTD_compr

; 520  :     U32 const sufficient_len = MIN(cParams->targetLength, ZSTD_OPT_NUM -1);

	cmp	eax, ecx

; 523  :     U32 const hashLog = cParams->hashLog;
; 524  :     U32 const minMatch = (mls==3) ? 3 : 4;
; 525  :     U32* const hashTable = ms->hashTable;
; 526  :     size_t const h  = ZSTD_hashPtr(ip, hashLog, mls);

	mov	r8d, 6
	cmovb	ecx, eax
	mov	rax, QWORD PTR [r12+8]
	sub	r13d, eax
	mov	DWORD PTR sufficient_len$1$[rbp-256], ecx
	mov	rcx, rsi
	mov	DWORD PTR current$1$[rsp], r13d
	mov	QWORD PTR base$1$[rsp], rax
	call	ZSTD_hashPtr

; 528  :     U32* const bt   = ms->chainTable;
; 529  :     U32 const btLog = cParams->chainLog - 1;

	mov	r9, QWORD PTR ms$[rbp-256]

; 530  :     U32 const btMask= (1U << btLog) - 1;
; 531  :     size_t commonLengthSmaller=0, commonLengthLarger=0;
; 532  :     const BYTE* const dictBase = ms->window.dictBase;
; 533  :     U32 const dictLimit = ms->window.dictLimit;
; 534  :     const BYTE* const dictEnd = dictBase + dictLimit;
; 535  :     const BYTE* const prefixStart = base + dictLimit;
; 536  :     U32 const btLow = (btMask >= current) ? 0 : current - btMask;
; 537  :     U32 const windowLow = ZSTD_getLowestMatchIndex(ms, current, cParams->windowLog);

	mov	edx, r13d
	mov	r14d, DWORD PTR [rdi+rax*4]
	mov	r12, QWORD PTR [r12+64]
	lea	rax, QWORD PTR [rdi+rax*4]
	mov	QWORD PTR bt$1$[rbp-256], r12
	mov	r15d, DWORD PTR [r9+24]
	mov	edi, 1
	mov	ecx, DWORD PTR [r9+188]
	mov	r8d, DWORD PTR [r9+184]
	dec	ecx
	shl	edi, cl
	xor	ecx, ecx
	mov	QWORD PTR tv13813[rbp-256], rax
	dec	edi
	mov	QWORD PTR commonLengthSmaller$1$[rsp], rcx
	mov	eax, r15d
	add	rax, QWORD PTR base$1$[rsp]
	mov	QWORD PTR prefixStart$1$[rbp-256], rax
	mov	eax, r13d
	sub	eax, edi
	mov	QWORD PTR commonLengthLarger$1$[rbp-256], rcx
	cmp	edi, r13d
	mov	DWORD PTR btMask$1$[rbp-256], edi
	mov	DWORD PTR dictLimit$1$[rbp-256], r15d
	cmovb	ecx, eax
	mov	DWORD PTR tv13685[rbp-256], ecx
	mov	rcx, r9
	call	ZSTD_getLowestMatchIndex
	mov	edx, eax
	mov	DWORD PTR windowLow$1$[rbp-256], eax

; 538  :     U32 const matchLow = windowLow ? windowLow : 1;

	test	edx, edx

; 539  :     U32* smallerPtr = bt + 2*(current&btMask);

	mov	ecx, edi
	mov	eax, 1
	cmovne	eax, edx
	and	ecx, r13d
	add	ecx, ecx
	mov	DWORD PTR matchLow$1$[rbp-256], eax

; 540  :     U32* largerPtr  = bt + 2*(current&btMask) + 1;
; 541  :     U32 matchEndIdx = current+8+1;   /* farthest referenced position of any match => detects repetitive patterns */
; 542  :     U32 dummy32;   /* to be nullified at the end */
; 543  :     U32 mnum = 0;

	xor	r11d, r11d
	mov	DWORD PTR nbMatches$1$[rbp-256], r11d
	lea	rax, QWORD PTR [r12+rcx*4]
	mov	QWORD PTR smallerPtr$1$[rsp], rax
	add	rax, 4
	mov	QWORD PTR largerPtr$1$[rsp], rax
	lea	eax, DWORD PTR [r13+9]
	mov	DWORD PTR matchEndIdx$1$[rsp], eax

; 544  :     U32 nbCompares = 1U << cParams->searchLog;

	mov	r13d, 1
	mov	rax, QWORD PTR ms$[rbp-256]
	mov	ecx, DWORD PTR [rax+196]

; 545  : 
; 546  :     const ZSTD_matchState_t* dms    = dictMode == ZSTD_dictMatchState ? ms->dictMatchState : NULL;

	mov	rax, QWORD PTR [rax+176]
	shl	r13d, cl
	mov	QWORD PTR dms$1$[rbp-256], rax

; 547  :     const ZSTD_compressionParameters* const dmsCParams =
; 548  :                                       dictMode == ZSTD_dictMatchState ? &dms->cParams : NULL;
; 549  :     const BYTE* const dmsBase       = dictMode == ZSTD_dictMatchState ? dms->window.base : NULL;
; 550  :     const BYTE* const dmsEnd        = dictMode == ZSTD_dictMatchState ? dms->window.nextSrc : NULL;

	mov	rcx, QWORD PTR [rax]
	mov	r8, QWORD PTR [rax+8]

; 551  :     U32         const dmsHighLimit  = dictMode == ZSTD_dictMatchState ? (U32)(dmsEnd - dmsBase) : 0;

	mov	r9d, ecx
	sub	r9d, r8d
	mov	QWORD PTR dmsEnd$1$[rbp-256], rcx

; 552  :     U32         const dmsLowLimit   = dictMode == ZSTD_dictMatchState ? dms->window.lowLimit : 0;
; 553  :     U32         const dmsIndexDelta = dictMode == ZSTD_dictMatchState ? windowLow - dmsHighLimit : 0;
; 554  :     U32         const dmsHashLog    = dictMode == ZSTD_dictMatchState ? dmsCParams->hashLog : hashLog;

	mov	ecx, DWORD PTR [rax+192]
	sub	edx, r9d
	mov	DWORD PTR dmsIndexDelta$1$[rsp], edx

; 556  :     U32         const dmsBtMask     = dictMode == ZSTD_dictMatchState ? (1U << dmsBtLog) - 1 : 0;

	mov	edx, 1
	mov	DWORD PTR dmsHashLog$1$[rbp-256], ecx
	mov	ecx, DWORD PTR [rax+188]
	dec	ecx
	mov	QWORD PTR dmsBase$1$[rbp-256], r8
	mov	r8d, DWORD PTR [rax+28]
	shl	edx, cl
	dec	edx
	mov	DWORD PTR dmsHighLimit$1$[rbp-256], r9d
	mov	DWORD PTR dmsBtMask$1$[rbp-256], edx
	mov	DWORD PTR dmsLowLimit$1$[rsp], r8d

; 557  :     U32         const dmsBtLow      = dictMode == ZSTD_dictMatchState && dmsBtMask < dmsHighLimit - dmsLowLimit ? dmsHighLimit - dmsBtMask : dmsLowLimit;

	mov	eax, r9d

; 558  : 
; 559  :     size_t bestLength = lengthToBeat-1;

	mov	ecx, r9d
	sub	eax, r8d
	sub	ecx, edx
	cmp	edx, eax
	mov	rax, QWORD PTR tv13857[rbp-256]
	mov	QWORD PTR bestLength$1$[rbp-256], rax

; 560  :     DEBUGLOG(8, "ZSTD_insertBtAndGetAllMatches: current=%u", current);
; 561  : 
; 562  :     /* check repCode */
; 563  :     assert(ll0 <= 1);   /* necessarily 1 or 0 */
; 564  :     {   U32 const lastR = ZSTD_REP_NUM + ll0;

	mov	eax, DWORD PTR ll0$1$[rsp]
	cmovae	ecx, r8d
	mov	r8, QWORD PTR rep$1$[rbp-256]

; 565  :         U32 repCode;
; 566  :         for (repCode = ll0; repCode < lastR; repCode++) {

	mov	edi, eax
	mov	DWORD PTR tv13728[rbp-256], ecx
	mov	ecx, DWORD PTR current$1$[rsp]
	mov	edx, ecx
	sub	edx, r15d

; 560  :     DEBUGLOG(8, "ZSTD_insertBtAndGetAllMatches: current=%u", current);
; 561  : 
; 562  :     /* check repCode */
; 563  :     assert(ll0 <= 1);   /* necessarily 1 or 0 */
; 564  :     {   U32 const lastR = ZSTD_REP_NUM + ll0;

	lea	r12d, DWORD PTR [rax+3]
	mov	DWORD PTR tv13810[rbp-256], edx

; 521  :     const BYTE* const base = ms->window.base;

	lea	r15, QWORD PTR [r8+rax*4]

; 565  :         U32 repCode;
; 566  :         for (repCode = ll0; repCode < lastR; repCode++) {

	jmp	SHORT $LN1448@ZSTD_compr
	npad	1
$LL1994@ZSTD_compr:
	mov	ecx, DWORD PTR current$1$[rsp]
$LN1448@ZSTD_compr:

; 567  :             U32 const repOffset = (repCode==ZSTD_REP_NUM) ? (rep[0] - 1) : rep[repCode];

	cmp	edi, 3
	jne	SHORT $LN1515@ZSTD_compr
	mov	eax, DWORD PTR [r8]
	dec	eax
	jmp	SHORT $LN1516@ZSTD_compr
$LN1515@ZSTD_compr:
	mov	eax, DWORD PTR [r15]
$LN1516@ZSTD_compr:

; 568  :             U32 const repIndex = current - repOffset;

	mov	r10d, ecx

; 569  :             U32 repLen = 0;

	xor	r8d, r8d
	sub	r10d, eax

; 570  :             assert(current >= dictLimit);
; 571  :             if (repOffset-1 /* intentional overflow, discards 0 and -1 */ < current-dictLimit) {  /* equivalent to `current > repIndex >= dictLimit` */

	lea	ecx, DWORD PTR [rax-1]
	cmp	ecx, edx
	jae	SHORT $LN1453@ZSTD_compr

; 330  :     case 4 : return MEM_read32(memPtr);

	mov	edx, DWORD PTR [rsi]

; 575  :                 if ((repIndex >= windowLow) & (ZSTD_readMINMATCH(ip, minMatch) == ZSTD_readMINMATCH(ip - repOffset, minMatch))) {

	xor	ecx, ecx
	mov	r9d, eax
	neg	r9
	cmp	r10d, DWORD PTR windowLow$1$[rbp-256]
	setae	cl
	xor	r10d, r10d
	cmp	edx, DWORD PTR [r9+rsi]
	mov	eax, r10d
	sete	al
	test	ecx, eax
	je	$LN1457@ZSTD_compr

; 576  :                     repLen = (U32)ZSTD_count(ip+minMatch, ip+minMatch-repOffset, iLimit) + minMatch;

	mov	r8, QWORD PTR iend$1$[rsp]
	lea	rdx, QWORD PTR [r9+4]
	add	rdx, rsi
	lea	rcx, QWORD PTR [rsi+4]
	call	ZSTD_count
	lea	r8d, DWORD PTR [rax+4]

; 577  :                 }
; 578  :             } else {  /* repIndex < dictLimit || repIndex >= current */

	jmp	SHORT $LN2044@ZSTD_compr
$LN1453@ZSTD_compr:

; 579  :                 const BYTE* const repMatch = dictMode == ZSTD_dictMatchState ?

	mov	edx, DWORD PTR dmsIndexDelta$1$[rsp]

; 580  :                                              dmsBase + repIndex - dmsIndexDelta :
; 581  :                                              dictBase + repIndex;
; 582  :                 assert(current >= windowLow);
; 583  :                 if ( dictMode == ZSTD_extDict
; 584  :                   && ( ((repOffset-1) /*intentional overflow*/ < current - windowLow)  /* equivalent to `current > repIndex >= windowLow` */
; 585  :                      & (((U32)((dictLimit-1) - repIndex) >= 3) ) /* intentional overflow : do not test positions overlapping 2 memory segments */)
; 586  :                   && (ZSTD_readMINMATCH(ip, minMatch) == ZSTD_readMINMATCH(repMatch, minMatch)) ) {
; 587  :                     repLen = (U32)ZSTD_count_2segments(ip+minMatch, repMatch+minMatch, iLimit, dictEnd, prefixStart) + minMatch;
; 588  :                 }
; 589  :                 if (dictMode == ZSTD_dictMatchState
; 590  :                   && ( ((repOffset-1) /*intentional overflow*/ < current - (dmsLowLimit + dmsIndexDelta))  /* equivalent to `current > repIndex >= dmsLowLimit` */
; 591  :                      & ((U32)((dictLimit-1) - repIndex) >= 3) ) /* intentional overflow : do not test positions overlapping 2 memory segments */
; 592  :                   && (ZSTD_readMINMATCH(ip, minMatch) == ZSTD_readMINMATCH(repMatch, minMatch)) ) {

	mov	eax, DWORD PTR current$1$[rsp]
	sub	eax, edx
	mov	r9d, r10d
	sub	eax, DWORD PTR dmsLowLimit$1$[rsp]
	sub	r9, rdx
	add	r9, QWORD PTR dmsBase$1$[rbp-256]
	xor	edx, edx
	cmp	ecx, eax
	mov	ecx, DWORD PTR dictLimit$1$[rbp-256]
	setb	dl
	sub	ecx, r10d
	xor	r10d, r10d
	dec	ecx
	cmp	ecx, 3
	mov	eax, r10d
	setae	al
	test	edx, eax
	je	SHORT $LN1457@ZSTD_compr

; 330  :     case 4 : return MEM_read32(memPtr);

	mov	eax, DWORD PTR [rsi]

; 592  :                   && (ZSTD_readMINMATCH(ip, minMatch) == ZSTD_readMINMATCH(repMatch, minMatch)) ) {

	cmp	eax, DWORD PTR [r9]
	jne	SHORT $LN1457@ZSTD_compr

; 593  :                     repLen = (U32)ZSTD_count_2segments(ip+minMatch, repMatch+minMatch, iLimit, dmsEnd, prefixStart) + minMatch;

	mov	rax, QWORD PTR prefixStart$1$[rbp-256]
	lea	rdx, QWORD PTR [r9+4]
	mov	r9, QWORD PTR dmsEnd$1$[rbp-256]
	lea	rcx, QWORD PTR [rsi+4]
	mov	r8, QWORD PTR iend$1$[rsp]
	mov	QWORD PTR [rsp+32], rax
	call	ZSTD_count_2segments
	lea	r8d, DWORD PTR [rax+4]
$LN2044@ZSTD_compr:

; 594  :             }   }
; 595  :             /* save longer solution */
; 596  :             if (repLen > bestLength) {

	mov	r11d, DWORD PTR nbMatches$1$[rbp-256]
	xor	r10d, r10d
$LN1457@ZSTD_compr:
	mov	r9, QWORD PTR iend$1$[rsp]
	mov	edx, r8d
	cmp	rdx, QWORD PTR bestLength$1$[rbp-256]
	jbe	SHORT $LN1446@ZSTD_compr

; 597  :                 DEBUGLOG(8, "found repCode %u (ll0:%u, offset:%u) of length %u",
; 598  :                             repCode, ll0, repOffset, repLen);
; 599  :                 bestLength = repLen;
; 600  :                 matches[mnum].off = repCode - ll0;

	mov	rcx, QWORD PTR matches$1$[rbp-256]
	mov	eax, r11d

; 601  :                 matches[mnum].len = (U32)repLen;
; 602  :                 mnum++;

	inc	r11d
	lea	rcx, QWORD PTR [rcx+rax*8]
	mov	eax, edi
	mov	DWORD PTR [rcx+4], r8d
	sub	eax, DWORD PTR ll0$1$[rsp]
	mov	DWORD PTR [rcx], eax

; 603  :                 if ( (repLen > sufficient_len)
; 604  :                    | (ip+repLen == iLimit) ) {  /* best possible */

	lea	rax, QWORD PTR [r8+rsi]
	cmp	rax, r9
	mov	QWORD PTR bestLength$1$[rbp-256], rdx
	mov	ecx, r10d
	mov	DWORD PTR nbMatches$1$[rbp-256], r11d
	sete	cl
	mov	eax, r10d
	cmp	r8d, DWORD PTR sufficient_len$1$[rbp-256]
	seta	al
	or	ecx, eax
	jne	$LN935@ZSTD_compr
$LN1446@ZSTD_compr:

; 565  :         U32 repCode;
; 566  :         for (repCode = ll0; repCode < lastR; repCode++) {

	mov	edx, DWORD PTR tv13810[rbp-256]
	inc	edi
	mov	r8, QWORD PTR rep$1$[rbp-256]
	add	r15, 4
	cmp	edi, r12d
	jb	$LL1994@ZSTD_compr

; 636  :         }   }   }
; 637  :         /* no dictMatchState lookup: dicts don't have a populated HC3 table */
; 638  :     }
; 639  : 
; 640  :     hashTable[h] = current;   /* Update Hash Table */

	mov	rcx, QWORD PTR tv13813[rbp-256]
	mov	eax, DWORD PTR current$1$[rsp]
	mov	DWORD PTR [rcx], eax

; 641  : 
; 642  :     while (nbCompares-- && (matchIndex >= matchLow)) {

	test	r13d, r13d
	je	$LN1784@ZSTD_compr
	npad	6
$LL1449@ZSTD_compr:
	dec	r13d
	cmp	r14d, DWORD PTR matchLow$1$[rbp-256]
	jb	$LN1976@ZSTD_compr

; 643  :         U32* const nextPtr = bt + 2*(matchIndex & btMask);

	mov	eax, DWORD PTR btMask$1$[rbp-256]

; 644  :         const BYTE* match;
; 645  :         size_t matchLength = MIN(commonLengthSmaller, commonLengthLarger);   /* guaranteed minimum nb of common bytes */
; 646  :         assert(current > matchIndex);
; 647  : 
; 648  :         if ((dictMode == ZSTD_noDict) || (dictMode == ZSTD_dictMatchState) || (matchIndex+matchLength >= dictLimit)) {
; 649  :             assert(matchIndex+matchLength >= dictLimit);  /* ensure the condition is correct when !extDict */
; 650  :             match = base + matchIndex;
; 651  :             if (matchIndex >= dictLimit) assert(memcmp(match, ip, matchLength) == 0);  /* ensure early section of match is equal as expected */
; 652  :             matchLength += ZSTD_count(ip+matchLength, match+matchLength, iLimit);

	mov	r8, r9
	mov	rcx, QWORD PTR bt$1$[rbp-256]
	and	eax, r14d
	add	eax, eax
	mov	r15d, r14d
	lea	r12, QWORD PTR [rcx+rax*4]
	mov	rcx, QWORD PTR commonLengthLarger$1$[rbp-256]
	cmp	QWORD PTR commonLengthSmaller$1$[rsp], rcx
	mov	rdi, rcx
	cmovb	rdi, QWORD PTR commonLengthSmaller$1$[rsp]
	add	r15, QWORD PTR base$1$[rsp]
	lea	rcx, QWORD PTR [rsi+rdi]
	lea	rdx, QWORD PTR [r15+rdi]
	call	ZSTD_count
	add	rdi, rax

; 653  :         } else {
; 654  :             match = dictBase + matchIndex;
; 655  :             assert(memcmp(match, ip, matchLength) == 0);  /* ensure early section of match is equal as expected */
; 656  :             matchLength += ZSTD_count_2segments(ip+matchLength, match+matchLength, iLimit, dictEnd, prefixStart);
; 657  :             if (matchIndex+matchLength >= dictLimit)
; 658  :                 match = base + matchIndex;   /* prepare for match[matchLength] read */
; 659  :         }
; 660  : 
; 661  :         if (matchLength > bestLength) {

	cmp	rdi, QWORD PTR bestLength$1$[rbp-256]
	jbe	$LN2015@ZSTD_compr

; 662  :             DEBUGLOG(8, "found match of length %u at distance %u (offCode=%u)",
; 663  :                     (U32)matchLength, current - matchIndex, current - matchIndex + ZSTD_REP_MOVE);
; 664  :             assert(matchEndIdx > matchIndex);
; 665  :             if (matchLength > matchEndIdx - matchIndex)

	mov	eax, DWORD PTR matchEndIdx$1$[rsp]
	mov	edx, edi
	sub	eax, r14d
	cmp	rdi, rax
	jbe	SHORT $LN1473@ZSTD_compr

; 666  :                 matchEndIdx = matchIndex + (U32)matchLength;

	lea	eax, DWORD PTR [r14+rdi]
	mov	DWORD PTR matchEndIdx$1$[rsp], eax
$LN1473@ZSTD_compr:

; 667  :             bestLength = matchLength;
; 668  :             matches[mnum].off = (current - matchIndex) + ZSTD_REP_MOVE;

	mov	r8d, DWORD PTR nbMatches$1$[rbp-256]

; 669  :             matches[mnum].len = (U32)matchLength;
; 670  :             mnum++;
; 671  :             if ( (matchLength > ZSTD_OPT_NUM)
; 672  :                | (ip+matchLength == iLimit) /* equal : no way to know if inf or sup */) {

	xor	r10d, r10d
	mov	eax, DWORD PTR current$1$[rsp]
	mov	rcx, QWORD PTR matches$1$[rbp-256]
	sub	eax, r14d
	mov	r9, QWORD PTR iend$1$[rsp]
	lea	rcx, QWORD PTR [rcx+r8*8]
	add	eax, 2
	mov	DWORD PTR [rcx+4], edx
	mov	DWORD PTR [rcx], eax
	inc	r8d
	lea	rax, QWORD PTR [rsi+rdi]
	mov	QWORD PTR bestLength$1$[rbp-256], rdi
	cmp	rax, r9
	mov	DWORD PTR nbMatches$1$[rbp-256], r8d
	mov	ecx, r10d
	mov	eax, r10d
	sete	cl
	cmp	rdi, 4096				; 00001000H
	seta	al
	or	ecx, eax
	je	SHORT $LN1474@ZSTD_compr
$LN1740@ZSTD_compr:

; 732  :             }
; 733  :         }
; 734  :     }
; 735  : 
; 736  :     assert(matchEndIdx > current+8);
; 737  :     ms->nextToUpdate = matchEndIdx - 8;  /* skip repetitive patterns */

	mov	rax, QWORD PTR smallerPtr$1$[rsp]
	mov	rcx, QWORD PTR largerPtr$1$[rsp]
	mov	DWORD PTR [rcx], r10d
	mov	DWORD PTR [rax], r10d
	mov	eax, DWORD PTR matchEndIdx$1$[rsp]

; 763  :     case 6 : return ZSTD_insertBtAndGetAllMatches(matches, ms, nextToUpdate3, ip, iHighLimit, dictMode, rep, ll0, lengthToBeat, 6);

	jmp	$LN2046@ZSTD_compr
$LN2015@ZSTD_compr:

; 661  :         if (matchLength > bestLength) {

	mov	r9, QWORD PTR iend$1$[rsp]
	xor	r10d, r10d
$LN1474@ZSTD_compr:

; 675  :             }
; 676  :         }
; 677  : 
; 678  :         if (match[matchLength] < ip[matchLength]) {

	movzx	eax, BYTE PTR [rsi+rdi]
	cmp	BYTE PTR [r15+rdi], al
	jae	SHORT $LN1476@ZSTD_compr

; 679  :             /* match smaller than current */
; 680  :             *smallerPtr = matchIndex;             /* update smaller idx */

	mov	rax, QWORD PTR smallerPtr$1$[rsp]

; 681  :             commonLengthSmaller = matchLength;    /* all smaller will now have at least this guaranteed common length */

	mov	QWORD PTR commonLengthSmaller$1$[rsp], rdi
	mov	DWORD PTR [rax], r14d

; 682  :             if (matchIndex <= btLow) { smallerPtr=&dummy32; break; }   /* beyond tree size, stop the search */

	cmp	r14d, DWORD PTR tv13685[rbp-256]
	jbe	$LN1741@ZSTD_compr

; 683  :             smallerPtr = nextPtr+1;               /* new candidate => larger than match, which was smaller than current */

	add	r12, 4
	mov	QWORD PTR smallerPtr$1$[rsp], r12

; 685  :         } else {

	jmp	SHORT $LN2045@ZSTD_compr
$LN1476@ZSTD_compr:

; 686  :             *largerPtr = matchIndex;

	mov	rcx, QWORD PTR largerPtr$1$[rsp]

; 687  :             commonLengthLarger = matchLength;

	mov	QWORD PTR commonLengthLarger$1$[rbp-256], rdi
	mov	DWORD PTR [rcx], r14d

; 688  :             if (matchIndex <= btLow) { largerPtr=&dummy32; break; }   /* beyond tree size, stop the search */

	cmp	r14d, DWORD PTR tv13685[rbp-256]
	jbe	$LN1742@ZSTD_compr

; 689  :             largerPtr = nextPtr;

	mov	QWORD PTR largerPtr$1$[rsp], r12
$LN2045@ZSTD_compr:

; 641  : 
; 642  :     while (nbCompares-- && (matchIndex >= matchLow)) {

	mov	r14d, DWORD PTR [r12]
	test	r13d, r13d
	jne	$LL1449@ZSTD_compr
$LN1784@ZSTD_compr:
	dec	r13d
$LN1976@ZSTD_compr:

; 691  :     }   }
; 692  : 
; 693  :     *smallerPtr = *largerPtr = 0;

	mov	rax, QWORD PTR smallerPtr$1$[rsp]
$LN1450@ZSTD_compr:
	mov	rcx, QWORD PTR largerPtr$1$[rsp]
	mov	DWORD PTR [rcx], r10d
	mov	DWORD PTR [rax], r10d

; 694  : 
; 695  :     if (dictMode == ZSTD_dictMatchState && nbCompares) {

	test	r13d, r13d
	je	$LN1743@ZSTD_compr

; 696  :         size_t const dmsH = ZSTD_hashPtr(ip, dmsHashLog, mls);

	mov	edx, DWORD PTR dmsHashLog$1$[rbp-256]
	mov	r8d, 6
	mov	rcx, rsi
	call	ZSTD_hashPtr

; 697  :         U32 dictMatchIndex = dms->hashTable[dmsH];

	mov	r8, QWORD PTR dms$1$[rbp-256]
	mov	ebx, DWORD PTR nbMatches$1$[rbp-256]
	mov	rcx, QWORD PTR [r8+48]

; 698  :         const U32* const dmsBt = dms->chainTable;

	mov	r8, QWORD PTR [r8+64]
	mov	QWORD PTR dmsBt$1$[rbp-256], r8
	mov	r15d, DWORD PTR [rcx+rax*4]

; 699  :         commonLengthSmaller = commonLengthLarger = 0;

	xor	ecx, ecx
	xor	edx, edx
	mov	QWORD PTR commonLengthLarger$2$[rbp-256], rcx
	mov	QWORD PTR commonLengthSmaller$2$[rsp], rdx
	npad	11
$LL1451@ZSTD_compr:

; 700  :         while (nbCompares-- && (dictMatchIndex > dmsLowLimit)) {

	dec	r13d
	cmp	r15d, DWORD PTR dmsLowLimit$1$[rsp]
	jbe	$LN1964@ZSTD_compr

; 701  :             const U32* const nextPtr = dmsBt + 2*(dictMatchIndex & dmsBtMask);

	mov	eax, DWORD PTR dmsBtMask$1$[rbp-256]

; 702  :             size_t matchLength = MIN(commonLengthSmaller, commonLengthLarger);   /* guaranteed minimum nb of common bytes */

	mov	rdi, rcx

; 703  :             const BYTE* match = dmsBase + dictMatchIndex;

	mov	r14, QWORD PTR dmsBase$1$[rbp-256]
	and	eax, r15d

; 704  :             matchLength += ZSTD_count_2segments(ip+matchLength, match+matchLength, iLimit, dmsEnd, prefixStart);

	mov	r9, QWORD PTR dmsEnd$1$[rbp-256]
	add	eax, eax
	cmp	rdx, rcx
	mov	r12d, r15d
	cmovb	rdi, rdx
	add	r14, r12
	lea	rax, QWORD PTR [r8+rax*4]
	mov	r8, QWORD PTR iend$1$[rsp]
	mov	QWORD PTR nextPtr$1$[rbp-256], rax
	mov	rax, QWORD PTR prefixStart$1$[rbp-256]
	lea	rdx, QWORD PTR [r14+rdi]
	mov	QWORD PTR [rsp+32], rax
	lea	rcx, QWORD PTR [rsi+rdi]
	call	ZSTD_count_2segments
	add	rdi, rax

; 705  :             if (dictMatchIndex+matchLength >= dmsHighLimit)

	mov	eax, DWORD PTR dmsHighLimit$1$[rbp-256]
	lea	rcx, QWORD PTR [r12+rdi]
	cmp	rcx, rax
	jb	SHORT $LN1997@ZSTD_compr

; 706  :                 match = base + dictMatchIndex + dmsIndexDelta;   /* to prepare for next usage of match[matchLength] */

	mov	eax, DWORD PTR dmsIndexDelta$1$[rsp]
	mov	r14d, eax
	add	r14, QWORD PTR base$1$[rsp]
	add	r14, r12
	jmp	SHORT $LN1481@ZSTD_compr
$LN1741@ZSTD_compr:

; 682  :             if (matchIndex <= btLow) { smallerPtr=&dummy32; break; }   /* beyond tree size, stop the search */

	lea	rax, QWORD PTR dummy32$7[rbp-256]
	jmp	$LN1450@ZSTD_compr
$LN1742@ZSTD_compr:

; 688  :             if (matchIndex <= btLow) { largerPtr=&dummy32; break; }   /* beyond tree size, stop the search */

	lea	rax, QWORD PTR dummy32$7[rbp-256]
	mov	QWORD PTR largerPtr$1$[rsp], rax
	jmp	$LN1976@ZSTD_compr
$LN1997@ZSTD_compr:

; 705  :             if (dictMatchIndex+matchLength >= dmsHighLimit)

	mov	eax, DWORD PTR dmsIndexDelta$1$[rsp]
$LN1481@ZSTD_compr:

; 707  : 
; 708  :             if (matchLength > bestLength) {

	cmp	rdi, QWORD PTR bestLength$1$[rbp-256]
	jbe	SHORT $LN1484@ZSTD_compr

; 709  :                 matchIndex = dictMatchIndex + dmsIndexDelta;

	lea	edx, DWORD PTR [rax+r15]

; 710  :                 DEBUGLOG(8, "found dms match of length %u at distance %u (offCode=%u)",
; 711  :                         (U32)matchLength, current - matchIndex, current - matchIndex + ZSTD_REP_MOVE);
; 712  :                 if (matchLength > matchEndIdx - matchIndex)

	mov	eax, DWORD PTR matchEndIdx$1$[rsp]
	sub	eax, edx
	cmp	rdi, rax
	jbe	SHORT $LN1852@ZSTD_compr

; 713  :                     matchEndIdx = matchIndex + (U32)matchLength;

	lea	eax, DWORD PTR [rdx+rdi]
	mov	DWORD PTR matchEndIdx$1$[rsp], eax
$LN1852@ZSTD_compr:

; 714  :                 bestLength = matchLength;
; 715  :                 matches[mnum].off = (current - matchIndex) + ZSTD_REP_MOVE;

	mov	rcx, QWORD PTR matches$1$[rbp-256]

; 718  :                 if ( (matchLength > ZSTD_OPT_NUM)
; 719  :                    | (ip+matchLength == iLimit) /* equal : no way to know if inf or sup */) {

	xor	r9d, r9d
	mov	eax, ebx
	inc	ebx
	lea	rcx, QWORD PTR [rcx+rax*8]
	mov	eax, DWORD PTR current$1$[rsp]
	sub	eax, edx
	mov	DWORD PTR [rcx+4], edi
	add	eax, 2
	mov	QWORD PTR bestLength$1$[rbp-256], rdi
	mov	DWORD PTR [rcx], eax
	lea	rax, QWORD PTR [rsi+rdi]
	cmp	rax, QWORD PTR iend$1$[rsp]
	mov	ecx, r9d
	mov	eax, r9d
	sete	cl
	cmp	rdi, 4096				; 00001000H
	seta	al
	or	ecx, eax
	jne	SHORT $LN1964@ZSTD_compr
$LN1484@ZSTD_compr:

; 720  :                     break;   /* drop, to guarantee consistency (miss a little bit of compression) */
; 721  :                 }
; 722  :             }
; 723  : 
; 724  :             if (dictMatchIndex <= dmsBtLow) { break; }   /* beyond tree size, stop the search */

	cmp	r15d, DWORD PTR tv13728[rbp-256]
	jbe	SHORT $LN1964@ZSTD_compr

; 725  :             if (match[matchLength] < ip[matchLength]) {

	movzx	eax, BYTE PTR [rsi+rdi]
	cmp	BYTE PTR [r14+rdi], al
	mov	rax, QWORD PTR nextPtr$1$[rbp-256]
	jae	SHORT $LN1486@ZSTD_compr

; 726  :                 commonLengthSmaller = matchLength;    /* all smaller will now have at least this guaranteed common length */
; 727  :                 dictMatchIndex = nextPtr[1];              /* new matchIndex larger than previous (closer to current) */

	mov	r15d, DWORD PTR [rax+4]
	mov	rdx, rdi

; 728  :             } else {

	mov	rcx, QWORD PTR commonLengthLarger$2$[rbp-256]
	mov	QWORD PTR commonLengthSmaller$2$[rsp], rdx
	jmp	SHORT $LN1487@ZSTD_compr
$LN1486@ZSTD_compr:

; 731  :                 dictMatchIndex = nextPtr[0];

	mov	r15d, DWORD PTR [rax]
	mov	rcx, rdi
	mov	rdx, QWORD PTR commonLengthSmaller$2$[rsp]

; 729  :                 /* match is larger than current */
; 730  :                 commonLengthLarger = matchLength;

	mov	QWORD PTR commonLengthLarger$2$[rbp-256], rcx
$LN1487@ZSTD_compr:

; 700  :         while (nbCompares-- && (dictMatchIndex > dmsLowLimit)) {

	mov	r8, QWORD PTR dmsBt$1$[rbp-256]
	test	r13d, r13d
	jne	$LL1451@ZSTD_compr
$LN1964@ZSTD_compr:
	mov	DWORD PTR nbMatches$1$[rbp-256], ebx
	mov	ebx, DWORD PTR seqPos$1$[rsp]
$LN1743@ZSTD_compr:

; 732  :             }
; 733  :         }
; 734  :     }
; 735  : 
; 736  :     assert(matchEndIdx > current+8);
; 737  :     ms->nextToUpdate = matchEndIdx - 8;  /* skip repetitive patterns */

	mov	eax, DWORD PTR matchEndIdx$1$[rsp]

; 763  :     case 6 : return ZSTD_insertBtAndGetAllMatches(matches, ms, nextToUpdate3, ip, iHighLimit, dictMode, rep, ll0, lengthToBeat, 6);

	jmp	$LN2046@ZSTD_compr
$LN927@ZSTD_compr:

; 520  :     U32 const sufficient_len = MIN(cParams->targetLength, ZSTD_OPT_NUM -1);

	cmp	eax, ecx

; 523  :     U32 const hashLog = cParams->hashLog;
; 524  :     U32 const minMatch = (mls==3) ? 3 : 4;
; 525  :     U32* const hashTable = ms->hashTable;
; 526  :     size_t const h  = ZSTD_hashPtr(ip, hashLog, mls);

	mov	r8d, 4
	cmovb	ecx, eax
	mov	rax, QWORD PTR [r12+8]
	sub	r13d, eax
	mov	DWORD PTR sufficient_len$1$[rbp-256], ecx
	mov	rcx, rsi
	mov	DWORD PTR current$1$[rsp], r13d
	mov	QWORD PTR base$1$[rsp], rax
	call	ZSTD_hashPtr

; 528  :     U32* const bt   = ms->chainTable;
; 529  :     U32 const btLog = cParams->chainLog - 1;

	mov	r9, QWORD PTR ms$[rbp-256]

; 530  :     U32 const btMask= (1U << btLog) - 1;
; 531  :     size_t commonLengthSmaller=0, commonLengthLarger=0;
; 532  :     const BYTE* const dictBase = ms->window.dictBase;
; 533  :     U32 const dictLimit = ms->window.dictLimit;
; 534  :     const BYTE* const dictEnd = dictBase + dictLimit;
; 535  :     const BYTE* const prefixStart = base + dictLimit;
; 536  :     U32 const btLow = (btMask >= current) ? 0 : current - btMask;
; 537  :     U32 const windowLow = ZSTD_getLowestMatchIndex(ms, current, cParams->windowLog);

	mov	edx, r13d
	mov	r14d, DWORD PTR [rdi+rax*4]
	mov	r12, QWORD PTR [r12+64]
	lea	rax, QWORD PTR [rdi+rax*4]
	mov	QWORD PTR bt$1$[rbp-256], r12
	mov	r15d, DWORD PTR [r9+24]
	mov	edi, 1
	mov	ecx, DWORD PTR [r9+188]
	mov	r8d, DWORD PTR [r9+184]
	dec	ecx
	shl	edi, cl
	xor	ecx, ecx
	mov	QWORD PTR tv13803[rbp-256], rax
	dec	edi
	mov	QWORD PTR commonLengthSmaller$1$[rbp-256], rcx
	mov	eax, r15d
	add	rax, QWORD PTR base$1$[rsp]
	mov	QWORD PTR prefixStart$1$[rbp-256], rax
	mov	eax, r13d
	sub	eax, edi
	mov	QWORD PTR commonLengthLarger$1$[rbp-256], rcx
	cmp	edi, r13d
	mov	DWORD PTR btMask$1$[rbp-256], edi
	mov	DWORD PTR dictLimit$1$[rbp-256], r15d
	cmovb	ecx, eax
	mov	DWORD PTR tv13684[rbp-256], ecx
	mov	rcx, r9
	call	ZSTD_getLowestMatchIndex
	mov	edx, eax
	mov	DWORD PTR windowLow$1$[rbp-256], eax

; 538  :     U32 const matchLow = windowLow ? windowLow : 1;

	test	edx, edx

; 539  :     U32* smallerPtr = bt + 2*(current&btMask);

	mov	ecx, edi
	mov	eax, 1
	cmovne	eax, edx
	and	ecx, r13d
	add	ecx, ecx
	mov	DWORD PTR matchLow$1$[rbp-256], eax

; 540  :     U32* largerPtr  = bt + 2*(current&btMask) + 1;
; 541  :     U32 matchEndIdx = current+8+1;   /* farthest referenced position of any match => detects repetitive patterns */
; 542  :     U32 dummy32;   /* to be nullified at the end */
; 543  :     U32 mnum = 0;

	xor	r11d, r11d
	mov	r9d, r11d
	mov	DWORD PTR nbMatches$1$[rbp-256], r11d
	lea	rax, QWORD PTR [r12+rcx*4]
	mov	QWORD PTR smallerPtr$1$[rsp], rax
	add	rax, 4
	mov	QWORD PTR largerPtr$1$[rsp], rax
	lea	eax, DWORD PTR [r13+9]
	mov	DWORD PTR matchEndIdx$1$[rsp], eax

; 544  :     U32 nbCompares = 1U << cParams->searchLog;

	mov	r13d, 1
	mov	rax, QWORD PTR ms$[rbp-256]
	mov	ecx, DWORD PTR [rax+196]

; 545  : 
; 546  :     const ZSTD_matchState_t* dms    = dictMode == ZSTD_dictMatchState ? ms->dictMatchState : NULL;

	mov	rax, QWORD PTR [rax+176]
	shl	r13d, cl
	mov	QWORD PTR dms$1$[rbp-256], rax

; 547  :     const ZSTD_compressionParameters* const dmsCParams =
; 548  :                                       dictMode == ZSTD_dictMatchState ? &dms->cParams : NULL;
; 549  :     const BYTE* const dmsBase       = dictMode == ZSTD_dictMatchState ? dms->window.base : NULL;
; 550  :     const BYTE* const dmsEnd        = dictMode == ZSTD_dictMatchState ? dms->window.nextSrc : NULL;

	mov	rcx, QWORD PTR [rax]
	mov	r8, QWORD PTR [rax+8]

; 551  :     U32         const dmsHighLimit  = dictMode == ZSTD_dictMatchState ? (U32)(dmsEnd - dmsBase) : 0;

	mov	r10d, ecx
	sub	r10d, r8d
	mov	QWORD PTR dmsEnd$1$[rsp], rcx

; 552  :     U32         const dmsLowLimit   = dictMode == ZSTD_dictMatchState ? dms->window.lowLimit : 0;
; 553  :     U32         const dmsIndexDelta = dictMode == ZSTD_dictMatchState ? windowLow - dmsHighLimit : 0;
; 554  :     U32         const dmsHashLog    = dictMode == ZSTD_dictMatchState ? dmsCParams->hashLog : hashLog;

	mov	ecx, DWORD PTR [rax+192]
	sub	edx, r10d
	mov	DWORD PTR dmsIndexDelta$1$[rsp], edx

; 556  :     U32         const dmsBtMask     = dictMode == ZSTD_dictMatchState ? (1U << dmsBtLog) - 1 : 0;

	mov	edx, 1
	mov	DWORD PTR dmsHashLog$1$[rbp-256], ecx
	mov	ecx, DWORD PTR [rax+188]
	dec	ecx
	mov	QWORD PTR dmsBase$1$[rbp-256], r8
	mov	r8d, DWORD PTR [rax+28]
	shl	edx, cl
	dec	edx
	mov	DWORD PTR dmsHighLimit$1$[rbp-256], r10d
	mov	DWORD PTR dmsLowLimit$1$[rsp], r8d

; 557  :     U32         const dmsBtLow      = dictMode == ZSTD_dictMatchState && dmsBtMask < dmsHighLimit - dmsLowLimit ? dmsHighLimit - dmsBtMask : dmsLowLimit;

	mov	eax, r10d
	mov	DWORD PTR dmsBtMask$1$[rbp-256], edx
	sub	eax, r8d

; 558  : 
; 559  :     size_t bestLength = lengthToBeat-1;

	mov	ecx, r10d
	sub	ecx, edx
	cmp	edx, eax
	mov	rax, QWORD PTR tv13857[rbp-256]
	mov	QWORD PTR bestLength$1$[rbp-256], rax

; 560  :     DEBUGLOG(8, "ZSTD_insertBtAndGetAllMatches: current=%u", current);
; 561  : 
; 562  :     /* check repCode */
; 563  :     assert(ll0 <= 1);   /* necessarily 1 or 0 */
; 564  :     {   U32 const lastR = ZSTD_REP_NUM + ll0;

	mov	eax, DWORD PTR ll0$1$[rsp]
	cmovae	ecx, r8d
	mov	r8d, DWORD PTR current$1$[rsp]

; 565  :         U32 repCode;
; 566  :         for (repCode = ll0; repCode < lastR; repCode++) {

	mov	edi, eax
	mov	DWORD PTR tv13724[rbp-256], ecx
	mov	edx, r8d

; 521  :     const BYTE* const base = ms->window.base;

	mov	rcx, QWORD PTR rep$1$[rbp-256]
	sub	edx, r15d

; 560  :     DEBUGLOG(8, "ZSTD_insertBtAndGetAllMatches: current=%u", current);
; 561  : 
; 562  :     /* check repCode */
; 563  :     assert(ll0 <= 1);   /* necessarily 1 or 0 */
; 564  :     {   U32 const lastR = ZSTD_REP_NUM + ll0;

	lea	r12d, DWORD PTR [rax+3]
	mov	DWORD PTR tv13800[rbp-256], edx

; 521  :     const BYTE* const base = ms->window.base;

	lea	r15, QWORD PTR [rcx+rax*4]

; 565  :         U32 repCode;
; 566  :         for (repCode = ll0; repCode < lastR; repCode++) {

	jmp	SHORT $LN1108@ZSTD_compr
$LL1995@ZSTD_compr:
	mov	r8d, DWORD PTR current$1$[rsp]
$LN1108@ZSTD_compr:

; 567  :             U32 const repOffset = (repCode==ZSTD_REP_NUM) ? (rep[0] - 1) : rep[repCode];

	cmp	edi, 3
	jne	SHORT $LN1175@ZSTD_compr
	mov	ecx, DWORD PTR [rcx]
	dec	ecx
	jmp	SHORT $LN1176@ZSTD_compr
$LN1175@ZSTD_compr:
	mov	ecx, DWORD PTR [r15]
$LN1176@ZSTD_compr:

; 568  :             U32 const repIndex = current - repOffset;

	mov	r10d, r8d

; 569  :             U32 repLen = 0;

	mov	r8d, r11d
	sub	r10d, ecx

; 570  :             assert(current >= dictLimit);
; 571  :             if (repOffset-1 /* intentional overflow, discards 0 and -1 */ < current-dictLimit) {  /* equivalent to `current > repIndex >= dictLimit` */

	lea	r11d, DWORD PTR [rcx-1]
	cmp	r11d, edx
	jae	SHORT $LN1113@ZSTD_compr

; 330  :     case 4 : return MEM_read32(memPtr);

	mov	eax, DWORD PTR [rsi]

; 575  :                 if ((repIndex >= windowLow) & (ZSTD_readMINMATCH(ip, minMatch) == ZSTD_readMINMATCH(ip - repOffset, minMatch))) {

	xor	r11d, r11d
	mov	edx, ecx
	mov	ecx, r11d
	neg	rdx
	cmp	eax, DWORD PTR [rsi+rdx]
	mov	eax, r11d
	sete	cl
	cmp	r10d, DWORD PTR windowLow$1$[rbp-256]
	setae	al
	test	ecx, eax
	je	$LN1117@ZSTD_compr

; 576  :                     repLen = (U32)ZSTD_count(ip+minMatch, ip+minMatch-repOffset, iLimit) + minMatch;

	mov	r8, QWORD PTR iend$1$[rsp]
	lea	rcx, QWORD PTR [rsi+4]
	add	rdx, 4
	add	rdx, rsi
	call	ZSTD_count
	lea	r8d, DWORD PTR [rax+4]

; 577  :                 }
; 578  :             } else {  /* repIndex < dictLimit || repIndex >= current */

	jmp	SHORT $LN2052@ZSTD_compr
$LN1113@ZSTD_compr:

; 579  :                 const BYTE* const repMatch = dictMode == ZSTD_dictMatchState ?

	mov	ecx, DWORD PTR dmsIndexDelta$1$[rsp]

; 580  :                                              dmsBase + repIndex - dmsIndexDelta :
; 581  :                                              dictBase + repIndex;
; 582  :                 assert(current >= windowLow);
; 583  :                 if ( dictMode == ZSTD_extDict
; 584  :                   && ( ((repOffset-1) /*intentional overflow*/ < current - windowLow)  /* equivalent to `current > repIndex >= windowLow` */
; 585  :                      & (((U32)((dictLimit-1) - repIndex) >= 3) ) /* intentional overflow : do not test positions overlapping 2 memory segments */)
; 586  :                   && (ZSTD_readMINMATCH(ip, minMatch) == ZSTD_readMINMATCH(repMatch, minMatch)) ) {
; 587  :                     repLen = (U32)ZSTD_count_2segments(ip+minMatch, repMatch+minMatch, iLimit, dictEnd, prefixStart) + minMatch;
; 588  :                 }
; 589  :                 if (dictMode == ZSTD_dictMatchState
; 590  :                   && ( ((repOffset-1) /*intentional overflow*/ < current - (dmsLowLimit + dmsIndexDelta))  /* equivalent to `current > repIndex >= dmsLowLimit` */
; 591  :                      & ((U32)((dictLimit-1) - repIndex) >= 3) ) /* intentional overflow : do not test positions overlapping 2 memory segments */
; 592  :                   && (ZSTD_readMINMATCH(ip, minMatch) == ZSTD_readMINMATCH(repMatch, minMatch)) ) {

	xor	edx, edx
	mov	eax, DWORD PTR current$1$[rsp]
	sub	eax, ecx
	mov	r9d, r10d
	sub	eax, DWORD PTR dmsLowLimit$1$[rsp]
	sub	r9, rcx
	add	r9, QWORD PTR dmsBase$1$[rbp-256]
	mov	ecx, DWORD PTR dictLimit$1$[rbp-256]
	cmp	r11d, eax
	setb	dl
	sub	ecx, r10d
	xor	r11d, r11d
	dec	ecx
	cmp	ecx, 3
	mov	eax, r11d
	setae	al
	test	edx, eax
	je	SHORT $LN1971@ZSTD_compr

; 330  :     case 4 : return MEM_read32(memPtr);

	mov	eax, DWORD PTR [rsi]

; 592  :                   && (ZSTD_readMINMATCH(ip, minMatch) == ZSTD_readMINMATCH(repMatch, minMatch)) ) {

	cmp	eax, DWORD PTR [r9]
	jne	SHORT $LN1971@ZSTD_compr

; 593  :                     repLen = (U32)ZSTD_count_2segments(ip+minMatch, repMatch+minMatch, iLimit, dmsEnd, prefixStart) + minMatch;

	mov	rax, QWORD PTR prefixStart$1$[rbp-256]
	lea	rdx, QWORD PTR [r9+4]
	mov	r9, QWORD PTR dmsEnd$1$[rsp]
	lea	rcx, QWORD PTR [rsi+4]
	mov	r8, QWORD PTR iend$1$[rsp]
	mov	QWORD PTR [rsp+32], rax
	call	ZSTD_count_2segments
	lea	r8d, DWORD PTR [rax+4]
$LN2052@ZSTD_compr:

; 594  :             }   }
; 595  :             /* save longer solution */
; 596  :             if (repLen > bestLength) {

	xor	r11d, r11d
$LN1971@ZSTD_compr:
	mov	r9d, DWORD PTR nbMatches$1$[rbp-256]
$LN1117@ZSTD_compr:
	mov	r10, QWORD PTR iend$1$[rsp]
	mov	edx, r8d
	cmp	rdx, QWORD PTR bestLength$1$[rbp-256]
	jbe	SHORT $LN1106@ZSTD_compr

; 597  :                 DEBUGLOG(8, "found repCode %u (ll0:%u, offset:%u) of length %u",
; 598  :                             repCode, ll0, repOffset, repLen);
; 599  :                 bestLength = repLen;
; 600  :                 matches[mnum].off = repCode - ll0;

	mov	rcx, QWORD PTR matches$1$[rbp-256]
	mov	eax, r9d

; 601  :                 matches[mnum].len = (U32)repLen;
; 602  :                 mnum++;

	inc	r9d
	lea	rcx, QWORD PTR [rcx+rax*8]
	mov	eax, edi
	mov	DWORD PTR [rcx+4], r8d
	sub	eax, DWORD PTR ll0$1$[rsp]
	mov	DWORD PTR [rcx], eax

; 603  :                 if ( (repLen > sufficient_len)
; 604  :                    | (ip+repLen == iLimit) ) {  /* best possible */

	lea	rax, QWORD PTR [rdx+rsi]
	cmp	rax, r10
	mov	QWORD PTR bestLength$1$[rbp-256], rdx
	mov	ecx, r11d
	mov	DWORD PTR nbMatches$1$[rbp-256], r9d
	sete	cl
	mov	eax, r11d
	cmp	r8d, DWORD PTR sufficient_len$1$[rbp-256]
	seta	al
	or	ecx, eax
	jne	$LN935@ZSTD_compr
$LN1106@ZSTD_compr:

; 565  :         U32 repCode;
; 566  :         for (repCode = ll0; repCode < lastR; repCode++) {

	mov	edx, DWORD PTR tv13800[rbp-256]
	inc	edi
	mov	rcx, QWORD PTR rep$1$[rbp-256]
	add	r15, 4
	cmp	edi, r12d
	jb	$LL1995@ZSTD_compr

; 636  :         }   }   }
; 637  :         /* no dictMatchState lookup: dicts don't have a populated HC3 table */
; 638  :     }
; 639  : 
; 640  :     hashTable[h] = current;   /* Update Hash Table */

	mov	rcx, QWORD PTR tv13803[rbp-256]
	mov	eax, DWORD PTR current$1$[rsp]
	mov	DWORD PTR [rcx], eax

; 641  : 
; 642  :     while (nbCompares-- && (matchIndex >= matchLow)) {

	test	r13d, r13d
	je	$LN1787@ZSTD_compr
	npad	2
$LL1109@ZSTD_compr:
	dec	r13d
	cmp	r14d, DWORD PTR matchLow$1$[rbp-256]
	jb	$LN1977@ZSTD_compr

; 643  :         U32* const nextPtr = bt + 2*(matchIndex & btMask);

	mov	eax, DWORD PTR btMask$1$[rbp-256]

; 644  :         const BYTE* match;
; 645  :         size_t matchLength = MIN(commonLengthSmaller, commonLengthLarger);   /* guaranteed minimum nb of common bytes */
; 646  :         assert(current > matchIndex);
; 647  : 
; 648  :         if ((dictMode == ZSTD_noDict) || (dictMode == ZSTD_dictMatchState) || (matchIndex+matchLength >= dictLimit)) {
; 649  :             assert(matchIndex+matchLength >= dictLimit);  /* ensure the condition is correct when !extDict */
; 650  :             match = base + matchIndex;
; 651  :             if (matchIndex >= dictLimit) assert(memcmp(match, ip, matchLength) == 0);  /* ensure early section of match is equal as expected */
; 652  :             matchLength += ZSTD_count(ip+matchLength, match+matchLength, iLimit);

	mov	r8, r10
	mov	rcx, QWORD PTR bt$1$[rbp-256]
	and	eax, r14d
	add	eax, eax
	mov	r15d, r14d
	lea	r12, QWORD PTR [rcx+rax*4]
	mov	rcx, QWORD PTR commonLengthLarger$1$[rbp-256]
	cmp	QWORD PTR commonLengthSmaller$1$[rbp-256], rcx
	mov	rdi, rcx
	cmovb	rdi, QWORD PTR commonLengthSmaller$1$[rbp-256]
	add	r15, QWORD PTR base$1$[rsp]
	lea	rcx, QWORD PTR [rdi+rsi]
	lea	rdx, QWORD PTR [r15+rdi]
	call	ZSTD_count
	add	rdi, rax

; 653  :         } else {
; 654  :             match = dictBase + matchIndex;
; 655  :             assert(memcmp(match, ip, matchLength) == 0);  /* ensure early section of match is equal as expected */
; 656  :             matchLength += ZSTD_count_2segments(ip+matchLength, match+matchLength, iLimit, dictEnd, prefixStart);
; 657  :             if (matchIndex+matchLength >= dictLimit)
; 658  :                 match = base + matchIndex;   /* prepare for match[matchLength] read */
; 659  :         }
; 660  : 
; 661  :         if (matchLength > bestLength) {

	cmp	rdi, QWORD PTR bestLength$1$[rbp-256]
	jbe	$LN2013@ZSTD_compr

; 662  :             DEBUGLOG(8, "found match of length %u at distance %u (offCode=%u)",
; 663  :                     (U32)matchLength, current - matchIndex, current - matchIndex + ZSTD_REP_MOVE);
; 664  :             assert(matchEndIdx > matchIndex);
; 665  :             if (matchLength > matchEndIdx - matchIndex)

	mov	eax, DWORD PTR matchEndIdx$1$[rsp]
	mov	edx, edi
	sub	eax, r14d
	cmp	rdi, rax
	jbe	SHORT $LN1133@ZSTD_compr

; 666  :                 matchEndIdx = matchIndex + (U32)matchLength;

	lea	eax, DWORD PTR [rdi+r14]
	mov	DWORD PTR matchEndIdx$1$[rsp], eax
$LN1133@ZSTD_compr:

; 667  :             bestLength = matchLength;
; 668  :             matches[mnum].off = (current - matchIndex) + ZSTD_REP_MOVE;

	mov	r8d, DWORD PTR nbMatches$1$[rbp-256]

; 669  :             matches[mnum].len = (U32)matchLength;
; 670  :             mnum++;
; 671  :             if ( (matchLength > ZSTD_OPT_NUM)
; 672  :                | (ip+matchLength == iLimit) /* equal : no way to know if inf or sup */) {

	xor	r11d, r11d
	mov	eax, DWORD PTR current$1$[rsp]
	mov	rcx, QWORD PTR matches$1$[rbp-256]
	sub	eax, r14d
	mov	r10, QWORD PTR iend$1$[rsp]
	lea	rcx, QWORD PTR [rcx+r8*8]
	add	eax, 2
	mov	DWORD PTR [rcx+4], edx
	mov	DWORD PTR [rcx], eax
	inc	r8d
	lea	rax, QWORD PTR [rdi+rsi]
	mov	QWORD PTR bestLength$1$[rbp-256], rdi
	cmp	rax, r10
	mov	DWORD PTR nbMatches$1$[rbp-256], r8d
	mov	ecx, r11d
	mov	eax, r11d
	sete	cl
	cmp	rdi, 4096				; 00001000H
	seta	al
	or	ecx, eax
	je	SHORT $LN1134@ZSTD_compr

; 673  :                 if (dictMode == ZSTD_dictMatchState) nbCompares = 0; /* break should also skip searching dms */

	mov	rax, QWORD PTR smallerPtr$1$[rsp]
	mov	rcx, QWORD PTR largerPtr$1$[rsp]
	mov	DWORD PTR [rcx], r11d
	mov	DWORD PTR [rax], r11d

; 737  :     ms->nextToUpdate = matchEndIdx - 8;  /* skip repetitive patterns */

	mov	eax, DWORD PTR matchEndIdx$1$[rsp]

; 763  :     case 6 : return ZSTD_insertBtAndGetAllMatches(matches, ms, nextToUpdate3, ip, iHighLimit, dictMode, rep, ll0, lengthToBeat, 6);

	jmp	$LN2046@ZSTD_compr
$LN2013@ZSTD_compr:

; 661  :         if (matchLength > bestLength) {

	mov	r10, QWORD PTR iend$1$[rsp]
	xor	r11d, r11d
$LN1134@ZSTD_compr:

; 675  :             }
; 676  :         }
; 677  : 
; 678  :         if (match[matchLength] < ip[matchLength]) {

	movzx	eax, BYTE PTR [rdi+rsi]
	cmp	BYTE PTR [r15+rdi], al
	jae	SHORT $LN1136@ZSTD_compr

; 679  :             /* match smaller than current */
; 680  :             *smallerPtr = matchIndex;             /* update smaller idx */

	mov	rax, QWORD PTR smallerPtr$1$[rsp]

; 681  :             commonLengthSmaller = matchLength;    /* all smaller will now have at least this guaranteed common length */

	mov	QWORD PTR commonLengthSmaller$1$[rbp-256], rdi
	mov	DWORD PTR [rax], r14d

; 682  :             if (matchIndex <= btLow) { smallerPtr=&dummy32; break; }   /* beyond tree size, stop the search */

	cmp	r14d, DWORD PTR tv13684[rbp-256]
	jbe	$LN1747@ZSTD_compr

; 683  :             smallerPtr = nextPtr+1;               /* new candidate => larger than match, which was smaller than current */

	add	r12, 4
	mov	QWORD PTR smallerPtr$1$[rsp], r12

; 685  :         } else {

	jmp	SHORT $LN2047@ZSTD_compr
$LN1136@ZSTD_compr:

; 686  :             *largerPtr = matchIndex;

	mov	rcx, QWORD PTR largerPtr$1$[rsp]

; 687  :             commonLengthLarger = matchLength;

	mov	QWORD PTR commonLengthLarger$1$[rbp-256], rdi
	mov	DWORD PTR [rcx], r14d

; 688  :             if (matchIndex <= btLow) { largerPtr=&dummy32; break; }   /* beyond tree size, stop the search */

	cmp	r14d, DWORD PTR tv13684[rbp-256]
	jbe	$LN1748@ZSTD_compr

; 689  :             largerPtr = nextPtr;

	mov	QWORD PTR largerPtr$1$[rsp], r12
$LN2047@ZSTD_compr:

; 641  : 
; 642  :     while (nbCompares-- && (matchIndex >= matchLow)) {

	mov	r14d, DWORD PTR [r12]
	test	r13d, r13d
	jne	$LL1109@ZSTD_compr
$LN1787@ZSTD_compr:
	dec	r13d
$LN1977@ZSTD_compr:

; 691  :     }   }
; 692  : 
; 693  :     *smallerPtr = *largerPtr = 0;

	mov	rax, QWORD PTR smallerPtr$1$[rsp]
$LN1110@ZSTD_compr:
	mov	rcx, QWORD PTR largerPtr$1$[rsp]
	mov	DWORD PTR [rcx], r11d
	mov	DWORD PTR [rax], r11d

; 694  : 
; 695  :     if (dictMode == ZSTD_dictMatchState && nbCompares) {

	test	r13d, r13d
	je	$LN1743@ZSTD_compr

; 696  :         size_t const dmsH = ZSTD_hashPtr(ip, dmsHashLog, mls);

	mov	edx, DWORD PTR dmsHashLog$1$[rbp-256]
	mov	r8d, 4
	mov	rcx, rsi
	call	ZSTD_hashPtr

; 697  :         U32 dictMatchIndex = dms->hashTable[dmsH];

	mov	r8, QWORD PTR dms$1$[rbp-256]
	mov	ebx, DWORD PTR nbMatches$1$[rbp-256]
	mov	rcx, QWORD PTR [r8+48]

; 698  :         const U32* const dmsBt = dms->chainTable;

	mov	r8, QWORD PTR [r8+64]
	mov	QWORD PTR dmsBt$1$[rbp-256], r8
	mov	r15d, DWORD PTR [rcx+rax*4]

; 699  :         commonLengthSmaller = commonLengthLarger = 0;

	xor	ecx, ecx
	xor	edx, edx
	mov	QWORD PTR commonLengthLarger$2$[rbp-256], rcx
	mov	QWORD PTR commonLengthSmaller$2$[rbp-256], rdx
$LL1111@ZSTD_compr:

; 700  :         while (nbCompares-- && (dictMatchIndex > dmsLowLimit)) {

	dec	r13d
	cmp	r15d, DWORD PTR dmsLowLimit$1$[rsp]
	jbe	$LN1964@ZSTD_compr

; 703  :             const BYTE* match = dmsBase + dictMatchIndex;

	mov	r14, QWORD PTR dmsBase$1$[rbp-256]
	mov	rdi, rcx

; 704  :             matchLength += ZSTD_count_2segments(ip+matchLength, match+matchLength, iLimit, dmsEnd, prefixStart);

	mov	r9, QWORD PTR dmsEnd$1$[rsp]
	mov	eax, r15d
	and	eax, DWORD PTR dmsBtMask$1$[rbp-256]
	add	eax, eax
	mov	r12d, r15d
	cmp	rdx, rcx
	cmovb	rdi, rdx
	add	r14, r12
	lea	rax, QWORD PTR [r8+rax*4]
	mov	r8, QWORD PTR iend$1$[rsp]
	mov	QWORD PTR nextPtr$1$[rbp-256], rax
	mov	rax, QWORD PTR prefixStart$1$[rbp-256]
	lea	rdx, QWORD PTR [r14+rdi]
	mov	QWORD PTR [rsp+32], rax
	lea	rcx, QWORD PTR [rdi+rsi]
	call	ZSTD_count_2segments
	add	rdi, rax

; 705  :             if (dictMatchIndex+matchLength >= dmsHighLimit)

	mov	eax, DWORD PTR dmsHighLimit$1$[rbp-256]
	lea	rcx, QWORD PTR [r12+rdi]
	cmp	rcx, rax
	jb	SHORT $LN1998@ZSTD_compr

; 706  :                 match = base + dictMatchIndex + dmsIndexDelta;   /* to prepare for next usage of match[matchLength] */

	mov	eax, DWORD PTR dmsIndexDelta$1$[rsp]
	lea	r14, QWORD PTR [r12+rax]
	add	r14, QWORD PTR base$1$[rsp]
	jmp	SHORT $LN1141@ZSTD_compr
$LN1747@ZSTD_compr:

; 682  :             if (matchIndex <= btLow) { smallerPtr=&dummy32; break; }   /* beyond tree size, stop the search */

	lea	rax, QWORD PTR dummy32$2[rbp-256]
	jmp	$LN1110@ZSTD_compr
$LN1748@ZSTD_compr:

; 688  :             if (matchIndex <= btLow) { largerPtr=&dummy32; break; }   /* beyond tree size, stop the search */

	lea	rax, QWORD PTR dummy32$2[rbp-256]
	mov	QWORD PTR largerPtr$1$[rsp], rax
	jmp	$LN1977@ZSTD_compr
$LN1998@ZSTD_compr:

; 705  :             if (dictMatchIndex+matchLength >= dmsHighLimit)

	mov	eax, DWORD PTR dmsIndexDelta$1$[rsp]
$LN1141@ZSTD_compr:

; 707  : 
; 708  :             if (matchLength > bestLength) {

	cmp	rdi, QWORD PTR bestLength$1$[rbp-256]
	jbe	SHORT $LN1144@ZSTD_compr

; 709  :                 matchIndex = dictMatchIndex + dmsIndexDelta;

	lea	edx, DWORD PTR [r15+rax]

; 710  :                 DEBUGLOG(8, "found dms match of length %u at distance %u (offCode=%u)",
; 711  :                         (U32)matchLength, current - matchIndex, current - matchIndex + ZSTD_REP_MOVE);
; 712  :                 if (matchLength > matchEndIdx - matchIndex)

	mov	eax, DWORD PTR matchEndIdx$1$[rsp]
	sub	eax, edx
	cmp	rdi, rax
	jbe	SHORT $LN1854@ZSTD_compr

; 713  :                     matchEndIdx = matchIndex + (U32)matchLength;

	lea	eax, DWORD PTR [rdi+rdx]
	mov	DWORD PTR matchEndIdx$1$[rsp], eax
$LN1854@ZSTD_compr:

; 714  :                 bestLength = matchLength;
; 715  :                 matches[mnum].off = (current - matchIndex) + ZSTD_REP_MOVE;

	mov	rcx, QWORD PTR matches$1$[rbp-256]

; 718  :                 if ( (matchLength > ZSTD_OPT_NUM)
; 719  :                    | (ip+matchLength == iLimit) /* equal : no way to know if inf or sup */) {

	xor	r9d, r9d
	mov	eax, ebx
	inc	ebx
	lea	rcx, QWORD PTR [rcx+rax*8]
	mov	eax, DWORD PTR current$1$[rsp]
	sub	eax, edx
	mov	DWORD PTR [rcx+4], edi
	add	eax, 2
	mov	QWORD PTR bestLength$1$[rbp-256], rdi
	mov	DWORD PTR [rcx], eax
	lea	rax, QWORD PTR [rdi+rsi]
	cmp	rax, QWORD PTR iend$1$[rsp]
	mov	ecx, r9d
	mov	eax, r9d
	sete	cl
	cmp	rdi, 4096				; 00001000H
	seta	al
	or	ecx, eax
	jne	$LN1964@ZSTD_compr
$LN1144@ZSTD_compr:

; 720  :                     break;   /* drop, to guarantee consistency (miss a little bit of compression) */
; 721  :                 }
; 722  :             }
; 723  : 
; 724  :             if (dictMatchIndex <= dmsBtLow) { break; }   /* beyond tree size, stop the search */

	cmp	r15d, DWORD PTR tv13724[rbp-256]
	jbe	$LN1964@ZSTD_compr

; 725  :             if (match[matchLength] < ip[matchLength]) {

	movzx	eax, BYTE PTR [rdi+rsi]
	cmp	BYTE PTR [r14+rdi], al
	mov	rax, QWORD PTR nextPtr$1$[rbp-256]
	jae	SHORT $LN1146@ZSTD_compr

; 726  :                 commonLengthSmaller = matchLength;    /* all smaller will now have at least this guaranteed common length */
; 727  :                 dictMatchIndex = nextPtr[1];              /* new matchIndex larger than previous (closer to current) */

	mov	r15d, DWORD PTR [rax+4]
	mov	rdx, rdi

; 728  :             } else {

	mov	rcx, QWORD PTR commonLengthLarger$2$[rbp-256]
	mov	QWORD PTR commonLengthSmaller$2$[rbp-256], rdx
	jmp	SHORT $LN1147@ZSTD_compr
$LN1146@ZSTD_compr:

; 731  :                 dictMatchIndex = nextPtr[0];

	mov	r15d, DWORD PTR [rax]
	mov	rcx, rdi
	mov	rdx, QWORD PTR commonLengthSmaller$2$[rbp-256]

; 729  :                 /* match is larger than current */
; 730  :                 commonLengthLarger = matchLength;

	mov	QWORD PTR commonLengthLarger$2$[rbp-256], rcx
$LN1147@ZSTD_compr:

; 700  :         while (nbCompares-- && (dictMatchIndex > dmsLowLimit)) {

	mov	r8, QWORD PTR dmsBt$1$[rbp-256]
	test	r13d, r13d
	jne	$LL1111@ZSTD_compr

; 732  :             }
; 733  :         }
; 734  :     }
; 735  : 
; 736  :     assert(matchEndIdx > current+8);
; 737  :     ms->nextToUpdate = matchEndIdx - 8;  /* skip repetitive patterns */

	mov	eax, DWORD PTR matchEndIdx$1$[rsp]
	mov	DWORD PTR nbMatches$1$[rbp-256], ebx
	mov	ebx, DWORD PTR seqPos$1$[rsp]

; 760  :     case 4 : return ZSTD_insertBtAndGetAllMatches(matches, ms, nextToUpdate3, ip, iHighLimit, dictMode, rep, ll0, lengthToBeat, 4);

	jmp	$LN2046@ZSTD_compr
$LN928@ZSTD_compr:

; 520  :     U32 const sufficient_len = MIN(cParams->targetLength, ZSTD_OPT_NUM -1);

	mov	eax, DWORD PTR [r12+204]

; 523  :     U32 const hashLog = cParams->hashLog;
; 524  :     U32 const minMatch = (mls==3) ? 3 : 4;
; 525  :     U32* const hashTable = ms->hashTable;
; 526  :     size_t const h  = ZSTD_hashPtr(ip, hashLog, mls);

	mov	r8d, 5
	cmp	eax, ecx
	cmovb	ecx, eax
	mov	rax, QWORD PTR [r12+8]
	sub	r13d, eax
	mov	DWORD PTR sufficient_len$1$[rbp-256], ecx
	mov	rcx, rsi
	mov	DWORD PTR current$1$[rsp], r13d
	mov	QWORD PTR base$1$[rsp], rax
	call	ZSTD_hashPtr

; 528  :     U32* const bt   = ms->chainTable;
; 529  :     U32 const btLog = cParams->chainLog - 1;

	mov	r9, QWORD PTR ms$[rbp-256]

; 530  :     U32 const btMask= (1U << btLog) - 1;
; 531  :     size_t commonLengthSmaller=0, commonLengthLarger=0;
; 532  :     const BYTE* const dictBase = ms->window.dictBase;
; 533  :     U32 const dictLimit = ms->window.dictLimit;
; 534  :     const BYTE* const dictEnd = dictBase + dictLimit;
; 535  :     const BYTE* const prefixStart = base + dictLimit;
; 536  :     U32 const btLow = (btMask >= current) ? 0 : current - btMask;
; 537  :     U32 const windowLow = ZSTD_getLowestMatchIndex(ms, current, cParams->windowLog);

	mov	edx, r13d
	mov	r14d, DWORD PTR [rdi+rax*4]
	mov	r12, QWORD PTR [r12+64]
	lea	rax, QWORD PTR [rdi+rax*4]
	mov	QWORD PTR bt$1$[rbp-256], r12
	mov	r15d, DWORD PTR [r9+24]
	mov	edi, 1
	mov	ecx, DWORD PTR [r9+188]
	mov	r8d, DWORD PTR [r9+184]
	dec	ecx
	shl	edi, cl
	xor	ecx, ecx
	mov	QWORD PTR tv13793[rbp-256], rax
	dec	edi
	mov	QWORD PTR commonLengthSmaller$1$[rbp-256], rcx
	mov	eax, r15d
	add	rax, QWORD PTR base$1$[rsp]
	mov	QWORD PTR prefixStart$1$[rbp-256], rax
	mov	eax, r13d
	sub	eax, edi
	mov	QWORD PTR commonLengthLarger$1$[rbp-256], rcx
	cmp	edi, r13d
	mov	DWORD PTR btMask$1$[rbp-256], edi
	mov	DWORD PTR dictLimit$1$[rbp-256], r15d
	cmovb	ecx, eax
	mov	DWORD PTR tv13683[rbp-256], ecx
	mov	rcx, r9
	call	ZSTD_getLowestMatchIndex
	mov	edx, eax
	mov	DWORD PTR windowLow$1$[rbp-256], eax

; 538  :     U32 const matchLow = windowLow ? windowLow : 1;

	test	edx, edx

; 539  :     U32* smallerPtr = bt + 2*(current&btMask);

	mov	ecx, edi
	mov	eax, 1
	cmovne	eax, edx
	and	ecx, r13d
	add	ecx, ecx
	mov	DWORD PTR matchLow$1$[rbp-256], eax

; 540  :     U32* largerPtr  = bt + 2*(current&btMask) + 1;
; 541  :     U32 matchEndIdx = current+8+1;   /* farthest referenced position of any match => detects repetitive patterns */
; 542  :     U32 dummy32;   /* to be nullified at the end */
; 543  :     U32 mnum = 0;

	xor	r11d, r11d
	mov	DWORD PTR nbMatches$1$[rbp-256], r11d
	lea	rax, QWORD PTR [r12+rcx*4]
	mov	QWORD PTR smallerPtr$1$[rsp], rax
	add	rax, 4
	mov	QWORD PTR largerPtr$1$[rsp], rax
	lea	eax, DWORD PTR [r13+9]
	mov	DWORD PTR matchEndIdx$1$[rsp], eax

; 544  :     U32 nbCompares = 1U << cParams->searchLog;

	mov	r13d, 1
	mov	rax, QWORD PTR ms$[rbp-256]
	mov	ecx, DWORD PTR [rax+196]

; 545  : 
; 546  :     const ZSTD_matchState_t* dms    = dictMode == ZSTD_dictMatchState ? ms->dictMatchState : NULL;

	mov	rax, QWORD PTR [rax+176]
	shl	r13d, cl
	mov	QWORD PTR dms$1$[rbp-256], rax

; 547  :     const ZSTD_compressionParameters* const dmsCParams =
; 548  :                                       dictMode == ZSTD_dictMatchState ? &dms->cParams : NULL;
; 549  :     const BYTE* const dmsBase       = dictMode == ZSTD_dictMatchState ? dms->window.base : NULL;
; 550  :     const BYTE* const dmsEnd        = dictMode == ZSTD_dictMatchState ? dms->window.nextSrc : NULL;

	mov	rcx, QWORD PTR [rax]
	mov	r8, QWORD PTR [rax+8]

; 551  :     U32         const dmsHighLimit  = dictMode == ZSTD_dictMatchState ? (U32)(dmsEnd - dmsBase) : 0;

	mov	r9d, ecx
	sub	r9d, r8d
	mov	QWORD PTR dmsEnd$1$[rsp], rcx

; 552  :     U32         const dmsLowLimit   = dictMode == ZSTD_dictMatchState ? dms->window.lowLimit : 0;
; 553  :     U32         const dmsIndexDelta = dictMode == ZSTD_dictMatchState ? windowLow - dmsHighLimit : 0;
; 554  :     U32         const dmsHashLog    = dictMode == ZSTD_dictMatchState ? dmsCParams->hashLog : hashLog;

	mov	ecx, DWORD PTR [rax+192]
	sub	edx, r9d
	mov	DWORD PTR dmsIndexDelta$1$[rsp], edx

; 556  :     U32         const dmsBtMask     = dictMode == ZSTD_dictMatchState ? (1U << dmsBtLog) - 1 : 0;

	mov	edx, 1
	mov	DWORD PTR dmsHashLog$1$[rbp-256], ecx
	mov	ecx, DWORD PTR [rax+188]
	dec	ecx
	mov	QWORD PTR dmsBase$1$[rbp-256], r8
	mov	r8d, DWORD PTR [rax+28]
	shl	edx, cl
	dec	edx
	mov	DWORD PTR dmsHighLimit$1$[rbp-256], r9d
	mov	DWORD PTR dmsLowLimit$1$[rsp], r8d

; 557  :     U32         const dmsBtLow      = dictMode == ZSTD_dictMatchState && dmsBtMask < dmsHighLimit - dmsLowLimit ? dmsHighLimit - dmsBtMask : dmsLowLimit;

	mov	eax, r9d
	mov	DWORD PTR dmsBtMask$1$[rbp-256], edx
	sub	eax, r8d

; 558  : 
; 559  :     size_t bestLength = lengthToBeat-1;

	mov	ecx, r9d
	sub	ecx, edx
	cmp	edx, eax
	mov	rax, QWORD PTR tv13857[rbp-256]
	mov	QWORD PTR bestLength$1$[rbp-256], rax

; 560  :     DEBUGLOG(8, "ZSTD_insertBtAndGetAllMatches: current=%u", current);
; 561  : 
; 562  :     /* check repCode */
; 563  :     assert(ll0 <= 1);   /* necessarily 1 or 0 */
; 564  :     {   U32 const lastR = ZSTD_REP_NUM + ll0;

	mov	eax, DWORD PTR ll0$1$[rsp]
	cmovae	ecx, r8d
	mov	r8, QWORD PTR rep$1$[rbp-256]

; 565  :         U32 repCode;
; 566  :         for (repCode = ll0; repCode < lastR; repCode++) {

	mov	edi, eax
	mov	DWORD PTR tv13718[rbp-256], ecx
	mov	ecx, DWORD PTR current$1$[rsp]
	mov	edx, ecx
	sub	edx, r15d

; 560  :     DEBUGLOG(8, "ZSTD_insertBtAndGetAllMatches: current=%u", current);
; 561  : 
; 562  :     /* check repCode */
; 563  :     assert(ll0 <= 1);   /* necessarily 1 or 0 */
; 564  :     {   U32 const lastR = ZSTD_REP_NUM + ll0;

	lea	r12d, DWORD PTR [rax+3]
	mov	DWORD PTR tv13790[rbp-256], edx

; 521  :     const BYTE* const base = ms->window.base;

	lea	r15, QWORD PTR [r8+rax*4]

; 565  :         U32 repCode;
; 566  :         for (repCode = ll0; repCode < lastR; repCode++) {

	jmp	SHORT $LN1278@ZSTD_compr
	npad	6
$LL1996@ZSTD_compr:
	mov	ecx, DWORD PTR current$1$[rsp]
$LN1278@ZSTD_compr:

; 567  :             U32 const repOffset = (repCode==ZSTD_REP_NUM) ? (rep[0] - 1) : rep[repCode];

	cmp	edi, 3
	jne	SHORT $LN1345@ZSTD_compr
	mov	eax, DWORD PTR [r8]
	dec	eax
	jmp	SHORT $LN1346@ZSTD_compr
$LN1345@ZSTD_compr:
	mov	eax, DWORD PTR [r15]
$LN1346@ZSTD_compr:

; 568  :             U32 const repIndex = current - repOffset;

	mov	r10d, ecx

; 569  :             U32 repLen = 0;

	xor	r8d, r8d
	sub	r10d, eax

; 570  :             assert(current >= dictLimit);
; 571  :             if (repOffset-1 /* intentional overflow, discards 0 and -1 */ < current-dictLimit) {  /* equivalent to `current > repIndex >= dictLimit` */

	lea	ecx, DWORD PTR [rax-1]
	cmp	ecx, edx
	jae	SHORT $LN1283@ZSTD_compr

; 330  :     case 4 : return MEM_read32(memPtr);

	mov	edx, DWORD PTR [rsi]

; 575  :                 if ((repIndex >= windowLow) & (ZSTD_readMINMATCH(ip, minMatch) == ZSTD_readMINMATCH(ip - repOffset, minMatch))) {

	xor	ecx, ecx
	mov	r9d, eax
	neg	r9
	cmp	r10d, DWORD PTR windowLow$1$[rbp-256]
	setae	cl
	xor	r10d, r10d
	cmp	edx, DWORD PTR [r9+rsi]
	mov	eax, r10d
	sete	al
	test	ecx, eax
	je	$LN1287@ZSTD_compr

; 576  :                     repLen = (U32)ZSTD_count(ip+minMatch, ip+minMatch-repOffset, iLimit) + minMatch;

	mov	r8, QWORD PTR iend$1$[rsp]
	lea	rdx, QWORD PTR [r9+4]
	add	rdx, rsi
	lea	rcx, QWORD PTR [rsi+4]
	call	ZSTD_count
	lea	r8d, DWORD PTR [rax+4]

; 577  :                 }
; 578  :             } else {  /* repIndex < dictLimit || repIndex >= current */

	jmp	SHORT $LN2048@ZSTD_compr
$LN1283@ZSTD_compr:

; 579  :                 const BYTE* const repMatch = dictMode == ZSTD_dictMatchState ?

	mov	edx, DWORD PTR dmsIndexDelta$1$[rsp]

; 580  :                                              dmsBase + repIndex - dmsIndexDelta :
; 581  :                                              dictBase + repIndex;
; 582  :                 assert(current >= windowLow);
; 583  :                 if ( dictMode == ZSTD_extDict
; 584  :                   && ( ((repOffset-1) /*intentional overflow*/ < current - windowLow)  /* equivalent to `current > repIndex >= windowLow` */
; 585  :                      & (((U32)((dictLimit-1) - repIndex) >= 3) ) /* intentional overflow : do not test positions overlapping 2 memory segments */)
; 586  :                   && (ZSTD_readMINMATCH(ip, minMatch) == ZSTD_readMINMATCH(repMatch, minMatch)) ) {
; 587  :                     repLen = (U32)ZSTD_count_2segments(ip+minMatch, repMatch+minMatch, iLimit, dictEnd, prefixStart) + minMatch;
; 588  :                 }
; 589  :                 if (dictMode == ZSTD_dictMatchState
; 590  :                   && ( ((repOffset-1) /*intentional overflow*/ < current - (dmsLowLimit + dmsIndexDelta))  /* equivalent to `current > repIndex >= dmsLowLimit` */
; 591  :                      & ((U32)((dictLimit-1) - repIndex) >= 3) ) /* intentional overflow : do not test positions overlapping 2 memory segments */
; 592  :                   && (ZSTD_readMINMATCH(ip, minMatch) == ZSTD_readMINMATCH(repMatch, minMatch)) ) {

	mov	eax, DWORD PTR current$1$[rsp]
	sub	eax, edx
	mov	r9d, r10d
	sub	eax, DWORD PTR dmsLowLimit$1$[rsp]
	sub	r9, rdx
	add	r9, QWORD PTR dmsBase$1$[rbp-256]
	xor	edx, edx
	cmp	ecx, eax
	mov	ecx, DWORD PTR dictLimit$1$[rbp-256]
	setb	dl
	sub	ecx, r10d
	xor	r10d, r10d
	dec	ecx
	cmp	ecx, 3
	mov	eax, r10d
	setae	al
	test	edx, eax
	je	SHORT $LN1287@ZSTD_compr

; 330  :     case 4 : return MEM_read32(memPtr);

	mov	eax, DWORD PTR [rsi]

; 592  :                   && (ZSTD_readMINMATCH(ip, minMatch) == ZSTD_readMINMATCH(repMatch, minMatch)) ) {

	cmp	eax, DWORD PTR [r9]
	jne	SHORT $LN1287@ZSTD_compr

; 593  :                     repLen = (U32)ZSTD_count_2segments(ip+minMatch, repMatch+minMatch, iLimit, dmsEnd, prefixStart) + minMatch;

	mov	rax, QWORD PTR prefixStart$1$[rbp-256]
	lea	rdx, QWORD PTR [r9+4]
	mov	r9, QWORD PTR dmsEnd$1$[rsp]
	lea	rcx, QWORD PTR [rsi+4]
	mov	r8, QWORD PTR iend$1$[rsp]
	mov	QWORD PTR [rsp+32], rax
	call	ZSTD_count_2segments
	lea	r8d, DWORD PTR [rax+4]
$LN2048@ZSTD_compr:

; 594  :             }   }
; 595  :             /* save longer solution */
; 596  :             if (repLen > bestLength) {

	mov	r11d, DWORD PTR nbMatches$1$[rbp-256]
	xor	r10d, r10d
$LN1287@ZSTD_compr:
	mov	r9, QWORD PTR iend$1$[rsp]
	mov	edx, r8d
	cmp	rdx, QWORD PTR bestLength$1$[rbp-256]
	jbe	SHORT $LN1276@ZSTD_compr

; 597  :                 DEBUGLOG(8, "found repCode %u (ll0:%u, offset:%u) of length %u",
; 598  :                             repCode, ll0, repOffset, repLen);
; 599  :                 bestLength = repLen;
; 600  :                 matches[mnum].off = repCode - ll0;

	mov	rcx, QWORD PTR matches$1$[rbp-256]
	mov	eax, r11d

; 601  :                 matches[mnum].len = (U32)repLen;
; 602  :                 mnum++;

	inc	r11d
	lea	rcx, QWORD PTR [rcx+rax*8]
	mov	eax, edi
	mov	DWORD PTR [rcx+4], r8d
	sub	eax, DWORD PTR ll0$1$[rsp]
	mov	DWORD PTR [rcx], eax

; 603  :                 if ( (repLen > sufficient_len)
; 604  :                    | (ip+repLen == iLimit) ) {  /* best possible */

	lea	rax, QWORD PTR [r8+rsi]
	cmp	rax, r9
	mov	QWORD PTR bestLength$1$[rbp-256], rdx
	mov	ecx, r10d
	mov	DWORD PTR nbMatches$1$[rbp-256], r11d
	sete	cl
	mov	eax, r10d
	cmp	r8d, DWORD PTR sufficient_len$1$[rbp-256]
	seta	al
	or	ecx, eax
	jne	$LN935@ZSTD_compr
$LN1276@ZSTD_compr:

; 565  :         U32 repCode;
; 566  :         for (repCode = ll0; repCode < lastR; repCode++) {

	mov	edx, DWORD PTR tv13790[rbp-256]
	inc	edi
	mov	r8, QWORD PTR rep$1$[rbp-256]
	add	r15, 4
	cmp	edi, r12d
	jb	$LL1996@ZSTD_compr

; 636  :         }   }   }
; 637  :         /* no dictMatchState lookup: dicts don't have a populated HC3 table */
; 638  :     }
; 639  : 
; 640  :     hashTable[h] = current;   /* Update Hash Table */

	mov	rcx, QWORD PTR tv13793[rbp-256]
	mov	eax, DWORD PTR current$1$[rsp]
	mov	DWORD PTR [rcx], eax

; 641  : 
; 642  :     while (nbCompares-- && (matchIndex >= matchLow)) {

	test	r13d, r13d
	je	$LN1790@ZSTD_compr
	npad	5
$LL1279@ZSTD_compr:
	dec	r13d
	cmp	r14d, DWORD PTR matchLow$1$[rbp-256]
	jb	$LN1978@ZSTD_compr

; 643  :         U32* const nextPtr = bt + 2*(matchIndex & btMask);

	mov	eax, DWORD PTR btMask$1$[rbp-256]

; 644  :         const BYTE* match;
; 645  :         size_t matchLength = MIN(commonLengthSmaller, commonLengthLarger);   /* guaranteed minimum nb of common bytes */
; 646  :         assert(current > matchIndex);
; 647  : 
; 648  :         if ((dictMode == ZSTD_noDict) || (dictMode == ZSTD_dictMatchState) || (matchIndex+matchLength >= dictLimit)) {
; 649  :             assert(matchIndex+matchLength >= dictLimit);  /* ensure the condition is correct when !extDict */
; 650  :             match = base + matchIndex;
; 651  :             if (matchIndex >= dictLimit) assert(memcmp(match, ip, matchLength) == 0);  /* ensure early section of match is equal as expected */
; 652  :             matchLength += ZSTD_count(ip+matchLength, match+matchLength, iLimit);

	mov	r8, r9
	mov	rcx, QWORD PTR bt$1$[rbp-256]
	and	eax, r14d
	add	eax, eax
	mov	r15d, r14d
	lea	r12, QWORD PTR [rcx+rax*4]
	mov	rcx, QWORD PTR commonLengthLarger$1$[rbp-256]
	cmp	QWORD PTR commonLengthSmaller$1$[rbp-256], rcx
	mov	rdi, rcx
	cmovb	rdi, QWORD PTR commonLengthSmaller$1$[rbp-256]
	add	r15, QWORD PTR base$1$[rsp]
	lea	rcx, QWORD PTR [rdi+rsi]
	lea	rdx, QWORD PTR [r15+rdi]
	call	ZSTD_count
	add	rdi, rax

; 653  :         } else {
; 654  :             match = dictBase + matchIndex;
; 655  :             assert(memcmp(match, ip, matchLength) == 0);  /* ensure early section of match is equal as expected */
; 656  :             matchLength += ZSTD_count_2segments(ip+matchLength, match+matchLength, iLimit, dictEnd, prefixStart);
; 657  :             if (matchIndex+matchLength >= dictLimit)
; 658  :                 match = base + matchIndex;   /* prepare for match[matchLength] read */
; 659  :         }
; 660  : 
; 661  :         if (matchLength > bestLength) {

	cmp	rdi, QWORD PTR bestLength$1$[rbp-256]
	jbe	SHORT $LN2017@ZSTD_compr

; 662  :             DEBUGLOG(8, "found match of length %u at distance %u (offCode=%u)",
; 663  :                     (U32)matchLength, current - matchIndex, current - matchIndex + ZSTD_REP_MOVE);
; 664  :             assert(matchEndIdx > matchIndex);
; 665  :             if (matchLength > matchEndIdx - matchIndex)

	mov	eax, DWORD PTR matchEndIdx$1$[rsp]
	mov	edx, edi
	sub	eax, r14d
	cmp	rdi, rax
	jbe	SHORT $LN1303@ZSTD_compr

; 666  :                 matchEndIdx = matchIndex + (U32)matchLength;

	lea	eax, DWORD PTR [rdi+r14]
	mov	DWORD PTR matchEndIdx$1$[rsp], eax
$LN1303@ZSTD_compr:

; 667  :             bestLength = matchLength;
; 668  :             matches[mnum].off = (current - matchIndex) + ZSTD_REP_MOVE;

	mov	r8d, DWORD PTR nbMatches$1$[rbp-256]

; 669  :             matches[mnum].len = (U32)matchLength;
; 670  :             mnum++;
; 671  :             if ( (matchLength > ZSTD_OPT_NUM)
; 672  :                | (ip+matchLength == iLimit) /* equal : no way to know if inf or sup */) {

	xor	r10d, r10d
	mov	eax, DWORD PTR current$1$[rsp]
	mov	rcx, QWORD PTR matches$1$[rbp-256]
	sub	eax, r14d
	mov	r9, QWORD PTR iend$1$[rsp]
	lea	rcx, QWORD PTR [rcx+r8*8]
	add	eax, 2
	mov	DWORD PTR [rcx+4], edx
	mov	DWORD PTR [rcx], eax
	inc	r8d
	lea	rax, QWORD PTR [rdi+rsi]
	mov	QWORD PTR bestLength$1$[rbp-256], rdi
	cmp	rax, r9
	mov	DWORD PTR nbMatches$1$[rbp-256], r8d
	mov	ecx, r10d
	mov	eax, r10d
	sete	cl
	cmp	rdi, 4096				; 00001000H
	seta	al
	or	ecx, eax
	jne	$LN1740@ZSTD_compr

; 653  :         } else {
; 654  :             match = dictBase + matchIndex;
; 655  :             assert(memcmp(match, ip, matchLength) == 0);  /* ensure early section of match is equal as expected */
; 656  :             matchLength += ZSTD_count_2segments(ip+matchLength, match+matchLength, iLimit, dictEnd, prefixStart);
; 657  :             if (matchIndex+matchLength >= dictLimit)
; 658  :                 match = base + matchIndex;   /* prepare for match[matchLength] read */
; 659  :         }
; 660  : 
; 661  :         if (matchLength > bestLength) {

	jmp	SHORT $LN1304@ZSTD_compr
$LN2017@ZSTD_compr:
	mov	r9, QWORD PTR iend$1$[rsp]
	xor	r10d, r10d
$LN1304@ZSTD_compr:

; 675  :             }
; 676  :         }
; 677  : 
; 678  :         if (match[matchLength] < ip[matchLength]) {

	movzx	eax, BYTE PTR [rdi+rsi]
	cmp	BYTE PTR [r15+rdi], al
	jae	SHORT $LN1306@ZSTD_compr

; 679  :             /* match smaller than current */
; 680  :             *smallerPtr = matchIndex;             /* update smaller idx */

	mov	rax, QWORD PTR smallerPtr$1$[rsp]

; 681  :             commonLengthSmaller = matchLength;    /* all smaller will now have at least this guaranteed common length */

	mov	QWORD PTR commonLengthSmaller$1$[rbp-256], rdi
	mov	DWORD PTR [rax], r14d

; 682  :             if (matchIndex <= btLow) { smallerPtr=&dummy32; break; }   /* beyond tree size, stop the search */

	cmp	r14d, DWORD PTR tv13683[rbp-256]
	jbe	$LN1753@ZSTD_compr

; 683  :             smallerPtr = nextPtr+1;               /* new candidate => larger than match, which was smaller than current */

	add	r12, 4
	mov	QWORD PTR smallerPtr$1$[rsp], r12

; 685  :         } else {

	jmp	SHORT $LN2049@ZSTD_compr
$LN1306@ZSTD_compr:

; 686  :             *largerPtr = matchIndex;

	mov	rcx, QWORD PTR largerPtr$1$[rsp]

; 687  :             commonLengthLarger = matchLength;

	mov	QWORD PTR commonLengthLarger$1$[rbp-256], rdi
	mov	DWORD PTR [rcx], r14d

; 688  :             if (matchIndex <= btLow) { largerPtr=&dummy32; break; }   /* beyond tree size, stop the search */

	cmp	r14d, DWORD PTR tv13683[rbp-256]
	jbe	$LN1754@ZSTD_compr

; 689  :             largerPtr = nextPtr;

	mov	QWORD PTR largerPtr$1$[rsp], r12
$LN2049@ZSTD_compr:

; 641  : 
; 642  :     while (nbCompares-- && (matchIndex >= matchLow)) {

	mov	r14d, DWORD PTR [r12]
	test	r13d, r13d
	jne	$LL1279@ZSTD_compr
$LN1790@ZSTD_compr:
	dec	r13d
$LN1978@ZSTD_compr:

; 691  :     }   }
; 692  : 
; 693  :     *smallerPtr = *largerPtr = 0;

	mov	rax, QWORD PTR smallerPtr$1$[rsp]
$LN1280@ZSTD_compr:
	mov	rcx, QWORD PTR largerPtr$1$[rsp]
	mov	DWORD PTR [rcx], r10d
	mov	DWORD PTR [rax], r10d

; 694  : 
; 695  :     if (dictMode == ZSTD_dictMatchState && nbCompares) {

	test	r13d, r13d
	je	$LN1743@ZSTD_compr

; 696  :         size_t const dmsH = ZSTD_hashPtr(ip, dmsHashLog, mls);

	mov	edx, DWORD PTR dmsHashLog$1$[rbp-256]
	mov	r8d, 5
	mov	rcx, rsi
	call	ZSTD_hashPtr

; 697  :         U32 dictMatchIndex = dms->hashTable[dmsH];

	mov	r8, QWORD PTR dms$1$[rbp-256]
	mov	ebx, DWORD PTR nbMatches$1$[rbp-256]
	mov	rcx, QWORD PTR [r8+48]

; 698  :         const U32* const dmsBt = dms->chainTable;

	mov	r8, QWORD PTR [r8+64]
	mov	QWORD PTR dmsBt$1$[rbp-256], r8
	mov	r15d, DWORD PTR [rcx+rax*4]

; 699  :         commonLengthSmaller = commonLengthLarger = 0;

	xor	ecx, ecx
	xor	edx, edx
	mov	QWORD PTR commonLengthLarger$2$[rbp-256], rcx
	mov	QWORD PTR commonLengthSmaller$2$[rbp-256], rdx
	npad	6
$LL1281@ZSTD_compr:

; 700  :         while (nbCompares-- && (dictMatchIndex > dmsLowLimit)) {

	dec	r13d
	cmp	r15d, DWORD PTR dmsLowLimit$1$[rsp]
	jbe	$LN1964@ZSTD_compr

; 703  :             const BYTE* match = dmsBase + dictMatchIndex;

	mov	r14, QWORD PTR dmsBase$1$[rbp-256]
	mov	rdi, rcx

; 704  :             matchLength += ZSTD_count_2segments(ip+matchLength, match+matchLength, iLimit, dmsEnd, prefixStart);

	mov	r9, QWORD PTR dmsEnd$1$[rsp]
	mov	eax, r15d
	and	eax, DWORD PTR dmsBtMask$1$[rbp-256]
	add	eax, eax
	mov	r12d, r15d
	cmp	rdx, rcx
	cmovb	rdi, rdx
	add	r14, r12
	lea	rax, QWORD PTR [r8+rax*4]
	mov	r8, QWORD PTR iend$1$[rsp]
	mov	QWORD PTR nextPtr$1$[rbp-256], rax
	mov	rax, QWORD PTR prefixStart$1$[rbp-256]
	lea	rdx, QWORD PTR [r14+rdi]
	mov	QWORD PTR [rsp+32], rax
	lea	rcx, QWORD PTR [rdi+rsi]
	call	ZSTD_count_2segments
	add	rdi, rax

; 705  :             if (dictMatchIndex+matchLength >= dmsHighLimit)

	mov	eax, DWORD PTR dmsHighLimit$1$[rbp-256]
	lea	rcx, QWORD PTR [r12+rdi]
	cmp	rcx, rax
	jb	SHORT $LN1999@ZSTD_compr

; 706  :                 match = base + dictMatchIndex + dmsIndexDelta;   /* to prepare for next usage of match[matchLength] */

	mov	eax, DWORD PTR dmsIndexDelta$1$[rsp]
	lea	r14, QWORD PTR [r12+rax]
	add	r14, QWORD PTR base$1$[rsp]
	jmp	SHORT $LN1311@ZSTD_compr
$LN1753@ZSTD_compr:

; 682  :             if (matchIndex <= btLow) { smallerPtr=&dummy32; break; }   /* beyond tree size, stop the search */

	lea	rax, QWORD PTR dummy32$1[rbp-256]
	jmp	$LN1280@ZSTD_compr
$LN1754@ZSTD_compr:

; 688  :             if (matchIndex <= btLow) { largerPtr=&dummy32; break; }   /* beyond tree size, stop the search */

	lea	rax, QWORD PTR dummy32$1[rbp-256]
	mov	QWORD PTR largerPtr$1$[rsp], rax
	jmp	$LN1978@ZSTD_compr
$LN1999@ZSTD_compr:

; 705  :             if (dictMatchIndex+matchLength >= dmsHighLimit)

	mov	eax, DWORD PTR dmsIndexDelta$1$[rsp]
$LN1311@ZSTD_compr:

; 707  : 
; 708  :             if (matchLength > bestLength) {

	cmp	rdi, QWORD PTR bestLength$1$[rbp-256]
	jbe	SHORT $LN1314@ZSTD_compr

; 709  :                 matchIndex = dictMatchIndex + dmsIndexDelta;

	lea	edx, DWORD PTR [r15+rax]

; 710  :                 DEBUGLOG(8, "found dms match of length %u at distance %u (offCode=%u)",
; 711  :                         (U32)matchLength, current - matchIndex, current - matchIndex + ZSTD_REP_MOVE);
; 712  :                 if (matchLength > matchEndIdx - matchIndex)

	mov	eax, DWORD PTR matchEndIdx$1$[rsp]
	sub	eax, edx
	cmp	rdi, rax
	jbe	SHORT $LN1856@ZSTD_compr

; 713  :                     matchEndIdx = matchIndex + (U32)matchLength;

	lea	eax, DWORD PTR [rdi+rdx]
	mov	DWORD PTR matchEndIdx$1$[rsp], eax
$LN1856@ZSTD_compr:

; 714  :                 bestLength = matchLength;
; 715  :                 matches[mnum].off = (current - matchIndex) + ZSTD_REP_MOVE;

	mov	rcx, QWORD PTR matches$1$[rbp-256]

; 718  :                 if ( (matchLength > ZSTD_OPT_NUM)
; 719  :                    | (ip+matchLength == iLimit) /* equal : no way to know if inf or sup */) {

	xor	r9d, r9d
	mov	eax, ebx
	inc	ebx
	lea	rcx, QWORD PTR [rcx+rax*8]
	mov	eax, DWORD PTR current$1$[rsp]
	sub	eax, edx
	mov	DWORD PTR [rcx+4], edi
	add	eax, 2
	mov	QWORD PTR bestLength$1$[rbp-256], rdi
	mov	DWORD PTR [rcx], eax
	lea	rax, QWORD PTR [rdi+rsi]
	cmp	rax, QWORD PTR iend$1$[rsp]
	mov	ecx, r9d
	mov	eax, r9d
	sete	cl
	cmp	rdi, 4096				; 00001000H
	seta	al
	or	ecx, eax
	jne	$LN1964@ZSTD_compr
$LN1314@ZSTD_compr:

; 720  :                     break;   /* drop, to guarantee consistency (miss a little bit of compression) */
; 721  :                 }
; 722  :             }
; 723  : 
; 724  :             if (dictMatchIndex <= dmsBtLow) { break; }   /* beyond tree size, stop the search */

	cmp	r15d, DWORD PTR tv13718[rbp-256]
	jbe	$LN1964@ZSTD_compr

; 725  :             if (match[matchLength] < ip[matchLength]) {

	movzx	eax, BYTE PTR [rdi+rsi]
	cmp	BYTE PTR [r14+rdi], al
	mov	rax, QWORD PTR nextPtr$1$[rbp-256]
	jae	SHORT $LN1316@ZSTD_compr

; 726  :                 commonLengthSmaller = matchLength;    /* all smaller will now have at least this guaranteed common length */
; 727  :                 dictMatchIndex = nextPtr[1];              /* new matchIndex larger than previous (closer to current) */

	mov	r15d, DWORD PTR [rax+4]
	mov	rdx, rdi

; 728  :             } else {

	mov	rcx, QWORD PTR commonLengthLarger$2$[rbp-256]
	mov	QWORD PTR commonLengthSmaller$2$[rbp-256], rdx
	jmp	SHORT $LN1317@ZSTD_compr
$LN1316@ZSTD_compr:

; 731  :                 dictMatchIndex = nextPtr[0];

	mov	r15d, DWORD PTR [rax]
	mov	rcx, rdi
	mov	rdx, QWORD PTR commonLengthSmaller$2$[rbp-256]

; 729  :                 /* match is larger than current */
; 730  :                 commonLengthLarger = matchLength;

	mov	QWORD PTR commonLengthLarger$2$[rbp-256], rcx
$LN1317@ZSTD_compr:

; 700  :         while (nbCompares-- && (dictMatchIndex > dmsLowLimit)) {

	mov	r8, QWORD PTR dmsBt$1$[rbp-256]
	test	r13d, r13d
	jne	$LL1281@ZSTD_compr

; 732  :             }
; 733  :         }
; 734  :     }
; 735  : 
; 736  :     assert(matchEndIdx > current+8);
; 737  :     ms->nextToUpdate = matchEndIdx - 8;  /* skip repetitive patterns */

	mov	eax, DWORD PTR matchEndIdx$1$[rsp]
	mov	DWORD PTR nbMatches$1$[rbp-256], ebx
	mov	ebx, DWORD PTR seqPos$1$[rsp]

; 761  :     case 5 : return ZSTD_insertBtAndGetAllMatches(matches, ms, nextToUpdate3, ip, iHighLimit, dictMode, rep, ll0, lengthToBeat, 5);

	jmp	$LN2046@ZSTD_compr
$LN926@ZSTD_compr:

; 520  :     U32 const sufficient_len = MIN(cParams->targetLength, ZSTD_OPT_NUM -1);

	mov	eax, DWORD PTR [r12+204]

; 522  :     U32 const current = (U32)(ip-base);

	mov	r15d, esi
	cmp	eax, ecx

; 523  :     U32 const hashLog = cParams->hashLog;
; 524  :     U32 const minMatch = (mls==3) ? 3 : 4;
; 525  :     U32* const hashTable = ms->hashTable;
; 526  :     size_t const h  = ZSTD_hashPtr(ip, hashLog, mls);

	mov	r8d, 3
	cmovb	ecx, eax
	mov	rax, QWORD PTR [r12+8]
	sub	r15d, eax
	mov	DWORD PTR sufficient_len$1$[rbp-256], ecx
	mov	rcx, rsi
	mov	DWORD PTR current$1$[rsp], r15d
	mov	QWORD PTR base$1$[rsp], rax
	call	ZSTD_hashPtr

; 527  :     U32 matchIndex  = hashTable[h];

	mov	r14d, DWORD PTR [rdi+rax*4]

; 530  :     U32 const btMask= (1U << btLog) - 1;
; 531  :     size_t commonLengthSmaller=0, commonLengthLarger=0;
; 532  :     const BYTE* const dictBase = ms->window.dictBase;
; 533  :     U32 const dictLimit = ms->window.dictLimit;
; 534  :     const BYTE* const dictEnd = dictBase + dictLimit;
; 535  :     const BYTE* const prefixStart = base + dictLimit;
; 536  :     U32 const btLow = (btMask >= current) ? 0 : current - btMask;
; 537  :     U32 const windowLow = ZSTD_getLowestMatchIndex(ms, current, cParams->windowLog);

	mov	edx, r15d
	mov	ecx, DWORD PTR [r12+188]
	mov	r13, QWORD PTR [r12+64]
	dec	ecx
	mov	r12d, DWORD PTR [r12+24]
	lea	rax, QWORD PTR [rdi+rax*4]
	mov	QWORD PTR tv13783[rbp-256], rax
	mov	edi, 1
	shl	edi, cl
	mov	eax, r12d
	add	rax, QWORD PTR base$1$[rsp]
	xor	ecx, ecx
	mov	QWORD PTR prefixStart$1$[rbp-256], rax
	dec	edi
	mov	QWORD PTR commonLengthSmaller$1$[rbp-256], rcx
	mov	eax, r15d
	sub	eax, edi
	mov	QWORD PTR commonLengthLarger$1$[rbp-256], rcx
	cmp	edi, r15d
	mov	QWORD PTR bt$1$[rbp-256], r13
	mov	DWORD PTR btMask$1$[rbp-256], edi
	cmovb	ecx, eax
	mov	DWORD PTR dictLimit$1$[rbp-256], r12d
	mov	rax, QWORD PTR ms$[rbp-256]
	mov	DWORD PTR tv13682[rbp-256], ecx
	mov	rcx, rax
	mov	r8d, DWORD PTR [rax+184]
	call	ZSTD_getLowestMatchIndex
	mov	edx, eax
	mov	DWORD PTR windowLow$1$[rbp-256], eax

; 538  :     U32 const matchLow = windowLow ? windowLow : 1;

	test	edx, edx

; 539  :     U32* smallerPtr = bt + 2*(current&btMask);

	mov	ecx, edi
	mov	eax, 1
	cmovne	eax, edx
	and	ecx, r15d
	add	ecx, ecx
	mov	DWORD PTR matchLow$1$[rsp], eax
	lea	rax, QWORD PTR [rcx*4]
	add	rax, r13

; 544  :     U32 nbCompares = 1U << cParams->searchLog;

	mov	r13d, 1
	mov	QWORD PTR smallerPtr$1$[rsp], rax
	add	rax, 4
	mov	QWORD PTR largerPtr$1$[rsp], rax
	lea	eax, DWORD PTR [r15+9]
	mov	DWORD PTR matchEndIdx$1$[rsp], eax
	xor	r15d, r15d
	mov	rax, QWORD PTR ms$[rbp-256]
	mov	DWORD PTR nbMatches$1$[rbp-256], r15d
	mov	ecx, DWORD PTR [rax+196]

; 545  : 
; 546  :     const ZSTD_matchState_t* dms    = dictMode == ZSTD_dictMatchState ? ms->dictMatchState : NULL;

	mov	rax, QWORD PTR [rax+176]
	shl	r13d, cl
	mov	QWORD PTR dms$1$[rbp-256], rax

; 547  :     const ZSTD_compressionParameters* const dmsCParams =
; 548  :                                       dictMode == ZSTD_dictMatchState ? &dms->cParams : NULL;
; 549  :     const BYTE* const dmsBase       = dictMode == ZSTD_dictMatchState ? dms->window.base : NULL;
; 550  :     const BYTE* const dmsEnd        = dictMode == ZSTD_dictMatchState ? dms->window.nextSrc : NULL;

	mov	rcx, QWORD PTR [rax]
	mov	r8, QWORD PTR [rax+8]

; 551  :     U32         const dmsHighLimit  = dictMode == ZSTD_dictMatchState ? (U32)(dmsEnd - dmsBase) : 0;

	mov	r9d, ecx
	sub	r9d, r8d
	mov	QWORD PTR dmsEnd$1$[rbp-256], rcx

; 552  :     U32         const dmsLowLimit   = dictMode == ZSTD_dictMatchState ? dms->window.lowLimit : 0;
; 553  :     U32         const dmsIndexDelta = dictMode == ZSTD_dictMatchState ? windowLow - dmsHighLimit : 0;
; 554  :     U32         const dmsHashLog    = dictMode == ZSTD_dictMatchState ? dmsCParams->hashLog : hashLog;

	mov	ecx, DWORD PTR [rax+192]
	sub	edx, r9d
	mov	DWORD PTR dmsHashLog$1$[rbp-256], ecx

; 555  :     U32         const dmsBtLog      = dictMode == ZSTD_dictMatchState ? dmsCParams->chainLog - 1 : btLog;

	mov	ecx, DWORD PTR [rax+188]
	mov	QWORD PTR dmsBase$1$[rbp-256], r8
	dec	ecx
	mov	r8d, DWORD PTR [rax+28]
	mov	DWORD PTR dmsIndexDelta$1$[rsp], edx

; 556  :     U32         const dmsBtMask     = dictMode == ZSTD_dictMatchState ? (1U << dmsBtLog) - 1 : 0;

	mov	edx, 1
	mov	DWORD PTR dmsHighLimit$1$[rbp-256], r9d
	mov	DWORD PTR dmsLowLimit$1$[rbp-256], r8d
	shl	edx, cl

; 557  :     U32         const dmsBtLow      = dictMode == ZSTD_dictMatchState && dmsBtMask < dmsHighLimit - dmsLowLimit ? dmsHighLimit - dmsBtMask : dmsLowLimit;

	mov	eax, r9d
	dec	edx
	sub	eax, r8d
	mov	DWORD PTR dmsBtMask$1$[rbp-256], edx

; 558  : 
; 559  :     size_t bestLength = lengthToBeat-1;

	mov	ecx, r9d
	sub	ecx, edx
	cmp	edx, eax
	mov	rax, QWORD PTR tv13857[rbp-256]
	mov	QWORD PTR bestLength$1$[rsp], rax

; 560  :     DEBUGLOG(8, "ZSTD_insertBtAndGetAllMatches: current=%u", current);
; 561  : 
; 562  :     /* check repCode */
; 563  :     assert(ll0 <= 1);   /* necessarily 1 or 0 */
; 564  :     {   U32 const lastR = ZSTD_REP_NUM + ll0;

	mov	eax, DWORD PTR ll0$1$[rsp]
	cmovae	ecx, r8d
	mov	r8, QWORD PTR rep$1$[rbp-256]

; 565  :         U32 repCode;
; 566  :         for (repCode = ll0; repCode < lastR; repCode++) {

	mov	edi, eax
	mov	DWORD PTR tv13714[rbp-256], ecx
	mov	ecx, DWORD PTR current$1$[rsp]
	mov	edx, ecx
	sub	edx, r12d

; 560  :     DEBUGLOG(8, "ZSTD_insertBtAndGetAllMatches: current=%u", current);
; 561  : 
; 562  :     /* check repCode */
; 563  :     assert(ll0 <= 1);   /* necessarily 1 or 0 */
; 564  :     {   U32 const lastR = ZSTD_REP_NUM + ll0;

	lea	r11d, DWORD PTR [rax+3]
	mov	DWORD PTR lastR$1$[rbp-256], r11d
	lea	r12, QWORD PTR [r8+rax*4]
	mov	DWORD PTR tv13780[rbp-256], edx
$LL938@ZSTD_compr:

; 567  :             U32 const repOffset = (repCode==ZSTD_REP_NUM) ? (rep[0] - 1) : rep[repCode];

	cmp	edi, 3
	jne	SHORT $LN1005@ZSTD_compr
	mov	eax, DWORD PTR [r8]
	dec	eax
	jmp	SHORT $LN1006@ZSTD_compr
$LN1005@ZSTD_compr:
	mov	eax, DWORD PTR [r12]
$LN1006@ZSTD_compr:

; 568  :             U32 const repIndex = current - repOffset;

	mov	r10d, ecx

; 569  :             U32 repLen = 0;

	xor	r8d, r8d
	sub	r10d, eax

; 570  :             assert(current >= dictLimit);
; 571  :             if (repOffset-1 /* intentional overflow, discards 0 and -1 */ < current-dictLimit) {  /* equivalent to `current > repIndex >= dictLimit` */

	lea	ecx, DWORD PTR [rax-1]
	cmp	ecx, edx
	jae	SHORT $LN943@ZSTD_compr

; 332  :                 return MEM_read32(memPtr)<<8;

	mov	edx, DWORD PTR [rsi]

; 575  :                 if ((repIndex >= windowLow) & (ZSTD_readMINMATCH(ip, minMatch) == ZSTD_readMINMATCH(ip - repOffset, minMatch))) {

	xor	ecx, ecx
	mov	r9d, eax
	neg	r9

; 332  :                 return MEM_read32(memPtr)<<8;

	shl	edx, 8
; File E:\dev\pyzstd\lib\common\mem.h

; 188  :     const union { U32 u; BYTE c[4]; } one = { 1 };   /* don't use static : performance detrimental  */

	mov	eax, DWORD PTR [rsi+r9]
; File E:\dev\pyzstd\lib\compress\zstd_opt.c

; 332  :                 return MEM_read32(memPtr)<<8;

	shl	eax, 8

; 575  :                 if ((repIndex >= windowLow) & (ZSTD_readMINMATCH(ip, minMatch) == ZSTD_readMINMATCH(ip - repOffset, minMatch))) {

	cmp	edx, eax
	sete	cl
	xor	eax, eax
	cmp	r10d, DWORD PTR windowLow$1$[rbp-256]
	setae	al
	test	ecx, eax
	je	$LN2035@ZSTD_compr

; 576  :                     repLen = (U32)ZSTD_count(ip+minMatch, ip+minMatch-repOffset, iLimit) + minMatch;

	mov	r8, QWORD PTR iend$1$[rsp]
	lea	rdx, QWORD PTR [r9+3]
	add	rdx, rsi
	lea	rcx, QWORD PTR [rsi+3]
	call	ZSTD_count
	lea	r8d, DWORD PTR [rax+3]

; 577  :                 }
; 578  :             } else {  /* repIndex < dictLimit || repIndex >= current */

	jmp	SHORT $LN2053@ZSTD_compr
$LN943@ZSTD_compr:

; 579  :                 const BYTE* const repMatch = dictMode == ZSTD_dictMatchState ?

	mov	edx, DWORD PTR dmsIndexDelta$1$[rsp]

; 580  :                                              dmsBase + repIndex - dmsIndexDelta :
; 581  :                                              dictBase + repIndex;
; 582  :                 assert(current >= windowLow);
; 583  :                 if ( dictMode == ZSTD_extDict
; 584  :                   && ( ((repOffset-1) /*intentional overflow*/ < current - windowLow)  /* equivalent to `current > repIndex >= windowLow` */
; 585  :                      & (((U32)((dictLimit-1) - repIndex) >= 3) ) /* intentional overflow : do not test positions overlapping 2 memory segments */)
; 586  :                   && (ZSTD_readMINMATCH(ip, minMatch) == ZSTD_readMINMATCH(repMatch, minMatch)) ) {
; 587  :                     repLen = (U32)ZSTD_count_2segments(ip+minMatch, repMatch+minMatch, iLimit, dictEnd, prefixStart) + minMatch;
; 588  :                 }
; 589  :                 if (dictMode == ZSTD_dictMatchState
; 590  :                   && ( ((repOffset-1) /*intentional overflow*/ < current - (dmsLowLimit + dmsIndexDelta))  /* equivalent to `current > repIndex >= dmsLowLimit` */
; 591  :                      & ((U32)((dictLimit-1) - repIndex) >= 3) ) /* intentional overflow : do not test positions overlapping 2 memory segments */
; 592  :                   && (ZSTD_readMINMATCH(ip, minMatch) == ZSTD_readMINMATCH(repMatch, minMatch)) ) {

	mov	eax, DWORD PTR current$1$[rsp]
	sub	eax, edx
	mov	r9d, r10d
	sub	eax, DWORD PTR dmsLowLimit$1$[rbp-256]
	sub	r9, rdx
	add	r9, QWORD PTR dmsBase$1$[rbp-256]
	xor	edx, edx
	cmp	ecx, eax
	mov	ecx, DWORD PTR dictLimit$1$[rbp-256]
	setb	dl
	sub	ecx, r10d
	xor	r10d, r10d
	dec	ecx
	cmp	ecx, 3
	mov	eax, r10d
	setae	al
	test	edx, eax
	je	SHORT $LN947@ZSTD_compr

; 332  :                 return MEM_read32(memPtr)<<8;

	mov	ecx, DWORD PTR [rsi]
; File E:\dev\pyzstd\lib\common\mem.h

; 188  :     const union { U32 u; BYTE c[4]; } one = { 1 };   /* don't use static : performance detrimental  */

	mov	eax, DWORD PTR [r9]
; File E:\dev\pyzstd\lib\compress\zstd_opt.c

; 332  :                 return MEM_read32(memPtr)<<8;

	shl	ecx, 8
	shl	eax, 8

; 592  :                   && (ZSTD_readMINMATCH(ip, minMatch) == ZSTD_readMINMATCH(repMatch, minMatch)) ) {

	cmp	ecx, eax
	jne	SHORT $LN947@ZSTD_compr

; 593  :                     repLen = (U32)ZSTD_count_2segments(ip+minMatch, repMatch+minMatch, iLimit, dmsEnd, prefixStart) + minMatch;

	mov	rax, QWORD PTR prefixStart$1$[rbp-256]
	lea	rdx, QWORD PTR [r9+3]
	mov	r9, QWORD PTR dmsEnd$1$[rbp-256]
	lea	rcx, QWORD PTR [rsi+3]
	mov	r8, QWORD PTR iend$1$[rsp]
	mov	QWORD PTR [rsp+32], rax
	call	ZSTD_count_2segments
	lea	r8d, DWORD PTR [rax+3]
$LN2053@ZSTD_compr:

; 594  :             }   }
; 595  :             /* save longer solution */
; 596  :             if (repLen > bestLength) {

	mov	r11d, DWORD PTR lastR$1$[rbp-256]
$LN2035@ZSTD_compr:
	xor	r10d, r10d
$LN947@ZSTD_compr:
	mov	r9, QWORD PTR bestLength$1$[rsp]
	mov	edx, r8d
	cmp	rdx, r9
	jbe	SHORT $LN936@ZSTD_compr

; 597  :                 DEBUGLOG(8, "found repCode %u (ll0:%u, offset:%u) of length %u",
; 598  :                             repCode, ll0, repOffset, repLen);
; 599  :                 bestLength = repLen;
; 600  :                 matches[mnum].off = repCode - ll0;

	mov	rcx, QWORD PTR matches$1$[rbp-256]
	mov	eax, edi
	sub	eax, DWORD PTR ll0$1$[rsp]
	lea	rcx, QWORD PTR [rcx+r15*8]
	mov	DWORD PTR [rcx], eax

; 601  :                 matches[mnum].len = (U32)repLen;
; 602  :                 mnum++;

	inc	r15d
	mov	DWORD PTR [rcx+4], r8d

; 603  :                 if ( (repLen > sufficient_len)
; 604  :                    | (ip+repLen == iLimit) ) {  /* best possible */

	lea	rax, QWORD PTR [r8+rsi]
	cmp	rax, QWORD PTR iend$1$[rsp]
	mov	ecx, r10d
	mov	eax, r10d
	mov	QWORD PTR bestLength$1$[rsp], rdx
	sete	cl
	mov	DWORD PTR nbMatches$1$[rbp-256], r15d
	cmp	r8d, DWORD PTR sufficient_len$1$[rbp-256]
	mov	r9d, edx
	seta	al
	or	ecx, eax
	jne	$LN935@ZSTD_compr
$LN936@ZSTD_compr:

; 565  :         U32 repCode;
; 566  :         for (repCode = ll0; repCode < lastR; repCode++) {

	inc	edi
	add	r12, 4
	cmp	edi, r11d
	jae	SHORT $LN1941@ZSTD_compr
	mov	edx, DWORD PTR tv13780[rbp-256]
	mov	ecx, DWORD PTR current$1$[rsp]
	mov	r8, QWORD PTR rep$1$[rbp-256]
	jmp	$LL938@ZSTD_compr
$LN1941@ZSTD_compr:

; 605  :                     return mnum;
; 606  :     }   }   }   }
; 607  : 
; 608  :     /* HC3 match finder */
; 609  :     if ((mls == 3) /*static*/ && (bestLength < mls)) {

	cmp	r9, 3
	jae	$LN1993@ZSTD_compr

; 610  :         U32 const matchIndex3 = ZSTD_insertAndFindFirstIndexHash3(ms, nextToUpdate3, ip);

	mov	r12, QWORD PTR ms$[rbp-256]
	lea	rdx, QWORD PTR nextToUpdate3$8[rbp-256]
	mov	rcx, r12
	mov	r8, rsi
	call	ZSTD_insertAndFindFirstIndexHash3

; 611  :         if ((matchIndex3 >= matchLow)
; 612  :           & (current - matchIndex3 < (1<<18)) /*heuristic : longer distance likely too expensive*/ ) {

	mov	r15d, DWORD PTR current$1$[rsp]
	xor	r10d, r10d
	mov	r8d, DWORD PTR matchLow$1$[rsp]
	mov	edx, r10d
	mov	ecx, r10d
	mov	edi, r15d
	sub	edi, eax
	cmp	eax, r8d
	setae	dl
	cmp	edi, 262144				; 00040000H
	setb	cl
	test	edx, ecx
	je	$LN2020@ZSTD_compr

; 613  :             size_t mlen;
; 614  :             if ((dictMode == ZSTD_noDict) /*static*/ || (dictMode == ZSTD_dictMatchState) /*static*/ || (matchIndex3 >= dictLimit)) {
; 615  :                 const BYTE* const match = base + matchIndex3;
; 616  :                 mlen = ZSTD_count(ip, match, iLimit);

	mov	r8, QWORD PTR iend$1$[rsp]
	mov	rcx, rsi
	mov	edx, eax
	add	rdx, QWORD PTR base$1$[rsp]
	call	ZSTD_count

; 617  :             } else {
; 618  :                 const BYTE* const match = dictBase + matchIndex3;
; 619  :                 mlen = ZSTD_count_2segments(ip, match, iLimit, dictEnd, prefixStart);
; 620  :             }
; 621  : 
; 622  :             /* save best solution */
; 623  :             if (mlen >= mls /* == 3 > bestLength */) {

	mov	r9, QWORD PTR iend$1$[rsp]
	xor	r10d, r10d
	cmp	rax, 3
	jb	$LN2001@ZSTD_compr

; 624  :                 DEBUGLOG(8, "found small match with hlog3, of length %u",
; 625  :                             (U32)mlen);
; 626  :                 bestLength = mlen;
; 627  :                 assert(current > matchIndex3);
; 628  :                 assert(mnum==0);  /* no prior solution */
; 629  :                 matches[0].off = (current - matchIndex3) + ZSTD_REP_MOVE;

	mov	rdx, QWORD PTR matches$1$[rbp-256]
	lea	ecx, DWORD PTR [rdi+2]

; 630  :                 matches[0].len = (U32)mlen;
; 631  :                 mnum = 1;
; 632  :                 if ( (mlen > sufficient_len) |

	mov	r8d, r10d
	mov	QWORD PTR bestLength$1$[rsp], rax
	mov	DWORD PTR nbMatches$1$[rbp-256], 1
	mov	DWORD PTR [rdx], ecx
	lea	rcx, QWORD PTR [rax+rsi]
	cmp	rcx, r9
	mov	DWORD PTR [rdx+4], eax
	mov	ecx, DWORD PTR sufficient_len$1$[rbp-256]
	mov	edx, r10d
	sete	r8b
	cmp	rax, rcx
	seta	dl
	or	r8d, edx
	je	$LN2001@ZSTD_compr

; 633  :                      (ip+mlen == iLimit) ) {  /* best possible length */
; 634  :                     ms->nextToUpdate = current+1;  /* skip insertion */

	lea	eax, DWORD PTR [r15+1]

; 635  :                     return 1;

	mov	DWORD PTR nbMatches$1$[rbp-256], 1
	mov	DWORD PTR [r12+36], eax
	jmp	$LN935@ZSTD_compr
$LN1993@ZSTD_compr:

; 605  :                     return mnum;
; 606  :     }   }   }   }
; 607  : 
; 608  :     /* HC3 match finder */
; 609  :     if ((mls == 3) /*static*/ && (bestLength < mls)) {

	mov	r15d, DWORD PTR current$1$[rsp]
	mov	r8d, DWORD PTR matchLow$1$[rsp]
$LN2020@ZSTD_compr:

; 636  :         }   }   }
; 637  :         /* no dictMatchState lookup: dicts don't have a populated HC3 table */
; 638  :     }
; 639  : 
; 640  :     hashTable[h] = current;   /* Update Hash Table */

	mov	r9, QWORD PTR iend$1$[rsp]
$LN956@ZSTD_compr:
	mov	rax, QWORD PTR tv13783[rbp-256]
	mov	DWORD PTR [rax], r15d

; 641  : 
; 642  :     while (nbCompares-- && (matchIndex >= matchLow)) {

	test	r13d, r13d
	je	$LN1793@ZSTD_compr
$LL939@ZSTD_compr:
	dec	r13d
	cmp	r14d, r8d
	jb	$LN1988@ZSTD_compr

; 643  :         U32* const nextPtr = bt + 2*(matchIndex & btMask);

	mov	eax, DWORD PTR btMask$1$[rbp-256]

; 644  :         const BYTE* match;
; 645  :         size_t matchLength = MIN(commonLengthSmaller, commonLengthLarger);   /* guaranteed minimum nb of common bytes */
; 646  :         assert(current > matchIndex);
; 647  : 
; 648  :         if ((dictMode == ZSTD_noDict) || (dictMode == ZSTD_dictMatchState) || (matchIndex+matchLength >= dictLimit)) {
; 649  :             assert(matchIndex+matchLength >= dictLimit);  /* ensure the condition is correct when !extDict */
; 650  :             match = base + matchIndex;
; 651  :             if (matchIndex >= dictLimit) assert(memcmp(match, ip, matchLength) == 0);  /* ensure early section of match is equal as expected */
; 652  :             matchLength += ZSTD_count(ip+matchLength, match+matchLength, iLimit);

	mov	r8, r9
	mov	rcx, QWORD PTR bt$1$[rbp-256]
	and	eax, r14d
	add	eax, eax
	mov	r15d, r14d
	lea	r12, QWORD PTR [rcx+rax*4]
	mov	rcx, QWORD PTR commonLengthLarger$1$[rbp-256]
	cmp	QWORD PTR commonLengthSmaller$1$[rbp-256], rcx
	mov	rdi, rcx
	cmovb	rdi, QWORD PTR commonLengthSmaller$1$[rbp-256]
	add	r15, QWORD PTR base$1$[rsp]
	lea	rcx, QWORD PTR [rdi+rsi]
	lea	rdx, QWORD PTR [r15+rdi]
	call	ZSTD_count
	add	rdi, rax

; 653  :         } else {
; 654  :             match = dictBase + matchIndex;
; 655  :             assert(memcmp(match, ip, matchLength) == 0);  /* ensure early section of match is equal as expected */
; 656  :             matchLength += ZSTD_count_2segments(ip+matchLength, match+matchLength, iLimit, dictEnd, prefixStart);
; 657  :             if (matchIndex+matchLength >= dictLimit)
; 658  :                 match = base + matchIndex;   /* prepare for match[matchLength] read */
; 659  :         }
; 660  : 
; 661  :         if (matchLength > bestLength) {

	cmp	rdi, QWORD PTR bestLength$1$[rsp]
	jbe	$LN2019@ZSTD_compr

; 662  :             DEBUGLOG(8, "found match of length %u at distance %u (offCode=%u)",
; 663  :                     (U32)matchLength, current - matchIndex, current - matchIndex + ZSTD_REP_MOVE);
; 664  :             assert(matchEndIdx > matchIndex);
; 665  :             if (matchLength > matchEndIdx - matchIndex)

	mov	eax, DWORD PTR matchEndIdx$1$[rsp]
	mov	edx, edi
	sub	eax, r14d
	cmp	rdi, rax
	jbe	SHORT $LN963@ZSTD_compr

; 666  :                 matchEndIdx = matchIndex + (U32)matchLength;

	lea	eax, DWORD PTR [rdi+r14]
	mov	DWORD PTR matchEndIdx$1$[rsp], eax
$LN963@ZSTD_compr:

; 667  :             bestLength = matchLength;
; 668  :             matches[mnum].off = (current - matchIndex) + ZSTD_REP_MOVE;

	mov	r8d, DWORD PTR nbMatches$1$[rbp-256]

; 669  :             matches[mnum].len = (U32)matchLength;
; 670  :             mnum++;
; 671  :             if ( (matchLength > ZSTD_OPT_NUM)
; 672  :                | (ip+matchLength == iLimit) /* equal : no way to know if inf or sup */) {

	xor	r10d, r10d
	mov	eax, DWORD PTR current$1$[rsp]
	mov	rcx, QWORD PTR matches$1$[rbp-256]
	sub	eax, r14d
	mov	r9, QWORD PTR iend$1$[rsp]
	lea	rcx, QWORD PTR [rcx+r8*8]
	add	eax, 2
	mov	DWORD PTR [rcx+4], edx
	mov	DWORD PTR [rcx], eax
	inc	r8d
	lea	rax, QWORD PTR [rdi+rsi]
	mov	QWORD PTR bestLength$1$[rsp], rdi
	cmp	rax, r9
	mov	DWORD PTR nbMatches$1$[rbp-256], r8d
	mov	ecx, r10d
	mov	eax, r10d
	sete	cl
	cmp	rdi, 4096				; 00001000H
	seta	al
	or	ecx, eax
	je	SHORT $LN964@ZSTD_compr

; 673  :                 if (dictMode == ZSTD_dictMatchState) nbCompares = 0; /* break should also skip searching dms */

	mov	rcx, QWORD PTR largerPtr$1$[rsp]
	mov	rax, QWORD PTR smallerPtr$1$[rsp]
	mov	DWORD PTR [rcx], r10d
	mov	DWORD PTR [rax], r10d

; 674  :                 break; /* drop, to preserve bt consistency (miss a little bit of compression) */

	jmp	$LN1761@ZSTD_compr
$LN2001@ZSTD_compr:

; 636  :         }   }   }
; 637  :         /* no dictMatchState lookup: dicts don't have a populated HC3 table */
; 638  :     }
; 639  : 
; 640  :     hashTable[h] = current;   /* Update Hash Table */

	mov	r8d, DWORD PTR matchLow$1$[rsp]
	jmp	$LN956@ZSTD_compr
$LN2019@ZSTD_compr:

; 653  :         } else {
; 654  :             match = dictBase + matchIndex;
; 655  :             assert(memcmp(match, ip, matchLength) == 0);  /* ensure early section of match is equal as expected */
; 656  :             matchLength += ZSTD_count_2segments(ip+matchLength, match+matchLength, iLimit, dictEnd, prefixStart);
; 657  :             if (matchIndex+matchLength >= dictLimit)
; 658  :                 match = base + matchIndex;   /* prepare for match[matchLength] read */
; 659  :         }
; 660  : 
; 661  :         if (matchLength > bestLength) {

	mov	r9, QWORD PTR iend$1$[rsp]
	xor	r10d, r10d
$LN964@ZSTD_compr:

; 675  :             }
; 676  :         }
; 677  : 
; 678  :         if (match[matchLength] < ip[matchLength]) {

	movzx	eax, BYTE PTR [rdi+rsi]
	cmp	BYTE PTR [r15+rdi], al
	jae	SHORT $LN966@ZSTD_compr

; 679  :             /* match smaller than current */
; 680  :             *smallerPtr = matchIndex;             /* update smaller idx */

	mov	rax, QWORD PTR smallerPtr$1$[rsp]

; 681  :             commonLengthSmaller = matchLength;    /* all smaller will now have at least this guaranteed common length */

	mov	QWORD PTR commonLengthSmaller$1$[rbp-256], rdi
	mov	DWORD PTR [rax], r14d

; 682  :             if (matchIndex <= btLow) { smallerPtr=&dummy32; break; }   /* beyond tree size, stop the search */

	cmp	r14d, DWORD PTR tv13682[rbp-256]
	jbe	SHORT $LN1759@ZSTD_compr

; 684  :             matchIndex = nextPtr[1];              /* new matchIndex, larger than previous, closer to current */

	mov	r14d, DWORD PTR [r12+4]
	lea	rax, QWORD PTR [r12+4]
	mov	QWORD PTR smallerPtr$1$[rsp], rax

; 685  :         } else {

	jmp	SHORT $LN967@ZSTD_compr
$LN966@ZSTD_compr:

; 686  :             *largerPtr = matchIndex;

	mov	rcx, QWORD PTR largerPtr$1$[rsp]

; 687  :             commonLengthLarger = matchLength;

	mov	QWORD PTR commonLengthLarger$1$[rbp-256], rdi
	mov	DWORD PTR [rcx], r14d

; 688  :             if (matchIndex <= btLow) { largerPtr=&dummy32; break; }   /* beyond tree size, stop the search */

	cmp	r14d, DWORD PTR tv13682[rbp-256]
	jbe	SHORT $LN1760@ZSTD_compr

; 690  :             matchIndex = nextPtr[0];

	mov	r14d, DWORD PTR [r12]
	mov	QWORD PTR largerPtr$1$[rsp], r12
$LN967@ZSTD_compr:

; 641  : 
; 642  :     while (nbCompares-- && (matchIndex >= matchLow)) {

	test	r13d, r13d
	je	SHORT $LN1793@ZSTD_compr
	mov	r8d, DWORD PTR matchLow$1$[rsp]
	jmp	$LL939@ZSTD_compr
$LN1759@ZSTD_compr:

; 682  :             if (matchIndex <= btLow) { smallerPtr=&dummy32; break; }   /* beyond tree size, stop the search */

	lea	rax, QWORD PTR dummy32$3[rbp-256]
	jmp	SHORT $LN940@ZSTD_compr
$LN1760@ZSTD_compr:

; 688  :             if (matchIndex <= btLow) { largerPtr=&dummy32; break; }   /* beyond tree size, stop the search */

	lea	rax, QWORD PTR dummy32$3[rbp-256]
	mov	QWORD PTR largerPtr$1$[rsp], rax
	jmp	SHORT $LN1988@ZSTD_compr
$LN1793@ZSTD_compr:

; 641  : 
; 642  :     while (nbCompares-- && (matchIndex >= matchLow)) {

	dec	r13d
$LN1988@ZSTD_compr:

; 691  :     }   }
; 692  : 
; 693  :     *smallerPtr = *largerPtr = 0;

	mov	rax, QWORD PTR smallerPtr$1$[rsp]
$LN940@ZSTD_compr:
	mov	rcx, QWORD PTR largerPtr$1$[rsp]
	mov	DWORD PTR [rcx], r10d
	mov	DWORD PTR [rax], r10d

; 694  : 
; 695  :     if (dictMode == ZSTD_dictMatchState && nbCompares) {

	test	r13d, r13d
	je	$LN1969@ZSTD_compr

; 696  :         size_t const dmsH = ZSTD_hashPtr(ip, dmsHashLog, mls);

	mov	edx, DWORD PTR dmsHashLog$1$[rbp-256]
	mov	r8d, 3
	mov	rcx, rsi
	call	ZSTD_hashPtr

; 697  :         U32 dictMatchIndex = dms->hashTable[dmsH];

	mov	r8, QWORD PTR dms$1$[rbp-256]
	mov	ebx, DWORD PTR nbMatches$1$[rbp-256]
	mov	rcx, QWORD PTR [r8+48]

; 698  :         const U32* const dmsBt = dms->chainTable;

	mov	r8, QWORD PTR [r8+64]
	mov	QWORD PTR dmsBt$1$[rbp-256], r8
	mov	r15d, DWORD PTR [rcx+rax*4]

; 699  :         commonLengthSmaller = commonLengthLarger = 0;

	xor	ecx, ecx
	xor	edx, edx
	mov	QWORD PTR commonLengthLarger$2$[rbp-256], rcx
	mov	QWORD PTR commonLengthSmaller$2$[rbp-256], rdx
$LL941@ZSTD_compr:

; 700  :         while (nbCompares-- && (dictMatchIndex > dmsLowLimit)) {

	dec	r13d
	mov	DWORD PTR nbCompares$1$[rbp-256], r13d
	cmp	r15d, DWORD PTR dmsLowLimit$1$[rbp-256]
	jbe	$LN1967@ZSTD_compr

; 703  :             const BYTE* match = dmsBase + dictMatchIndex;

	mov	r14, QWORD PTR dmsBase$1$[rbp-256]
	mov	eax, r15d
	and	eax, DWORD PTR dmsBtMask$1$[rbp-256]
	mov	rdi, rcx

; 704  :             matchLength += ZSTD_count_2segments(ip+matchLength, match+matchLength, iLimit, dmsEnd, prefixStart);

	mov	r9, QWORD PTR dmsEnd$1$[rbp-256]
	add	eax, eax
	cmp	rdx, rcx
	mov	r12d, r15d
	cmovb	rdi, rdx
	add	r14, r12
	lea	r13, QWORD PTR [r8+rax*4]
	mov	rax, QWORD PTR prefixStart$1$[rbp-256]
	mov	r8, QWORD PTR iend$1$[rsp]
	mov	QWORD PTR [rsp+32], rax
	lea	rdx, QWORD PTR [r14+rdi]
	lea	rcx, QWORD PTR [rdi+rsi]
	call	ZSTD_count_2segments
	add	rdi, rax

; 705  :             if (dictMatchIndex+matchLength >= dmsHighLimit)

	mov	eax, DWORD PTR dmsHighLimit$1$[rbp-256]
	lea	rcx, QWORD PTR [rdi+r12]
	cmp	rcx, rax
	jb	SHORT $LN2000@ZSTD_compr

; 706  :                 match = base + dictMatchIndex + dmsIndexDelta;   /* to prepare for next usage of match[matchLength] */

	mov	eax, DWORD PTR dmsIndexDelta$1$[rsp]
	mov	r14d, eax
	add	r14, QWORD PTR base$1$[rsp]
	add	r14, r12
	jmp	SHORT $LN971@ZSTD_compr
$LN2000@ZSTD_compr:

; 705  :             if (dictMatchIndex+matchLength >= dmsHighLimit)

	mov	eax, DWORD PTR dmsIndexDelta$1$[rsp]
$LN971@ZSTD_compr:

; 707  : 
; 708  :             if (matchLength > bestLength) {

	cmp	rdi, QWORD PTR bestLength$1$[rsp]
	jbe	SHORT $LN974@ZSTD_compr

; 709  :                 matchIndex = dictMatchIndex + dmsIndexDelta;

	lea	edx, DWORD PTR [r15+rax]

; 710  :                 DEBUGLOG(8, "found dms match of length %u at distance %u (offCode=%u)",
; 711  :                         (U32)matchLength, current - matchIndex, current - matchIndex + ZSTD_REP_MOVE);
; 712  :                 if (matchLength > matchEndIdx - matchIndex)

	mov	eax, DWORD PTR matchEndIdx$1$[rsp]
	sub	eax, edx
	cmp	rdi, rax
	jbe	SHORT $LN1858@ZSTD_compr

; 713  :                     matchEndIdx = matchIndex + (U32)matchLength;

	lea	eax, DWORD PTR [rdx+rdi]
	mov	DWORD PTR matchEndIdx$1$[rsp], eax
$LN1858@ZSTD_compr:

; 714  :                 bestLength = matchLength;
; 715  :                 matches[mnum].off = (current - matchIndex) + ZSTD_REP_MOVE;

	mov	rcx, QWORD PTR matches$1$[rbp-256]

; 718  :                 if ( (matchLength > ZSTD_OPT_NUM)
; 719  :                    | (ip+matchLength == iLimit) /* equal : no way to know if inf or sup */) {

	xor	r9d, r9d
	mov	eax, ebx
	inc	ebx
	lea	rcx, QWORD PTR [rcx+rax*8]
	mov	eax, DWORD PTR current$1$[rsp]
	sub	eax, edx
	mov	DWORD PTR [rcx+4], edi
	add	eax, 2
	mov	QWORD PTR bestLength$1$[rsp], rdi
	mov	DWORD PTR [rcx], eax
	lea	rax, QWORD PTR [rdi+rsi]
	cmp	rax, QWORD PTR iend$1$[rsp]
	mov	ecx, r9d
	mov	eax, r9d
	sete	cl
	cmp	rdi, 4096				; 00001000H
	seta	al
	or	ecx, eax
	jne	SHORT $LN1967@ZSTD_compr
$LN974@ZSTD_compr:

; 720  :                     break;   /* drop, to guarantee consistency (miss a little bit of compression) */
; 721  :                 }
; 722  :             }
; 723  : 
; 724  :             if (dictMatchIndex <= dmsBtLow) { break; }   /* beyond tree size, stop the search */

	cmp	r15d, DWORD PTR tv13714[rbp-256]
	jbe	SHORT $LN1967@ZSTD_compr

; 725  :             if (match[matchLength] < ip[matchLength]) {

	movzx	eax, BYTE PTR [rdi+rsi]
	cmp	BYTE PTR [r14+rdi], al
	jae	SHORT $LN976@ZSTD_compr

; 726  :                 commonLengthSmaller = matchLength;    /* all smaller will now have at least this guaranteed common length */
; 727  :                 dictMatchIndex = nextPtr[1];              /* new matchIndex larger than previous (closer to current) */

	mov	r15d, DWORD PTR [r13+4]
	mov	rdx, rdi

; 728  :             } else {

	mov	rcx, QWORD PTR commonLengthLarger$2$[rbp-256]
	mov	QWORD PTR commonLengthSmaller$2$[rbp-256], rdx
	jmp	SHORT $LN977@ZSTD_compr
$LN976@ZSTD_compr:

; 731  :                 dictMatchIndex = nextPtr[0];

	mov	r15d, DWORD PTR [r13]
	mov	rcx, rdi
	mov	rdx, QWORD PTR commonLengthSmaller$2$[rbp-256]

; 729  :                 /* match is larger than current */
; 730  :                 commonLengthLarger = matchLength;

	mov	QWORD PTR commonLengthLarger$2$[rbp-256], rcx
$LN977@ZSTD_compr:

; 700  :         while (nbCompares-- && (dictMatchIndex > dmsLowLimit)) {

	mov	r13d, DWORD PTR nbCompares$1$[rbp-256]
	mov	r8, QWORD PTR dmsBt$1$[rbp-256]
	test	r13d, r13d
	jne	$LL941@ZSTD_compr
$LN1967@ZSTD_compr:
	mov	DWORD PTR nbMatches$1$[rbp-256], ebx
	mov	ebx, DWORD PTR seqPos$1$[rsp]
$LN1969@ZSTD_compr:

; 732  :             }
; 733  :         }
; 734  :     }
; 735  : 
; 736  :     assert(matchEndIdx > current+8);
; 737  :     ms->nextToUpdate = matchEndIdx - 8;  /* skip repetitive patterns */

	mov	r8d, DWORD PTR nbMatches$1$[rbp-256]
$LN1761@ZSTD_compr:
	mov	eax, DWORD PTR matchEndIdx$1$[rsp]

; 738  :     return mnum;

	mov	DWORD PTR nbMatches$1$[rbp-256], r8d
$LN2046@ZSTD_compr:

; 950  :                 if (!nbMatches) {

	mov	rcx, QWORD PTR ms$[rbp-256]
	add	eax, -8					; fffffff8H
	mov	DWORD PTR [rcx+36], eax
$LN935@ZSTD_compr:
	mov	r13d, DWORD PTR nbMatches$1$[rbp-256]
	mov	r8d, DWORD PTR cur$1$[rbp-256]
	test	r13d, r13d
	je	$LN2022@ZSTD_compr

; 951  :                     DEBUGLOG(7, "rPos:%u : no match found", cur);
; 952  :                     continue;
; 953  :                 }
; 954  : 
; 955  :                 {   U32 const maxML = matches[nbMatches-1].len;

	mov	r14, QWORD PTR matches$1$[rbp-256]
	lea	eax, DWORD PTR [r13-1]
	mov	edx, eax
	mov	ecx, DWORD PTR [r14+rax*8+4]

; 956  :                     DEBUGLOG(7, "cPos:%zi==rPos:%u, found %u matches, of maxLength=%u",
; 957  :                                 inr-istart, cur, nbMatches, maxML);
; 958  : 
; 959  :                     if ( (maxML > sufficient_len)
; 960  :                       || (cur + maxML >= ZSTD_OPT_NUM) ) {

	cmp	ecx, DWORD PTR sufficient_len$1$[rbp-256]
	ja	$LN1764@ZSTD_compr
	lea	eax, DWORD PTR [rcx+r8]
	cmp	eax, 4096				; 00001000H
	jae	$LN1764@ZSTD_compr

; 968  :                 }   }
; 969  : 
; 970  :                 /* set prices using matches found at position == cur */
; 971  :                 for (matchNb = 0; matchNb < nbMatches; matchNb++) {

	xor	esi, esi
	mov	eax, esi
	mov	DWORD PTR matchNb$1$[rsp], eax
	test	r13d, r13d
	je	$LN2022@ZSTD_compr

; 713  :                     matchEndIdx = matchIndex + (U32)matchLength;

	mov	rcx, r14
	mov	QWORD PTR tv13691[rsp], rcx
	npad	8
$LL23@ZSTD_compr:

; 972  :                     U32 const offset = matches[matchNb].off;

	mov	r10d, DWORD PTR [rcx]

; 973  :                     U32 const lastML = matches[matchNb].len;

	mov	edx, DWORD PTR [rcx+4]
	mov	DWORD PTR offset$1$[rbp-256], r10d

; 974  :                     U32 const startML = (matchNb>0) ? matches[matchNb-1].len+1 : minMatch;

	test	eax, eax
	je	SHORT $LN63@ZSTD_compr
	mov	rcx, QWORD PTR tv13691[rsp]
	dec	eax
	mov	r12d, DWORD PTR [r14+rax*8+4]
	mov	eax, DWORD PTR matchNb$1$[rsp]
	inc	r12d
	jmp	SHORT $LN64@ZSTD_compr
$LN63@ZSTD_compr:
	mov	r12d, DWORD PTR minMatch$1$[rbp-256]
$LN64@ZSTD_compr:

; 975  :                     U32 mlen;
; 976  : 
; 977  :                     DEBUGLOG(7, "testing match %u => offCode=%4u, mlen=%2u, llen=%2u",
; 978  :                                 matchNb, matches[matchNb].off, lastML, litlen);
; 979  : 
; 980  :                     for (mlen = lastML; mlen >= startML; mlen--) {  /* scan downward */

	cmp	edx, r12d
	jb	$LN21@ZSTD_compr
	mov	r11, QWORD PTR optStatePtr$1$[rbp-256]
	lea	r13d, DWORD PTR [r10+1]
	mov	r15d, r8d
	lea	edi, DWORD PTR [rdx+r8]
	neg	r15d
$LL26@ZSTD_compr:
; File E:\dev\pyzstd\lib\common\zstd_internal.h

; 398  :         return _BitScanReverse(&r, val) ? (unsigned)r : 0;

	bsr	eax, r13d
	mov	r8d, esi
	mov	DWORD PTR r$6[rbp-256], esi
; File E:\dev\pyzstd\lib\compress\zstd_opt.c

; 264  :     U32 const mlBase = matchLength - MINMATCH;

	lea	r14d, DWORD PTR [r15+rdi]

; 267  :     if (optPtr->priceType == zop_predef)  /* fixed scheme, do not use statistics */

	mov	DWORD PTR r$5[rbp-256], esi
; File E:\dev\pyzstd\lib\common\zstd_internal.h

; 398  :         return _BitScanReverse(&r, val) ? (unsigned)r : 0;

	cmovne	r8d, eax
; File E:\dev\pyzstd\lib\compress\zstd_opt.c

; 267  :     if (optPtr->priceType == zop_predef)  /* fixed scheme, do not use statistics */

	cmp	DWORD PTR [r11+80], 1
	jne	SHORT $LN1618@ZSTD_compr

; 43   :     return (ZSTD_highbit32(stat+1) * BITCOST_MULTIPLIER);

	lea	eax, DWORD PTR [r14-2]
; File E:\dev\pyzstd\lib\common\zstd_internal.h

; 398  :         return _BitScanReverse(&r, val) ? (unsigned)r : 0;

	bsr	ecx, eax
	mov	eax, esi
	cmovne	eax, ecx
; File E:\dev\pyzstd\lib\compress\zstd_opt.c

; 268  :         return WEIGHT(mlBase, optLevel) + ((16 + offCode) * BITCOST_MULTIPLIER);

	lea	ecx, DWORD PTR [r8+16]
	add	ecx, eax
	shl	ecx, 8
	jmp	SHORT $LN1617@ZSTD_compr
$LN1618@ZSTD_compr:

; 271  :     price = (offCode * BITCOST_MULTIPLIER) + (optPtr->offCodeSumBasePrice - WEIGHT(optPtr->offCodeFreq[offCode], optLevel));

	mov	rax, QWORD PTR [r11+24]
	mov	eax, DWORD PTR [rax+r8*4]

; 43   :     return (ZSTD_highbit32(stat+1) * BITCOST_MULTIPLIER);

	inc	eax
; File E:\dev\pyzstd\lib\common\zstd_internal.h

; 398  :         return _BitScanReverse(&r, val) ? (unsigned)r : 0;

	bsr	ecx, eax
	mov	eax, esi
; File E:\dev\pyzstd\lib\compress\zstd_opt.c

; 271  :     price = (offCode * BITCOST_MULTIPLIER) + (optPtr->offCodeSumBasePrice - WEIGHT(optPtr->offCodeFreq[offCode], optLevel));

	mov	esi, r8d
; File E:\dev\pyzstd\lib\common\zstd_internal.h

; 398  :         return _BitScanReverse(&r, val) ? (unsigned)r : 0;

	cmovne	eax, ecx
; File E:\dev\pyzstd\lib\compress\zstd_opt.c

; 271  :     price = (offCode * BITCOST_MULTIPLIER) + (optPtr->offCodeSumBasePrice - WEIGHT(optPtr->offCodeFreq[offCode], optLevel));

	sub	esi, eax
	shl	esi, 8
	add	esi, DWORD PTR [r11+76]

; 272  :     if ((optLevel<2) /*static*/ && offCode >= 20)

	cmp	r8d, 20
	jb	SHORT $LN1619@ZSTD_compr

; 273  :         price += (offCode-19)*2 * BITCOST_MULTIPLIER; /* handicap for long distance offsets, favor decompression speed */

	shl	r8d, 9
	add	esi, -9728				; ffffda00H
	add	esi, r8d
$LN1619@ZSTD_compr:

; 276  :     {   U32 const mlCode = ZSTD_MLcode(mlBase);

	lea	ecx, DWORD PTR [r14-3]
	call	ZSTD_MLcode

; 277  :         price += (ML_bits[mlCode] * BITCOST_MULTIPLIER) + (optPtr->matchLengthSumBasePrice - WEIGHT(optPtr->matchLengthFreq[mlCode], optLevel));

