; Listing generated by Microsoft (R) Optimizing Compiler Version 19.27.29111.0 

include listing.inc

INCLUDELIB OLDNAMES

prime4bytes DD	09e3779b1H
prime8bytes DQ	cf1bbcdcb7a56463H
prime5bytes DQ	000000cf1bbcdcbbH
prime7bytes DQ	00cf1bbcdcbfa563H
prime6bytes DQ	0000cf1bbcdcbf9bH
PUBLIC	ZSTD_compressBlock_btlazy2_extDict
PUBLIC	ZSTD_compressBlock_lazy_extDict
PUBLIC	ZSTD_compressBlock_lazy2_extDict
PUBLIC	ZSTD_compressBlock_lazy2_dictMatchState
PUBLIC	ZSTD_compressBlock_greedy_extDict
PUBLIC	ZSTD_compressBlock_greedy
PUBLIC	ZSTD_insertAndFindFirstIndex
PUBLIC	ZSTD_compressBlock_lazy_dictMatchState
PUBLIC	ZSTD_compressBlock_btlazy2_dictMatchState
PUBLIC	ZSTD_compressBlock_lazy2
PUBLIC	ZSTD_compressBlock_btlazy2
PUBLIC	ZSTD_compressBlock_greedy_dictMatchState
PUBLIC	ZSTD_compressBlock_lazy
pdata	SEGMENT
$pdata$ZSTD_compressBlock_lazy_extDict_generic DD imagerel ZSTD_compressBlock_lazy_extDict_generic
	DD	imagerel ZSTD_compressBlock_lazy_extDict_generic+230
	DD	imagerel $unwind$ZSTD_compressBlock_lazy_extDict_generic
$pdata$0$ZSTD_compressBlock_lazy_extDict_generic DD imagerel ZSTD_compressBlock_lazy_extDict_generic+230
	DD	imagerel ZSTD_compressBlock_lazy_extDict_generic+2390
	DD	imagerel $chain$0$ZSTD_compressBlock_lazy_extDict_generic
$pdata$1$ZSTD_compressBlock_lazy_extDict_generic DD imagerel ZSTD_compressBlock_lazy_extDict_generic+2390
	DD	imagerel ZSTD_compressBlock_lazy_extDict_generic+2421
	DD	imagerel $chain$1$ZSTD_compressBlock_lazy_extDict_generic
$pdata$ZSTD_compressBlock_lazy_generic DD imagerel ZSTD_compressBlock_lazy_generic
	DD	imagerel ZSTD_compressBlock_lazy_generic+3759
	DD	imagerel $unwind$ZSTD_compressBlock_lazy_generic
$pdata$ZSTD_HcFindBestMatch_extDict_selectMLS DD imagerel ZSTD_HcFindBestMatch_extDict_selectMLS
	DD	imagerel ZSTD_HcFindBestMatch_extDict_selectMLS+2220
	DD	imagerel $unwind$ZSTD_HcFindBestMatch_extDict_selectMLS
$pdata$ZSTD_HcFindBestMatch_dictMatchState_selectMLS DD imagerel ZSTD_HcFindBestMatch_dictMatchState_selectMLS
	DD	imagerel ZSTD_HcFindBestMatch_dictMatchState_selectMLS+2924
	DD	imagerel $unwind$ZSTD_HcFindBestMatch_dictMatchState_selectMLS
$pdata$ZSTD_HcFindBestMatch_selectMLS DD imagerel ZSTD_HcFindBestMatch_selectMLS
	DD	imagerel ZSTD_HcFindBestMatch_selectMLS+1767
	DD	imagerel $unwind$ZSTD_HcFindBestMatch_selectMLS
$pdata$ZSTD_HcFindBestMatch_generic DD imagerel ZSTD_HcFindBestMatch_generic
	DD	imagerel ZSTD_HcFindBestMatch_generic+1108
	DD	imagerel $unwind$ZSTD_HcFindBestMatch_generic
$pdata$ZSTD_insertAndFindFirstIndex_internal DD imagerel ZSTD_insertAndFindFirstIndex_internal
	DD	imagerel ZSTD_insertAndFindFirstIndex_internal+466
	DD	imagerel $unwind$ZSTD_insertAndFindFirstIndex_internal
$pdata$ZSTD_BtFindBestMatch_extDict_selectMLS DD imagerel ZSTD_BtFindBestMatch_extDict_selectMLS
	DD	imagerel ZSTD_BtFindBestMatch_extDict_selectMLS+112
	DD	imagerel $unwind$ZSTD_BtFindBestMatch_extDict_selectMLS
$pdata$1$ZSTD_BtFindBestMatch_extDict_selectMLS DD imagerel ZSTD_BtFindBestMatch_extDict_selectMLS+112
	DD	imagerel ZSTD_BtFindBestMatch_extDict_selectMLS+161
	DD	imagerel $chain$1$ZSTD_BtFindBestMatch_extDict_selectMLS
$pdata$2$ZSTD_BtFindBestMatch_extDict_selectMLS DD imagerel ZSTD_BtFindBestMatch_extDict_selectMLS+161
	DD	imagerel ZSTD_BtFindBestMatch_extDict_selectMLS+251
	DD	imagerel $chain$2$ZSTD_BtFindBestMatch_extDict_selectMLS
$pdata$3$ZSTD_BtFindBestMatch_extDict_selectMLS DD imagerel ZSTD_BtFindBestMatch_extDict_selectMLS+251
	DD	imagerel ZSTD_BtFindBestMatch_extDict_selectMLS+311
	DD	imagerel $chain$3$ZSTD_BtFindBestMatch_extDict_selectMLS
$pdata$4$ZSTD_BtFindBestMatch_extDict_selectMLS DD imagerel ZSTD_BtFindBestMatch_extDict_selectMLS+311
	DD	imagerel ZSTD_BtFindBestMatch_extDict_selectMLS+395
	DD	imagerel $chain$4$ZSTD_BtFindBestMatch_extDict_selectMLS
$pdata$ZSTD_BtFindBestMatch_dictMatchState_selectMLS DD imagerel ZSTD_BtFindBestMatch_dictMatchState_selectMLS
	DD	imagerel ZSTD_BtFindBestMatch_dictMatchState_selectMLS+112
	DD	imagerel $unwind$ZSTD_BtFindBestMatch_dictMatchState_selectMLS
$pdata$1$ZSTD_BtFindBestMatch_dictMatchState_selectMLS DD imagerel ZSTD_BtFindBestMatch_dictMatchState_selectMLS+112
	DD	imagerel ZSTD_BtFindBestMatch_dictMatchState_selectMLS+161
	DD	imagerel $chain$1$ZSTD_BtFindBestMatch_dictMatchState_selectMLS
$pdata$2$ZSTD_BtFindBestMatch_dictMatchState_selectMLS DD imagerel ZSTD_BtFindBestMatch_dictMatchState_selectMLS+161
	DD	imagerel ZSTD_BtFindBestMatch_dictMatchState_selectMLS+251
	DD	imagerel $chain$2$ZSTD_BtFindBestMatch_dictMatchState_selectMLS
$pdata$3$ZSTD_BtFindBestMatch_dictMatchState_selectMLS DD imagerel ZSTD_BtFindBestMatch_dictMatchState_selectMLS+251
	DD	imagerel ZSTD_BtFindBestMatch_dictMatchState_selectMLS+311
	DD	imagerel $chain$3$ZSTD_BtFindBestMatch_dictMatchState_selectMLS
$pdata$4$ZSTD_BtFindBestMatch_dictMatchState_selectMLS DD imagerel ZSTD_BtFindBestMatch_dictMatchState_selectMLS+311
	DD	imagerel ZSTD_BtFindBestMatch_dictMatchState_selectMLS+395
	DD	imagerel $chain$4$ZSTD_BtFindBestMatch_dictMatchState_selectMLS
$pdata$ZSTD_BtFindBestMatch_selectMLS DD imagerel ZSTD_BtFindBestMatch_selectMLS
	DD	imagerel ZSTD_BtFindBestMatch_selectMLS+110
	DD	imagerel $unwind$ZSTD_BtFindBestMatch_selectMLS
$pdata$1$ZSTD_BtFindBestMatch_selectMLS DD imagerel ZSTD_BtFindBestMatch_selectMLS+110
	DD	imagerel ZSTD_BtFindBestMatch_selectMLS+159
	DD	imagerel $chain$1$ZSTD_BtFindBestMatch_selectMLS
$pdata$2$ZSTD_BtFindBestMatch_selectMLS DD imagerel ZSTD_BtFindBestMatch_selectMLS+159
	DD	imagerel ZSTD_BtFindBestMatch_selectMLS+251
	DD	imagerel $chain$2$ZSTD_BtFindBestMatch_selectMLS
$pdata$3$ZSTD_BtFindBestMatch_selectMLS DD imagerel ZSTD_BtFindBestMatch_selectMLS+251
	DD	imagerel ZSTD_BtFindBestMatch_selectMLS+309
	DD	imagerel $chain$3$ZSTD_BtFindBestMatch_selectMLS
$pdata$4$ZSTD_BtFindBestMatch_selectMLS DD imagerel ZSTD_BtFindBestMatch_selectMLS+309
	DD	imagerel ZSTD_BtFindBestMatch_selectMLS+391
	DD	imagerel $chain$4$ZSTD_BtFindBestMatch_selectMLS
$pdata$ZSTD_BtFindBestMatch DD imagerel ZSTD_BtFindBestMatch
	DD	imagerel ZSTD_BtFindBestMatch+49
	DD	imagerel $unwind$ZSTD_BtFindBestMatch
$pdata$0$ZSTD_BtFindBestMatch DD imagerel ZSTD_BtFindBestMatch+49
	DD	imagerel ZSTD_BtFindBestMatch+100
	DD	imagerel $chain$0$ZSTD_BtFindBestMatch
$pdata$1$ZSTD_BtFindBestMatch DD imagerel ZSTD_BtFindBestMatch+100
	DD	imagerel ZSTD_BtFindBestMatch+122
	DD	imagerel $chain$1$ZSTD_BtFindBestMatch
$pdata$ZSTD_DUBT_findBestMatch DD imagerel ZSTD_DUBT_findBestMatch
	DD	imagerel ZSTD_DUBT_findBestMatch+1417
	DD	imagerel $unwind$ZSTD_DUBT_findBestMatch
$pdata$ZSTD_DUBT_findBetterDictMatch DD imagerel ZSTD_DUBT_findBetterDictMatch
	DD	imagerel ZSTD_DUBT_findBetterDictMatch+245
	DD	imagerel $unwind$ZSTD_DUBT_findBetterDictMatch
$pdata$2$ZSTD_DUBT_findBetterDictMatch DD imagerel ZSTD_DUBT_findBetterDictMatch+245
	DD	imagerel ZSTD_DUBT_findBetterDictMatch+592
	DD	imagerel $chain$2$ZSTD_DUBT_findBetterDictMatch
$pdata$4$ZSTD_DUBT_findBetterDictMatch DD imagerel ZSTD_DUBT_findBetterDictMatch+592
	DD	imagerel ZSTD_DUBT_findBetterDictMatch+696
	DD	imagerel $chain$4$ZSTD_DUBT_findBetterDictMatch
$pdata$5$ZSTD_DUBT_findBetterDictMatch DD imagerel ZSTD_DUBT_findBetterDictMatch+696
	DD	imagerel ZSTD_DUBT_findBetterDictMatch+719
	DD	imagerel $chain$5$ZSTD_DUBT_findBetterDictMatch
$pdata$ZSTD_insertDUBT1 DD imagerel ZSTD_insertDUBT1
	DD	imagerel ZSTD_insertDUBT1+904
	DD	imagerel $unwind$ZSTD_insertDUBT1
$pdata$ZSTD_updateDUBT DD imagerel ZSTD_updateDUBT
	DD	imagerel ZSTD_updateDUBT+73
	DD	imagerel $unwind$ZSTD_updateDUBT
$pdata$2$ZSTD_updateDUBT DD imagerel ZSTD_updateDUBT+73
	DD	imagerel ZSTD_updateDUBT+295
	DD	imagerel $chain$2$ZSTD_updateDUBT
$pdata$3$ZSTD_updateDUBT DD imagerel ZSTD_updateDUBT+295
	DD	imagerel ZSTD_updateDUBT+307
	DD	imagerel $chain$3$ZSTD_updateDUBT
$pdata$ZSTD_count_2segments DD imagerel ZSTD_count_2segments
	DD	imagerel ZSTD_count_2segments+106
	DD	imagerel $unwind$ZSTD_count_2segments
$pdata$ZSTD_storeSeq DD imagerel ZSTD_storeSeq
	DD	imagerel ZSTD_storeSeq+271
	DD	imagerel $unwind$ZSTD_storeSeq
$pdata$ZSTD_compressBlock_btlazy2_extDict DD imagerel $LN255
	DD	imagerel $LN255+177
	DD	imagerel $unwind$ZSTD_compressBlock_btlazy2_extDict
$pdata$1$ZSTD_compressBlock_btlazy2_extDict DD imagerel $LN255+177
	DD	imagerel $LN255+2291
	DD	imagerel $chain$1$ZSTD_compressBlock_btlazy2_extDict
$pdata$2$ZSTD_compressBlock_btlazy2_extDict DD imagerel $LN255+2291
	DD	imagerel $LN255+2319
	DD	imagerel $chain$2$ZSTD_compressBlock_btlazy2_extDict
$pdata$ZSTD_compressBlock_lazy_extDict DD imagerel $LN256
	DD	imagerel $LN256+1826
	DD	imagerel $unwind$ZSTD_compressBlock_lazy_extDict
$pdata$ZSTD_compressBlock_lazy2_extDict DD imagerel $LN255
	DD	imagerel $LN255+177
	DD	imagerel $unwind$ZSTD_compressBlock_lazy2_extDict
$pdata$1$ZSTD_compressBlock_lazy2_extDict DD imagerel $LN255+177
	DD	imagerel $LN255+2291
	DD	imagerel $chain$1$ZSTD_compressBlock_lazy2_extDict
$pdata$2$ZSTD_compressBlock_lazy2_extDict DD imagerel $LN255+2291
	DD	imagerel $LN255+2319
	DD	imagerel $chain$2$ZSTD_compressBlock_lazy2_extDict
$pdata$ZSTD_compressBlock_lazy2_dictMatchState DD imagerel $LN389
	DD	imagerel $LN389+201
	DD	imagerel $unwind$ZSTD_compressBlock_lazy2_dictMatchState
$pdata$0$ZSTD_compressBlock_lazy2_dictMatchState DD imagerel $LN389+201
	DD	imagerel $LN389+516
	DD	imagerel $chain$0$ZSTD_compressBlock_lazy2_dictMatchState
$pdata$1$ZSTD_compressBlock_lazy2_dictMatchState DD imagerel $LN389+516
	DD	imagerel $LN389+547
	DD	imagerel $chain$1$ZSTD_compressBlock_lazy2_dictMatchState
$pdata$2$ZSTD_compressBlock_lazy2_dictMatchState DD imagerel $LN389+547
	DD	imagerel $LN389+2000
	DD	imagerel $chain$2$ZSTD_compressBlock_lazy2_dictMatchState
$pdata$ZSTD_compressBlock_greedy_extDict DD imagerel $LN240
	DD	imagerel $LN240+173
	DD	imagerel $unwind$ZSTD_compressBlock_greedy_extDict
$pdata$0$ZSTD_compressBlock_greedy_extDict DD imagerel $LN240+173
	DD	imagerel $LN240+1222
	DD	imagerel $chain$0$ZSTD_compressBlock_greedy_extDict
$pdata$1$ZSTD_compressBlock_greedy_extDict DD imagerel $LN240+1222
	DD	imagerel $LN240+1251
	DD	imagerel $chain$1$ZSTD_compressBlock_greedy_extDict
$pdata$2$ZSTD_compressBlock_greedy_extDict DD imagerel $LN240+1251
	DD	imagerel $LN240+1274
	DD	imagerel $chain$2$ZSTD_compressBlock_greedy_extDict
$pdata$ZSTD_compressBlock_greedy DD imagerel $LN376
	DD	imagerel $LN376+973
	DD	imagerel $unwind$ZSTD_compressBlock_greedy
$pdata$ZSTD_compressBlock_lazy_dictMatchState DD imagerel $LN389
	DD	imagerel $LN389+199
	DD	imagerel $unwind$ZSTD_compressBlock_lazy_dictMatchState
$pdata$0$ZSTD_compressBlock_lazy_dictMatchState DD imagerel $LN389+199
	DD	imagerel $LN389+1620
	DD	imagerel $chain$0$ZSTD_compressBlock_lazy_dictMatchState
$pdata$1$ZSTD_compressBlock_lazy_dictMatchState DD imagerel $LN389+1620
	DD	imagerel $LN389+1651
	DD	imagerel $chain$1$ZSTD_compressBlock_lazy_dictMatchState
$pdata$ZSTD_compressBlock_btlazy2_dictMatchState DD imagerel $LN389
	DD	imagerel $LN389+201
	DD	imagerel $unwind$ZSTD_compressBlock_btlazy2_dictMatchState
$pdata$0$ZSTD_compressBlock_btlazy2_dictMatchState DD imagerel $LN389+201
	DD	imagerel $LN389+516
	DD	imagerel $chain$0$ZSTD_compressBlock_btlazy2_dictMatchState
$pdata$1$ZSTD_compressBlock_btlazy2_dictMatchState DD imagerel $LN389+516
	DD	imagerel $LN389+547
	DD	imagerel $chain$1$ZSTD_compressBlock_btlazy2_dictMatchState
$pdata$2$ZSTD_compressBlock_btlazy2_dictMatchState DD imagerel $LN389+547
	DD	imagerel $LN389+2000
	DD	imagerel $chain$2$ZSTD_compressBlock_btlazy2_dictMatchState
$pdata$ZSTD_compressBlock_lazy2 DD imagerel $LN382
	DD	imagerel $LN382+1575
	DD	imagerel $unwind$ZSTD_compressBlock_lazy2
$pdata$ZSTD_compressBlock_btlazy2 DD imagerel $LN382
	DD	imagerel $LN382+1575
	DD	imagerel $unwind$ZSTD_compressBlock_btlazy2
$pdata$ZSTD_compressBlock_greedy_dictMatchState DD imagerel $LN377
	DD	imagerel $LN377+1228
	DD	imagerel $unwind$ZSTD_compressBlock_greedy_dictMatchState
$pdata$ZSTD_compressBlock_lazy DD imagerel $LN382
	DD	imagerel $LN382+1318
	DD	imagerel $unwind$ZSTD_compressBlock_lazy
xdata	SEGMENT
$unwind$ZSTD_compressBlock_lazy_extDict_generic DD 092501H
	DD	0160125H
	DD	0e01cf01eH
	DD	07018c01aH
	DD	050166017H
	DD	03015H
$chain$0$ZSTD_compressBlock_lazy_extDict_generic DD 020821H
	DD	015d408H
	DD	imagerel ZSTD_compressBlock_lazy_extDict_generic
	DD	imagerel ZSTD_compressBlock_lazy_extDict_generic+230
	DD	imagerel $unwind$ZSTD_compressBlock_lazy_extDict_generic
$chain$1$ZSTD_compressBlock_lazy_extDict_generic DD 021H
	DD	imagerel ZSTD_compressBlock_lazy_extDict_generic
	DD	imagerel ZSTD_compressBlock_lazy_extDict_generic+230
	DD	imagerel $unwind$ZSTD_compressBlock_lazy_extDict_generic
$unwind$ZSTD_compressBlock_lazy_generic DD 0a2c01H
	DD	017012cH
	DD	0e01ef020H
	DD	0c01ad01cH
	DD	060177018H
	DD	050153016H
$unwind$ZSTD_HcFindBestMatch_extDict_selectMLS DD 091f01H
	DD	0f01bc21fH
	DD	0d017e019H
	DD	07013c015H
	DD	050116012H
	DD	03010H
$unwind$ZSTD_HcFindBestMatch_dictMatchState_selectMLS DD 092401H
	DD	0f020c224H
	DD	0d01ce01eH
	DD	07018c01aH
	DD	050166017H
	DD	03015H
$unwind$ZSTD_HcFindBestMatch_selectMLS DD 091f01H
	DD	0f01b821fH
	DD	0d017e019H
	DD	07013c015H
	DD	050116012H
	DD	03010H
$unwind$ZSTD_HcFindBestMatch_generic DD 0a1e01H
	DD	016341eH
	DD	0f01ab21eH
	DD	0d016e018H
	DD	07012c014H
	DD	050106011H
$unwind$ZSTD_insertAndFindFirstIndex_internal DD 091a01H
	DD	09341aH
	DD	0e018f01aH
	DD	0c014d016H
	DD	060117012H
	DD	05010H
$unwind$ZSTD_BtFindBestMatch_extDict_selectMLS DD 060c01H
	DD	0d340cH
	DD	07008520cH
	DD	050066007H
$chain$1$ZSTD_BtFindBestMatch_extDict_selectMLS DD 041721H
	DD	0cf417H
	DD	0ac405H
	DD	imagerel ZSTD_BtFindBestMatch_extDict_selectMLS
	DD	imagerel ZSTD_BtFindBestMatch_extDict_selectMLS+112
	DD	imagerel $unwind$ZSTD_BtFindBestMatch_extDict_selectMLS
$chain$2$ZSTD_BtFindBestMatch_extDict_selectMLS DD 020521H
	DD	0be405H
	DD	imagerel ZSTD_BtFindBestMatch_extDict_selectMLS+112
	DD	imagerel ZSTD_BtFindBestMatch_extDict_selectMLS+161
	DD	imagerel $chain$1$ZSTD_BtFindBestMatch_extDict_selectMLS
$chain$3$ZSTD_BtFindBestMatch_extDict_selectMLS DD 021H
	DD	imagerel ZSTD_BtFindBestMatch_extDict_selectMLS+112
	DD	imagerel ZSTD_BtFindBestMatch_extDict_selectMLS+161
	DD	imagerel $chain$1$ZSTD_BtFindBestMatch_extDict_selectMLS
$chain$4$ZSTD_BtFindBestMatch_extDict_selectMLS DD 021H
	DD	imagerel ZSTD_BtFindBestMatch_extDict_selectMLS
	DD	imagerel ZSTD_BtFindBestMatch_extDict_selectMLS+112
	DD	imagerel $unwind$ZSTD_BtFindBestMatch_extDict_selectMLS
$unwind$ZSTD_BtFindBestMatch_dictMatchState_selectMLS DD 060c01H
	DD	0d340cH
	DD	07008520cH
	DD	050066007H
$chain$1$ZSTD_BtFindBestMatch_dictMatchState_selectMLS DD 041721H
	DD	0cf417H
	DD	0ac405H
	DD	imagerel ZSTD_BtFindBestMatch_dictMatchState_selectMLS
	DD	imagerel ZSTD_BtFindBestMatch_dictMatchState_selectMLS+112
	DD	imagerel $unwind$ZSTD_BtFindBestMatch_dictMatchState_selectMLS
$chain$2$ZSTD_BtFindBestMatch_dictMatchState_selectMLS DD 020521H
	DD	0be405H
	DD	imagerel ZSTD_BtFindBestMatch_dictMatchState_selectMLS+112
	DD	imagerel ZSTD_BtFindBestMatch_dictMatchState_selectMLS+161
	DD	imagerel $chain$1$ZSTD_BtFindBestMatch_dictMatchState_selectMLS
$chain$3$ZSTD_BtFindBestMatch_dictMatchState_selectMLS DD 021H
	DD	imagerel ZSTD_BtFindBestMatch_dictMatchState_selectMLS+112
	DD	imagerel ZSTD_BtFindBestMatch_dictMatchState_selectMLS+161
	DD	imagerel $chain$1$ZSTD_BtFindBestMatch_dictMatchState_selectMLS
$chain$4$ZSTD_BtFindBestMatch_dictMatchState_selectMLS DD 021H
	DD	imagerel ZSTD_BtFindBestMatch_dictMatchState_selectMLS
	DD	imagerel ZSTD_BtFindBestMatch_dictMatchState_selectMLS+112
	DD	imagerel $unwind$ZSTD_BtFindBestMatch_dictMatchState_selectMLS
$unwind$ZSTD_BtFindBestMatch_selectMLS DD 060c01H
	DD	0d340cH
	DD	07008520cH
	DD	050066007H
$chain$1$ZSTD_BtFindBestMatch_selectMLS DD 041721H
	DD	0cf417H
	DD	0ac405H
	DD	imagerel ZSTD_BtFindBestMatch_selectMLS
	DD	imagerel ZSTD_BtFindBestMatch_selectMLS+110
	DD	imagerel $unwind$ZSTD_BtFindBestMatch_selectMLS
$chain$2$ZSTD_BtFindBestMatch_selectMLS DD 020521H
	DD	0be405H
	DD	imagerel ZSTD_BtFindBestMatch_selectMLS+110
	DD	imagerel ZSTD_BtFindBestMatch_selectMLS+159
	DD	imagerel $chain$1$ZSTD_BtFindBestMatch_selectMLS
$chain$3$ZSTD_BtFindBestMatch_selectMLS DD 021H
	DD	imagerel ZSTD_BtFindBestMatch_selectMLS+110
	DD	imagerel ZSTD_BtFindBestMatch_selectMLS+159
	DD	imagerel $chain$1$ZSTD_BtFindBestMatch_selectMLS
$chain$4$ZSTD_BtFindBestMatch_selectMLS DD 021H
	DD	imagerel ZSTD_BtFindBestMatch_selectMLS
	DD	imagerel ZSTD_BtFindBestMatch_selectMLS+110
	DD	imagerel $unwind$ZSTD_BtFindBestMatch_selectMLS
$unwind$ZSTD_BtFindBestMatch DD 081501H
	DD	0b7415H
	DD	0a6415H
	DD	095415H
	DD	0e0115215H
$chain$0$ZSTD_BtFindBestMatch DD 020521H
	DD	083405H
	DD	imagerel ZSTD_BtFindBestMatch
	DD	imagerel ZSTD_BtFindBestMatch+49
	DD	imagerel $unwind$ZSTD_BtFindBestMatch
$chain$1$ZSTD_BtFindBestMatch DD 021H
	DD	imagerel ZSTD_BtFindBestMatch
	DD	imagerel ZSTD_BtFindBestMatch+49
	DD	imagerel $unwind$ZSTD_BtFindBestMatch
$unwind$ZSTD_DUBT_findBestMatch DD 0b2601H
	DD	0223426H
	DD	0180126H
	DD	0e01df01fH
	DD	0c019d01bH
	DD	060167017H
	DD	05015H
$unwind$ZSTD_DUBT_findBetterDictMatch DD 071d01H
	DD	012011dH
	DD	0c014e016H
	DD	060117012H
	DD	03010H
$chain$2$ZSTD_DUBT_findBetterDictMatch DD 061d21H
	DD	0ff41dH
	DD	010d418H
	DD	0115408H
	DD	imagerel ZSTD_DUBT_findBetterDictMatch
	DD	imagerel ZSTD_DUBT_findBetterDictMatch+245
	DD	imagerel $unwind$ZSTD_DUBT_findBetterDictMatch
$chain$4$ZSTD_DUBT_findBetterDictMatch DD 060021H
	DD	0ff400H
	DD	010d400H
	DD	0115400H
	DD	imagerel ZSTD_DUBT_findBetterDictMatch
	DD	imagerel ZSTD_DUBT_findBetterDictMatch+245
	DD	imagerel $unwind$ZSTD_DUBT_findBetterDictMatch
$chain$5$ZSTD_DUBT_findBetterDictMatch DD 021H
	DD	imagerel ZSTD_DUBT_findBetterDictMatch
	DD	imagerel ZSTD_DUBT_findBetterDictMatch+245
	DD	imagerel $unwind$ZSTD_DUBT_findBetterDictMatch
$unwind$ZSTD_insertDUBT1 DD 0a1b01H
	DD	01a341bH
	DD	0f014f21bH
	DD	0d010e012H
	DD	0700cc00eH
	DD	0500a600bH
$unwind$ZSTD_updateDUBT DD 050c01H
	DD	0e00af00cH
	DD	060077008H
	DD	03006H
$chain$2$ZSTD_updateDUBT DD 061d21H
	DD	09d41dH
	DD	08c410H
	DD	075405H
	DD	imagerel ZSTD_updateDUBT
	DD	imagerel ZSTD_updateDUBT+73
	DD	imagerel $unwind$ZSTD_updateDUBT
$chain$3$ZSTD_updateDUBT DD 021H
	DD	imagerel ZSTD_updateDUBT
	DD	imagerel ZSTD_updateDUBT+73
	DD	imagerel $unwind$ZSTD_updateDUBT
$unwind$ZSTD_count_2segments DD 081401H
	DD	086414H
	DD	075414H
	DD	063414H
	DD	070103214H
$unwind$ZSTD_storeSeq DD 020501H
	DD	013405H
$unwind$ZSTD_compressBlock_btlazy2_extDict DD 082301H
	DD	0170123H
	DD	0c01ad01cH
	DD	060177018H
	DD	030155016H
$chain$1$ZSTD_compressBlock_btlazy2_extDict DD 041021H
	DD	015f410H
	DD	016e408H
	DD	imagerel $LN255
	DD	imagerel $LN255+177
	DD	imagerel $unwind$ZSTD_compressBlock_btlazy2_extDict
$chain$2$ZSTD_compressBlock_btlazy2_extDict DD 021H
	DD	imagerel $LN255
	DD	imagerel $LN255+177
	DD	imagerel $unwind$ZSTD_compressBlock_btlazy2_extDict
$unwind$ZSTD_compressBlock_lazy_extDict DD 0a2701H
	DD	0130127H
	DD	0e01ef020H
	DD	0c01ad01cH
	DD	060177018H
	DD	030155016H
$unwind$ZSTD_compressBlock_lazy2_extDict DD 082301H
	DD	0170123H
	DD	0c01ad01cH
	DD	060177018H
	DD	030155016H
$chain$1$ZSTD_compressBlock_lazy2_extDict DD 041021H
	DD	015f410H
	DD	016e408H
	DD	imagerel $LN255
	DD	imagerel $LN255+177
	DD	imagerel $unwind$ZSTD_compressBlock_lazy2_extDict
$chain$2$ZSTD_compressBlock_lazy2_extDict DD 021H
	DD	imagerel $LN255
	DD	imagerel $LN255+177
	DD	imagerel $unwind$ZSTD_compressBlock_lazy2_extDict
$unwind$ZSTD_compressBlock_lazy2_dictMatchState DD 092501H
	DD	0140125H
	DD	0e01cf01eH
	DD	07018d01aH
	DD	050166017H
	DD	03015H
$chain$0$ZSTD_compressBlock_lazy2_dictMatchState DD 020821H
	DD	013c408H
	DD	imagerel $LN389
	DD	imagerel $LN389+201
	DD	imagerel $unwind$ZSTD_compressBlock_lazy2_dictMatchState
$chain$1$ZSTD_compressBlock_lazy2_dictMatchState DD 021H
	DD	imagerel $LN389
	DD	imagerel $LN389+201
	DD	imagerel $unwind$ZSTD_compressBlock_lazy2_dictMatchState
$chain$2$ZSTD_compressBlock_lazy2_dictMatchState DD 020021H
	DD	013c400H
	DD	imagerel $LN389
	DD	imagerel $LN389+201
	DD	imagerel $unwind$ZSTD_compressBlock_lazy2_dictMatchState
$unwind$ZSTD_compressBlock_greedy_extDict DD 081901H
	DD	0f015b219H
	DD	0d011e013H
	DD	0600dc00fH
	DD	0300b500cH
$chain$0$ZSTD_compressBlock_greedy_extDict DD 020821H
	DD	0157408H
	DD	imagerel $LN240
	DD	imagerel $LN240+173
	DD	imagerel $unwind$ZSTD_compressBlock_greedy_extDict
$chain$1$ZSTD_compressBlock_greedy_extDict DD 021H
	DD	imagerel $LN240
	DD	imagerel $LN240+173
	DD	imagerel $unwind$ZSTD_compressBlock_greedy_extDict
$chain$2$ZSTD_compressBlock_greedy_extDict DD 020021H
	DD	0157400H
	DD	imagerel $LN240
	DD	imagerel $LN240+173
	DD	imagerel $unwind$ZSTD_compressBlock_greedy_extDict
$unwind$ZSTD_compressBlock_greedy DD 0a1e01H
	DD	011341eH
	DD	0f01a721eH
	DD	0d016e018H
	DD	07012c014H
	DD	050106011H
$unwind$ZSTD_compressBlock_lazy_dictMatchState DD 092501H
	DD	0120125H
	DD	0e01cf01eH
	DD	07018c01aH
	DD	050166017H
	DD	03015H
$chain$0$ZSTD_compressBlock_lazy_dictMatchState DD 020821H
	DD	011d408H
	DD	imagerel $LN389
	DD	imagerel $LN389+199
	DD	imagerel $unwind$ZSTD_compressBlock_lazy_dictMatchState
$chain$1$ZSTD_compressBlock_lazy_dictMatchState DD 021H
	DD	imagerel $LN389
	DD	imagerel $LN389+199
	DD	imagerel $unwind$ZSTD_compressBlock_lazy_dictMatchState
$unwind$ZSTD_compressBlock_btlazy2_dictMatchState DD 092501H
	DD	0140125H
	DD	0e01cf01eH
	DD	07018d01aH
	DD	050166017H
	DD	03015H
$chain$0$ZSTD_compressBlock_btlazy2_dictMatchState DD 020821H
	DD	013c408H
	DD	imagerel $LN389
	DD	imagerel $LN389+201
	DD	imagerel $unwind$ZSTD_compressBlock_btlazy2_dictMatchState
$chain$1$ZSTD_compressBlock_btlazy2_dictMatchState DD 021H
	DD	imagerel $LN389
	DD	imagerel $LN389+201
	DD	imagerel $unwind$ZSTD_compressBlock_btlazy2_dictMatchState
$chain$2$ZSTD_compressBlock_btlazy2_dictMatchState DD 020021H
	DD	013c400H
	DD	imagerel $LN389
	DD	imagerel $LN389+201
	DD	imagerel $unwind$ZSTD_compressBlock_btlazy2_dictMatchState
$unwind$ZSTD_compressBlock_lazy2 DD 092401H
	DD	0f020e224H
	DD	0d01ce01eH
	DD	07018c01aH
	DD	050166017H
	DD	03015H
$unwind$ZSTD_compressBlock_btlazy2 DD 092401H
	DD	0f020e224H
	DD	0d01ce01eH
	DD	07018c01aH
	DD	050166017H
	DD	03015H
$unwind$ZSTD_compressBlock_greedy_dictMatchState DD 0a1e01H
	DD	017341eH
	DD	0f01ad21eH
	DD	0d016e018H
	DD	07012c014H
	DD	050106011H
$unwind$ZSTD_compressBlock_lazy DD 092401H
	DD	0f020c224H
	DD	0d01ce01eH
	DD	07018c01aH
	DD	050166017H
	DD	03015H
; Function compile flags: /Ogtpy
; File E:\dev\pyzstd\lib\compress\zstd_lazy.c
; File E:\dev\pyzstd\lib\compress\zstd_compress_internal.h
; File E:\dev\pyzstd\lib\compress\zstd_lazy.c
; File E:\dev\pyzstd\lib\compress\zstd_compress_internal.h
; File E:\dev\pyzstd\lib\compress\zstd_lazy.c
; File E:\dev\pyzstd\lib\compress\zstd_compress_internal.h
; File E:\dev\pyzstd\lib\compress\zstd_lazy.c
; File E:\dev\pyzstd\lib\compress\zstd_compress_internal.h
; File E:\dev\pyzstd\lib\compress\zstd_lazy.c
; File E:\dev\pyzstd\lib\compress\zstd_compress_internal.h
; File E:\dev\pyzstd\lib\compress\zstd_lazy.c
; File E:\dev\pyzstd\lib\compress\zstd_compress_internal.h
; File E:\dev\pyzstd\lib\compress\zstd_lazy.c
; File E:\dev\pyzstd\lib\common\zstd_internal.h
; File E:\dev\pyzstd\lib\compress\zstd_lazy.c
; File E:\dev\pyzstd\lib\common\zstd_internal.h
; File E:\dev\pyzstd\lib\compress\zstd_lazy.c
; File E:\dev\pyzstd\lib\common\zstd_internal.h
; File E:\dev\pyzstd\lib\compress\zstd_lazy.c
; File E:\dev\pyzstd\lib\common\zstd_internal.h
; File E:\dev\pyzstd\lib\compress\zstd_lazy.c
; File E:\dev\pyzstd\lib\common\zstd_internal.h
; File E:\dev\pyzstd\lib\compress\zstd_lazy.c
; File E:\dev\pyzstd\lib\common\zstd_internal.h
; File E:\dev\pyzstd\lib\compress\zstd_lazy.c
; File E:\dev\pyzstd\lib\compress\zstd_compress_internal.h
; File E:\dev\pyzstd\lib\compress\zstd_lazy.c
; File E:\dev\pyzstd\lib\compress\zstd_compress_internal.h
; File E:\dev\pyzstd\lib\compress\zstd_lazy.c
; File E:\dev\pyzstd\lib\compress\zstd_compress_internal.h
; File E:\dev\pyzstd\lib\common\zstd_internal.h
; File E:\dev\pyzstd\lib\compress\zstd_compress_internal.h
; File E:\dev\pyzstd\lib\common\zstd_internal.h
; File E:\dev\pyzstd\lib\compress\zstd_compress_internal.h
; File E:\dev\pyzstd\lib\common\zstd_internal.h
; File E:\dev\pyzstd\lib\compress\zstd_compress_internal.h
; File E:\dev\pyzstd\lib\compress\zstd_lazy.c
; File E:\dev\pyzstd\lib\compress\zstd_compress_internal.h
; File E:\dev\pyzstd\lib\compress\zstd_lazy.c
; File E:\dev\pyzstd\lib\compress\zstd_compress_internal.h
; File E:\dev\pyzstd\lib\compress\zstd_lazy.c
; File E:\dev\pyzstd\lib\compress\zstd_compress_internal.h
; File E:\dev\pyzstd\lib\compress\zstd_lazy.c
; File E:\dev\pyzstd\lib\compress\zstd_compress_internal.h
; File E:\dev\pyzstd\lib\common\zstd_internal.h
; File E:\dev\pyzstd\lib\compress\zstd_compress_internal.h
; File E:\dev\pyzstd\lib\compress\zstd_lazy.c
; File E:\dev\pyzstd\lib\compress\zstd_compress_internal.h
; File E:\dev\pyzstd\lib\compress\zstd_lazy.c
_TEXT	SEGMENT
tv2134 = 32
r$1 = 32
r$2 = 32
r$3 = 32
offset_2$1$ = 36
tv2307 = 40
iend$1$ = 48
offsetFound$4 = 56
offset2$5 = 64
tv2135 = 72
prefixLowest$1$ = 80
ilimit$1$ = 88
ms$ = 176
seqStore$ = 184
rep$ = 192
src$ = 200
offset_1$1$ = 208
srcSize$ = 208
ZSTD_compressBlock_lazy PROC

; 888  : {

$LN382:
	mov	QWORD PTR [rsp+32], r9
	mov	QWORD PTR [rsp+24], r8
	mov	QWORD PTR [rsp+16], rdx
	mov	QWORD PTR [rsp+8], rcx
	push	rbx
	push	rbp
	push	rsi
	push	rdi
	push	r12
	push	r13
	push	r14
	push	r15
	sub	rsp, 104				; 00000068H

; 638  :     const U32 prefixLowestIndex = ms->window.dictLimit;

	mov	r10d, DWORD PTR [rcx+24]

; 888  : {

	mov	r15, rcx

; 644  :     searchMax_f const searchMax = dictMode == ZSTD_dictMatchState ?

	mov	edi, DWORD PTR [r8]

; 888  : {

	mov	r14, r9

; 649  :     U32 offset_1 = rep[0], offset_2 = rep[1], savedOffset=0;

	mov	r11d, DWORD PTR [r8+4]

; 888  : {

	mov	rsi, rdx

; 635  :     const BYTE* const iend = istart + srcSize;

	mov	r13, QWORD PTR srcSize$[rsp]

; 668  :     ip += (dictAndPrefixLength == 0);

	xor	r8d, r8d
	add	r13, r9
	mov	eax, r8d
	mov	r9, QWORD PTR [rcx+8]
; File E:\dev\pyzstd\lib\compress\zstd_compress_internal.h

; 991  :     U32    const maxDistance = 1U << windowLog;

	mov	ecx, DWORD PTR [rcx+184]
; File E:\dev\pyzstd\lib\compress\zstd_lazy.c

; 635  :     const BYTE* const iend = istart + srcSize;

	mov	QWORD PTR iend$1$[rsp], r13

; 636  :     const BYTE* const ilimit = iend - 8;

	lea	rbp, QWORD PTR [r13-8]

; 639  :     const BYTE* const prefixLowest = base + prefixLowestIndex;

	lea	rdx, QWORD PTR [r9+r10]
	mov	QWORD PTR ilimit$1$[rsp], rbp

; 668  :     ip += (dictAndPrefixLength == 0);

	cmp	r14d, edx
	mov	QWORD PTR prefixLowest$1$[rsp], rdx
; File E:\dev\pyzstd\lib\compress\zstd_compress_internal.h

; 991  :     U32    const maxDistance = 1U << windowLog;

	mov	edx, 1
; File E:\dev\pyzstd\lib\compress\zstd_lazy.c

; 668  :     ip += (dictAndPrefixLength == 0);

	sete	al
; File E:\dev\pyzstd\lib\compress\zstd_compress_internal.h

; 991  :     U32    const maxDistance = 1U << windowLog;

	shl	edx, cl
; File E:\dev\pyzstd\lib\compress\zstd_lazy.c

; 668  :     ip += (dictAndPrefixLength == 0);

	lea	rbx, QWORD PTR [rax+r14]

; 669  :     if (dictMode == ZSTD_noDict) {
; 670  :         U32 const current = (U32)(ip - base);

	mov	r8d, ebx
	sub	r8d, r9d
; File E:\dev\pyzstd\lib\compress\zstd_compress_internal.h

; 993  :     U32    const withinWindow = (current - lowestValid > maxDistance) ? current - maxDistance : lowestValid;

	mov	eax, r8d

; 994  :     U32    const isDictionary = (ms->loadedDictEnd != 0);

	mov	ecx, r8d
	sub	eax, r10d
	sub	ecx, edx
	cmp	eax, edx
; File E:\dev\pyzstd\lib\compress\zstd_lazy.c

; 690  :     while (ip < ilimit) {

	mov	eax, edi
; File E:\dev\pyzstd\lib\compress\zstd_compress_internal.h

; 994  :     U32    const isDictionary = (ms->loadedDictEnd != 0);

	cmovbe	ecx, r10d
	cmp	DWORD PTR [r15+32], 0

; 995  :     U32    const matchLowest = isDictionary ? lowestValid : withinWindow;

	cmovne	ecx, r10d
; File E:\dev\pyzstd\lib\compress\zstd_lazy.c

; 674  :         if (offset_1 > maxRep) savedOffset = offset_1, offset_1 = 0;

	xor	r10d, r10d
	sub	r8d, ecx
	mov	r12d, r10d
	cmp	r11d, r8d

; 690  :     while (ip < ilimit) {

	mov	r9d, r10d
	cmovbe	r12d, r11d
	cmovbe	r11d, r10d
	cmp	edi, r8d
	cmovbe	eax, r11d
	cmovbe	r9d, edi
	mov	DWORD PTR tv2307[rsp], eax
	cmp	rbx, rbp
	jae	$LN5@ZSTD_compr
; File E:\dev\pyzstd\lib\compress\zstd_compress_internal.h

; 485  :         seqStorePtr->longLengthPos = (U32)(seqStorePtr->sequences - seqStorePtr->sequencesStart);

	mov	DWORD PTR offset_2$1$[rsp], r12d
	mov	DWORD PTR offset_1$1$[rsp], r9d
	npad	7
$LL4@ZSTD_compr:
; File E:\dev\pyzstd\lib\compress\zstd_lazy.c

; 710  :           && ((offset_1 > 0) & (MEM_read32(ip+1-offset_1) == MEM_read32(ip+1)))) {

	mov	eax, r9d
	lea	r15, QWORD PTR [rbx+1]
	mov	r8d, r10d
	mov	QWORD PTR tv2135[rsp], rax
	mov	ecx, r10d
	mov	rdx, rbx
	sub	rdx, rax
	mov	rdi, r10
	mov	eax, DWORD PTR [r15]
	test	r9d, r9d
	mov	rbp, r10
	setne	r8b
	cmp	DWORD PTR [rdx+1], eax
	mov	DWORD PTR tv2134[rsp], r8d
	sete	cl
	test	ecx, r8d
	je	SHORT $LN24@ZSTD_compr

; 711  :             matchLength = ZSTD_count(ip+1+4, ip+1+4-offset_1, iend) + 4;

	add	rdx, 5
	lea	rcx, QWORD PTR [rbx+5]
	mov	r8, r13
	call	ZSTD_count
	lea	rdi, QWORD PTR [rax+4]
$LN24@ZSTD_compr:

; 712  :             if (depth==0) goto _storeSequence;
; 713  :         }
; 714  : 
; 715  :         /* first search (depth 0) */
; 716  :         {   size_t offsetFound = 999999999;
; 717  :             size_t const ml2 = searchMax(ms, ip, iend, &offsetFound);

	mov	rcx, QWORD PTR ms$[rsp]
	lea	r9, QWORD PTR offsetFound$4[rsp]
	mov	r8, r13
	mov	QWORD PTR offsetFound$4[rsp], 999999999	; 3b9ac9ffH
	mov	rdx, rbx
	call	ZSTD_HcFindBestMatch_selectMLS

; 718  :             if (ml2 > matchLength)

	cmp	rax, rdi
	jbe	SHORT $LN25@ZSTD_compr

; 719  :                 matchLength = ml2, start = ip, offset=offsetFound;

	mov	rbp, QWORD PTR offsetFound$4[rsp]
	mov	rdi, rax
	mov	r15, rbx
$LN25@ZSTD_compr:

; 720  :         }
; 721  : 
; 722  :         if (matchLength < 4) {

	cmp	rdi, 4
	jae	SHORT $LN354@ZSTD_compr

; 723  :             ip += ((ip-anchor) >> kSearchStrength) + 1;   /* jump faster over incompressible sections */

	mov	rax, rbx
	inc	rbx
	sub	rax, r14
	sar	rax, 8
	add	rbx, rax

; 724  :             continue;

	xor	r10d, r10d
	jmp	$LN15@ZSTD_compr
$LN354@ZSTD_compr:

; 725  :         }
; 726  : 
; 727  :         /* let's try to find a better solution */
; 728  :         if (depth>=1)
; 729  :         while (ip<ilimit) {

	lea	rax, QWORD PTR [r13-8]
	xor	r10d, r10d
	cmp	rbx, rax
	jae	$LN33@ZSTD_compr
	mov	esi, DWORD PTR tv2134[rsp]
	mov	r12, QWORD PTR tv2135[rsp]
	mov	r14, QWORD PTR ms$[rsp]
	npad	4
$LL6@ZSTD_compr:

; 730  :             ip ++;

	inc	rbx

; 731  :             if ( (dictMode == ZSTD_noDict)
; 732  :               && (offset) && ((offset_1>0) & (MEM_read32(ip) == MEM_read32(ip - offset_1)))) {

	test	rbp, rbp
	je	SHORT $LN29@ZSTD_compr
	mov	ecx, r10d
	mov	rdx, rbx
	sub	rdx, r12
	mov	eax, DWORD PTR [rdx]
	cmp	DWORD PTR [rbx], eax
	sete	cl
	test	ecx, esi
	je	SHORT $LN29@ZSTD_compr

; 733  :                 size_t const mlRep = ZSTD_count(ip+4, ip+4-offset_1, iend) + 4;

	add	rdx, 4
	lea	rcx, QWORD PTR [rbx+4]
	mov	r8, r13
	call	ZSTD_count
; File E:\dev\pyzstd\lib\common\zstd_internal.h

; 397  :         unsigned long r=0;

	xor	r8d, r8d
	mov	DWORD PTR r$1[rsp], r8d
; File E:\dev\pyzstd\lib\compress\zstd_lazy.c

; 733  :                 size_t const mlRep = ZSTD_count(ip+4, ip+4-offset_1, iend) + 4;

	lea	rdx, QWORD PTR [rax+4]

; 735  :                 int const gain1 = (int)(matchLength*3 - ZSTD_highbit32((U32)offset+1) + 1);

	lea	eax, DWORD PTR [rbp+1]
; File E:\dev\pyzstd\lib\common\zstd_internal.h

; 398  :         return _BitScanReverse(&r, val) ? (unsigned)r : 0;

	bsr	ecx, eax
	mov	eax, r8d
	cmovne	eax, ecx
; File E:\dev\pyzstd\lib\compress\zstd_lazy.c

; 735  :                 int const gain1 = (int)(matchLength*3 - ZSTD_highbit32((U32)offset+1) + 1);

	lea	ecx, DWORD PTR [rdi+rdi*2]
	sub	ecx, eax
	inc	ecx

; 736  :                 if ((mlRep >= 4) && (gain2 > gain1))

	cmp	rdx, 4
	jb	SHORT $LN29@ZSTD_compr
	lea	eax, DWORD PTR [rdx+rdx*2]
	cmp	eax, ecx
	jle	SHORT $LN29@ZSTD_compr

; 737  :                     matchLength = mlRep, offset = 0, start = ip;

	mov	rdi, rdx
	mov	ebp, r8d
	mov	r15, rbx
$LN29@ZSTD_compr:

; 738  :             }
; 739  :             if (dictMode == ZSTD_dictMatchState) {
; 740  :                 const U32 repIndex = (U32)(ip - base) - offset_1;
; 741  :                 const BYTE* repMatch = repIndex < prefixLowestIndex ?
; 742  :                                dictBase + (repIndex - dictIndexDelta) :
; 743  :                                base + repIndex;
; 744  :                 if (((U32)((prefixLowestIndex-1) - repIndex) >= 3 /* intentional underflow */)
; 745  :                     && (MEM_read32(repMatch) == MEM_read32(ip)) ) {
; 746  :                     const BYTE* repMatchEnd = repIndex < prefixLowestIndex ? dictEnd : iend;
; 747  :                     size_t const mlRep = ZSTD_count_2segments(ip+4, repMatch+4, iend, repMatchEnd, prefixLowest) + 4;
; 748  :                     int const gain2 = (int)(mlRep * 3);
; 749  :                     int const gain1 = (int)(matchLength*3 - ZSTD_highbit32((U32)offset+1) + 1);
; 750  :                     if ((mlRep >= 4) && (gain2 > gain1))
; 751  :                         matchLength = mlRep, offset = 0, start = ip;
; 752  :                 }
; 753  :             }
; 754  :             {   size_t offset2=999999999;
; 755  :                 size_t const ml2 = searchMax(ms, ip, iend, &offset2);

	lea	r9, QWORD PTR offset2$5[rsp]
	mov	QWORD PTR offset2$5[rsp], 999999999	; 3b9ac9ffH
	mov	r8, r13
	mov	rdx, rbx
	mov	rcx, r14
	call	ZSTD_HcFindBestMatch_selectMLS

; 756  :                 int const gain2 = (int)(ml2*4 - ZSTD_highbit32((U32)offset2+1));   /* raw approx */

	mov	r9, QWORD PTR offset2$5[rsp]
	mov	r8, rax
; File E:\dev\pyzstd\lib\common\zstd_internal.h

; 397  :         unsigned long r=0;

	xor	r10d, r10d
	mov	DWORD PTR r$3[rsp], r10d
	mov	DWORD PTR r$2[rsp], r10d
; File E:\dev\pyzstd\lib\compress\zstd_lazy.c

; 756  :                 int const gain2 = (int)(ml2*4 - ZSTD_highbit32((U32)offset2+1));   /* raw approx */

	lea	eax, DWORD PTR [r9+1]
; File E:\dev\pyzstd\lib\common\zstd_internal.h

; 398  :         return _BitScanReverse(&r, val) ? (unsigned)r : 0;

	bsr	ecx, eax
	mov	eax, r10d
; File E:\dev\pyzstd\lib\compress\zstd_lazy.c

; 756  :                 int const gain2 = (int)(ml2*4 - ZSTD_highbit32((U32)offset2+1));   /* raw approx */

	lea	edx, DWORD PTR [r8*4]
; File E:\dev\pyzstd\lib\common\zstd_internal.h

; 398  :         return _BitScanReverse(&r, val) ? (unsigned)r : 0;

	cmovne	eax, ecx
; File E:\dev\pyzstd\lib\compress\zstd_lazy.c

; 756  :                 int const gain2 = (int)(ml2*4 - ZSTD_highbit32((U32)offset2+1));   /* raw approx */

	sub	edx, eax

; 757  :                 int const gain1 = (int)(matchLength*4 - ZSTD_highbit32((U32)offset+1) + 4);

	lea	eax, DWORD PTR [rbp+1]
; File E:\dev\pyzstd\lib\common\zstd_internal.h

; 398  :         return _BitScanReverse(&r, val) ? (unsigned)r : 0;

	bsr	ecx, eax
	mov	eax, r10d
	cmovne	eax, ecx
; File E:\dev\pyzstd\lib\compress\zstd_lazy.c

; 757  :                 int const gain1 = (int)(matchLength*4 - ZSTD_highbit32((U32)offset+1) + 4);

	lea	ecx, DWORD PTR [rdi*4+4]
	sub	ecx, eax

; 758  :                 if ((ml2 >= 4) && (gain2 > gain1)) {

	cmp	r8, 4
	jb	SHORT $LN376@ZSTD_compr
	cmp	edx, ecx
	jle	SHORT $LN376@ZSTD_compr

; 759  :                     matchLength = ml2, offset = offset2, start = ip;

	lea	rax, QWORD PTR [r13-8]
	mov	rdi, r8
	mov	rbp, r9
	mov	r15, rbx
	cmp	rbx, rax
	jb	$LL6@ZSTD_compr
$LN376@ZSTD_compr:
	mov	rsi, QWORD PTR seqStore$[rsp]
	mov	r14, QWORD PTR src$[rsp]
	mov	r12d, DWORD PTR offset_2$1$[rsp]
$LN33@ZSTD_compr:

; 760  :                     continue;   /* search a better one */
; 761  :             }   }
; 762  : 
; 763  :             /* let's find an even better one */
; 764  :             if ((depth==2) && (ip<ilimit)) {
; 765  :                 ip ++;
; 766  :                 if ( (dictMode == ZSTD_noDict)
; 767  :                   && (offset) && ((offset_1>0) & (MEM_read32(ip) == MEM_read32(ip - offset_1)))) {
; 768  :                     size_t const mlRep = ZSTD_count(ip+4, ip+4-offset_1, iend) + 4;
; 769  :                     int const gain2 = (int)(mlRep * 4);
; 770  :                     int const gain1 = (int)(matchLength*4 - ZSTD_highbit32((U32)offset+1) + 1);
; 771  :                     if ((mlRep >= 4) && (gain2 > gain1))
; 772  :                         matchLength = mlRep, offset = 0, start = ip;
; 773  :                 }
; 774  :                 if (dictMode == ZSTD_dictMatchState) {
; 775  :                     const U32 repIndex = (U32)(ip - base) - offset_1;
; 776  :                     const BYTE* repMatch = repIndex < prefixLowestIndex ?
; 777  :                                    dictBase + (repIndex - dictIndexDelta) :
; 778  :                                    base + repIndex;
; 779  :                     if (((U32)((prefixLowestIndex-1) - repIndex) >= 3 /* intentional underflow */)
; 780  :                         && (MEM_read32(repMatch) == MEM_read32(ip)) ) {
; 781  :                         const BYTE* repMatchEnd = repIndex < prefixLowestIndex ? dictEnd : iend;
; 782  :                         size_t const mlRep = ZSTD_count_2segments(ip+4, repMatch+4, iend, repMatchEnd, prefixLowest) + 4;
; 783  :                         int const gain2 = (int)(mlRep * 4);
; 784  :                         int const gain1 = (int)(matchLength*4 - ZSTD_highbit32((U32)offset+1) + 1);
; 785  :                         if ((mlRep >= 4) && (gain2 > gain1))
; 786  :                             matchLength = mlRep, offset = 0, start = ip;
; 787  :                     }
; 788  :                 }
; 789  :                 {   size_t offset2=999999999;
; 790  :                     size_t const ml2 = searchMax(ms, ip, iend, &offset2);
; 791  :                     int const gain2 = (int)(ml2*4 - ZSTD_highbit32((U32)offset2+1));   /* raw approx */
; 792  :                     int const gain1 = (int)(matchLength*4 - ZSTD_highbit32((U32)offset+1) + 7);
; 793  :                     if ((ml2 >= 4) && (gain2 > gain1)) {
; 794  :                         matchLength = ml2, offset = offset2, start = ip;
; 795  :                         continue;
; 796  :             }   }   }
; 797  :             break;  /* nothing found : store previous solution */
; 798  :         }
; 799  : 
; 800  :         /* NOTE:
; 801  :          * start[-offset+ZSTD_REP_MOVE-1] is undefined behavior.
; 802  :          * (-offset+ZSTD_REP_MOVE-1) is unsigned, and is added to start, which
; 803  :          * overflows the pointer, which is undefined behavior.
; 804  :          */
; 805  :         /* catch up */
; 806  :         if (offset) {

	test	rbp, rbp
	je	SHORT $_storeSequence$383

; 807  :             if (dictMode == ZSTD_noDict) {
; 808  :                 while ( ((start > anchor) & (start - (offset-ZSTD_REP_MOVE) > prefixLowest))
; 809  :                      && (start[-1] == (start-(offset-ZSTD_REP_MOVE))[-1]) )  /* only search for offset within prefix */

	mov	r8, QWORD PTR prefixLowest$1$[rsp]
	mov	ecx, r10d
	mov	eax, r10d
	mov	rdx, r15
	sub	rdx, rbp
	add	rdx, 2
	cmp	r15, r14
	seta	cl
	cmp	rdx, r8
	seta	al
	test	ecx, eax
	je	SHORT $LN377@ZSTD_compr
	npad	3
$LL8@ZSTD_compr:
	movzx	eax, BYTE PTR [rdx-1]
	cmp	BYTE PTR [rdx+rbp-3], al
	jne	SHORT $LN377@ZSTD_compr

; 810  :                     { start--; matchLength++; }

	dec	r15
	dec	rdx
	inc	rdi
	mov	ecx, r10d
	cmp	rdx, r8
	mov	eax, r10d
	seta	cl
	cmp	r15, r14
	seta	al
	test	ecx, eax
	jne	SHORT $LL8@ZSTD_compr
$LN377@ZSTD_compr:

; 811  :             }
; 812  :             if (dictMode == ZSTD_dictMatchState) {
; 813  :                 U32 const matchIndex = (U32)((start-base) - (offset - ZSTD_REP_MOVE));
; 814  :                 const BYTE* match = (matchIndex < prefixLowestIndex) ? dictBase + matchIndex - dictIndexDelta : base + matchIndex;
; 815  :                 const BYTE* const mStart = (matchIndex < prefixLowestIndex) ? dictLowest : prefixLowest;
; 816  :                 while ((start>anchor) && (match>mStart) && (start[-1] == match[-1])) { start--; match--; matchLength++; }  /* catch up */
; 817  :             }
; 818  :             offset_2 = offset_1; offset_1 = (U32)(offset - ZSTD_REP_MOVE);

	mov	r12d, DWORD PTR offset_1$1$[rsp]
	lea	eax, DWORD PTR [rbp-2]
	mov	DWORD PTR offset_1$1$[rsp], eax
	mov	DWORD PTR offset_2$1$[rsp], r12d
$_storeSequence$383:
; File E:\dev\pyzstd\lib\compress\zstd_compress_internal.h

; 442  :     BYTE const* const litEnd = literals + litLength;

	mov	rcx, QWORD PTR [rsi+24]
; File E:\dev\pyzstd\lib\compress\zstd_lazy.c

; 823  :             ZSTD_storeSeq(seqStore, litLength, anchor, iend, (U32)offset, matchLength-MINMATCH);

	lea	rdx, QWORD PTR [rdi-3]
	mov	rbx, r15
; File E:\dev\pyzstd\lib\compress\zstd_compress_internal.h

; 441  :     BYTE const* const litLimit_w = litLimit - WILDCOPY_OVERLENGTH;

	add	r13, -32				; ffffffffffffffe0H
; File E:\dev\pyzstd\lib\compress\zstd_lazy.c

; 822  :         {   size_t const litLength = start - anchor;

	sub	rbx, r14
; File E:\dev\pyzstd\lib\compress\zstd_compress_internal.h

; 442  :     BYTE const* const litEnd = literals + litLength;

	lea	r8, QWORD PTR [rbx+r14]

; 456  :     if (litEnd <= litLimit_w) {

	cmp	r8, r13
	ja	SHORT $LN222@ZSTD_compr
; File E:\dev\pyzstd\lib\common\zstd_internal.h

; 243  :     memcpy(dst, src, 16);

	movups	xmm0, XMMWORD PTR [r14]
	movups	XMMWORD PTR [rcx], xmm0
; File E:\dev\pyzstd\lib\compress\zstd_compress_internal.h

; 462  :         if (litLength > 16) {

	cmp	rbx, 16
	jbe	SHORT $LN223@ZSTD_compr

; 463  :             ZSTD_wildcopy(seqStorePtr->lit+16, literals+16, (ptrdiff_t)litLength-16, ZSTD_no_overlap);

	mov	rax, QWORD PTR [rsi+24]
; File E:\dev\pyzstd\lib\common\zstd_internal.h

; 270  :     BYTE* const oend = op + length;

	lea	rcx, QWORD PTR [rbx-16]
; File E:\dev\pyzstd\lib\compress\zstd_compress_internal.h

; 463  :             ZSTD_wildcopy(seqStorePtr->lit+16, literals+16, (ptrdiff_t)litLength-16, ZSTD_no_overlap);

	add	rax, 16
	add	r14, 16
; File E:\dev\pyzstd\lib\common\zstd_internal.h

; 270  :     BYTE* const oend = op + length;

	add	rcx, rax
	npad	5
$LL236@ZSTD_compr:

; 243  :     memcpy(dst, src, 16);

	movups	xmm0, XMMWORD PTR [r14]

; 289  :             COPY16(op, ip);

	lea	r14, QWORD PTR [r14+16]

; 243  :     memcpy(dst, src, 16);

	movups	XMMWORD PTR [rax], xmm0

; 289  :             COPY16(op, ip);

	add	rax, 16

; 290  :         }
; 291  :         while (op < oend);

	cmp	rax, rcx
	jb	SHORT $LL236@ZSTD_compr
; File E:\dev\pyzstd\lib\compress\zstd_compress_internal.h

; 465  :     } else {

	jmp	SHORT $LN223@ZSTD_compr
$LN222@ZSTD_compr:

; 466  :         ZSTD_safecopyLiterals(seqStorePtr->lit, literals, litEnd, litLimit_w);

	mov	r9, r13
	mov	rdx, r14
	call	ZSTD_safecopyLiterals
	lea	rdx, QWORD PTR [rdi-3]
$LN223@ZSTD_compr:

; 467  :     }
; 468  :     seqStorePtr->lit += litLength;

	add	QWORD PTR [rsi+24], rbx

; 469  : 
; 470  :     /* literal Length */
; 471  :     if (litLength>0xFFFF) {

	mov	rcx, QWORD PTR [rsi+8]
	cmp	rbx, 65535				; 0000ffffH
	jbe	SHORT $LN225@ZSTD_compr

; 472  :         assert(seqStorePtr->longLengthID == 0); /* there can only be a single long length */
; 473  :         seqStorePtr->longLengthID = 1;
; 474  :         seqStorePtr->longLengthPos = (U32)(seqStorePtr->sequences - seqStorePtr->sequencesStart);

	mov	rax, rcx
	mov	DWORD PTR [rsi+72], 1
	sub	rax, QWORD PTR [rsi]
	sar	rax, 3
	mov	DWORD PTR [rsi+76], eax
$LN225@ZSTD_compr:

; 475  :     }
; 476  :     seqStorePtr->sequences[0].litLength = (U16)litLength;

	mov	WORD PTR [rcx+4], bx

; 477  : 
; 478  :     /* match offset */
; 479  :     seqStorePtr->sequences[0].offset = offCode + 1;

	lea	ecx, DWORD PTR [rbp+1]
	mov	rax, QWORD PTR [rsi+8]
	mov	DWORD PTR [rax], ecx
	mov	rcx, QWORD PTR [rsi+8]

; 480  : 
; 481  :     /* match Length */
; 482  :     if (mlBase>0xFFFF) {

	cmp	rdx, 65535				; 0000ffffH
	jbe	SHORT $LN368@ZSTD_compr

; 485  :         seqStorePtr->longLengthPos = (U32)(seqStorePtr->sequences - seqStorePtr->sequencesStart);

	mov	rax, rcx
	mov	DWORD PTR [rsi+72], 2
	sub	rax, QWORD PTR [rsi]
	sar	rax, 3
	mov	DWORD PTR [rsi+76], eax
$LN368@ZSTD_compr:
; File E:\dev\pyzstd\lib\compress\zstd_lazy.c

; 852  :                  && (MEM_read32(ip) == MEM_read32(ip - offset_2)) ) {

	xor	r10d, r10d
; File E:\dev\pyzstd\lib\compress\zstd_compress_internal.h

; 487  :     seqStorePtr->sequences[0].matchLength = (U16)mlBase;

	mov	WORD PTR [rcx+6], dx

; 489  :     seqStorePtr->sequences++;

	add	QWORD PTR [rsi+8], 8
; File E:\dev\pyzstd\lib\compress\zstd_lazy.c

; 824  :             anchor = ip = start + matchLength;

	lea	r14, QWORD PTR [r15+rdi]
	cmp	r14, QWORD PTR ilimit$1$[rsp]

; 852  :                  && (MEM_read32(ip) == MEM_read32(ip - offset_2)) ) {

	mov	ecx, r10d
	mov	eax, r10d
	mov	QWORD PTR src$[rsp], r14
	setbe	cl
	mov	rbx, r14
	test	r12d, r12d
	setne	al
	test	ecx, eax
	je	$LN379@ZSTD_compr
	mov	r15, QWORD PTR iend$1$[rsp]
; File E:\dev\pyzstd\lib\compress\zstd_compress_internal.h

; 485  :         seqStorePtr->longLengthPos = (U32)(seqStorePtr->sequences - seqStorePtr->sequencesStart);

	mov	QWORD PTR src$[rsp], r14
	npad	4
$LL14@ZSTD_compr:
; File E:\dev\pyzstd\lib\compress\zstd_lazy.c

; 852  :                  && (MEM_read32(ip) == MEM_read32(ip - offset_2)) ) {

	mov	eax, r12d
	mov	rdx, rbx
	sub	rdx, rax
	mov	ebp, r12d
	mov	eax, DWORD PTR [rdx]
	cmp	DWORD PTR [rbx], eax
	jne	$LN378@ZSTD_compr

; 853  :                 /* store sequence */
; 854  :                 matchLength = ZSTD_count(ip+4, ip+4-offset_2, iend) + 4;

	add	rdx, 4
	lea	rcx, QWORD PTR [rbx+4]
	mov	r8, r15
	call	ZSTD_count

; 855  :                 offset = offset_2; offset_2 = offset_1; offset_1 = (U32)offset; /* swap repcodes */

	mov	r12d, DWORD PTR offset_1$1$[rsp]
; File E:\dev\pyzstd\lib\compress\zstd_compress_internal.h

; 442  :     BYTE const* const litEnd = literals + litLength;

	mov	rcx, QWORD PTR [rsi+24]
; File E:\dev\pyzstd\lib\compress\zstd_lazy.c

; 855  :                 offset = offset_2; offset_2 = offset_1; offset_1 = (U32)offset; /* swap repcodes */

	mov	DWORD PTR offset_1$1$[rsp], ebp
	lea	rdi, QWORD PTR [rax+4]

; 856  :                 ZSTD_storeSeq(seqStore, 0, anchor, iend, 0, matchLength-MINMATCH);

	lea	rbp, QWORD PTR [rdi-3]
; File E:\dev\pyzstd\lib\compress\zstd_compress_internal.h

; 456  :     if (litEnd <= litLimit_w) {

	cmp	r14, r13
	ja	SHORT $LN310@ZSTD_compr
; File E:\dev\pyzstd\lib\common\zstd_internal.h

; 243  :     memcpy(dst, src, 16);

	movups	xmm0, XMMWORD PTR [r14]
	movups	XMMWORD PTR [rcx], xmm0
; File E:\dev\pyzstd\lib\compress\zstd_compress_internal.h

; 465  :     } else {

	jmp	SHORT $LN311@ZSTD_compr
$LN310@ZSTD_compr:

; 466  :         ZSTD_safecopyLiterals(seqStorePtr->lit, literals, litEnd, litLimit_w);

	mov	r9, r13
	mov	r8, r14
	mov	rdx, r14
	call	ZSTD_safecopyLiterals
$LN311@ZSTD_compr:

; 475  :     }
; 476  :     seqStorePtr->sequences[0].litLength = (U16)litLength;

	mov	rax, QWORD PTR [rsi+8]
	xor	r10d, r10d
	mov	WORD PTR [rax+4], r10w

; 477  : 
; 478  :     /* match offset */
; 479  :     seqStorePtr->sequences[0].offset = offCode + 1;

	mov	rax, QWORD PTR [rsi+8]
	mov	DWORD PTR [rax], 1
	mov	rcx, QWORD PTR [rsi+8]

; 480  : 
; 481  :     /* match Length */
; 482  :     if (mlBase>0xFFFF) {

	cmp	rbp, 65535				; 0000ffffH
	jbe	SHORT $LN369@ZSTD_compr

; 485  :         seqStorePtr->longLengthPos = (U32)(seqStorePtr->sequences - seqStorePtr->sequencesStart);

	mov	rax, rcx
	mov	DWORD PTR [rsi+72], 2
	sub	rax, QWORD PTR [rsi]
	sar	rax, 3
	mov	DWORD PTR [rsi+76], eax
$LN369@ZSTD_compr:

; 487  :     seqStorePtr->sequences[0].matchLength = (U16)mlBase;

	mov	WORD PTR [rcx+6], bp
; File E:\dev\pyzstd\lib\compress\zstd_lazy.c

; 857  :                 ip += matchLength;

	lea	r14, QWORD PTR [rdi+rbx]
; File E:\dev\pyzstd\lib\compress\zstd_compress_internal.h

; 489  :     seqStorePtr->sequences++;

	add	QWORD PTR [rsi+8], 8
; File E:\dev\pyzstd\lib\compress\zstd_lazy.c

; 858  :                 anchor = ip;

	lea	rax, QWORD PTR [r15-8]
	cmp	r14, rax
	mov	ecx, r10d
	mov	eax, r10d
	mov	rbx, r14
	setbe	cl
	test	r12d, r12d
	setne	al
	test	ecx, eax
	jne	$LL14@ZSTD_compr
$LN378@ZSTD_compr:
	mov	DWORD PTR offset_2$1$[rsp], r12d

; 852  :                  && (MEM_read32(ip) == MEM_read32(ip - offset_2)) ) {

	mov	r13, r15
	mov	QWORD PTR src$[rsp], r14
	jmp	SHORT $LN15@ZSTD_compr
$LN379@ZSTD_compr:
	mov	r13, QWORD PTR iend$1$[rsp]
$LN15@ZSTD_compr:

; 690  :     while (ip < ilimit) {

	mov	r9d, DWORD PTR offset_1$1$[rsp]
	lea	rax, QWORD PTR [r13-8]
	cmp	rbx, rax
	jb	$LL4@ZSTD_compr
	mov	eax, DWORD PTR tv2307[rsp]
$LN5@ZSTD_compr:

; 859  :                 continue;   /* faster when present ... (?) */
; 860  :     }   }   }
; 861  : 
; 862  :     /* Save reps for next block */
; 863  :     rep[0] = offset_1 ? offset_1 : savedOffset;

	mov	rdx, QWORD PTR rep$[rsp]
	test	r9d, r9d
	mov	ecx, eax
	cmovne	ecx, r9d

; 864  :     rep[1] = offset_2 ? offset_2 : savedOffset;

	test	r12d, r12d
	cmovne	eax, r12d
	mov	DWORD PTR [rdx], ecx

; 865  : 
; 866  :     /* Return the last literals size */
; 867  :     return (size_t)(iend - anchor);

	sub	r13, r14
	mov	DWORD PTR [rdx+4], eax

; 889  :     return ZSTD_compressBlock_lazy_generic(ms, seqStore, rep, src, srcSize, search_hashChain, 1, ZSTD_noDict);

	mov	rax, r13

; 890  : }

	add	rsp, 104				; 00000068H
	pop	r15
	pop	r14
	pop	r13
	pop	r12
	pop	rdi
	pop	rsi
	pop	rbp
	pop	rbx
	ret	0
ZSTD_compressBlock_lazy ENDP
_TEXT	ENDS
; Function compile flags: /Ogtpy
; File E:\dev\pyzstd\lib\compress\zstd_lazy.c
; File E:\dev\pyzstd\lib\compress\zstd_compress_internal.h
; File E:\dev\pyzstd\lib\compress\zstd_lazy.c
; File E:\dev\pyzstd\lib\compress\zstd_compress_internal.h
; File E:\dev\pyzstd\lib\compress\zstd_lazy.c
; File E:\dev\pyzstd\lib\compress\zstd_compress_internal.h
; File E:\dev\pyzstd\lib\compress\zstd_lazy.c
; File E:\dev\pyzstd\lib\compress\zstd_compress_internal.h
; File E:\dev\pyzstd\lib\compress\zstd_lazy.c
; File E:\dev\pyzstd\lib\compress\zstd_compress_internal.h
; File E:\dev\pyzstd\lib\compress\zstd_lazy.c
; File E:\dev\pyzstd\lib\compress\zstd_compress_internal.h
; File E:\dev\pyzstd\lib\common\zstd_internal.h
; File E:\dev\pyzstd\lib\compress\zstd_compress_internal.h
; File E:\dev\pyzstd\lib\common\zstd_internal.h
; File E:\dev\pyzstd\lib\compress\zstd_compress_internal.h
; File E:\dev\pyzstd\lib\compress\zstd_lazy.c
; File E:\dev\pyzstd\lib\compress\zstd_compress_internal.h
; File E:\dev\pyzstd\lib\compress\zstd_lazy.c
; File E:\dev\pyzstd\lib\compress\zstd_compress_internal.h
; File E:\dev\pyzstd\lib\compress\zstd_lazy.c
; File E:\dev\pyzstd\lib\compress\zstd_compress_internal.h
; File E:\dev\pyzstd\lib\compress\zstd_lazy.c
; File E:\dev\pyzstd\lib\compress\zstd_compress_internal.h
; File E:\dev\pyzstd\lib\compress\zstd_lazy.c
; File E:\dev\pyzstd\lib\compress\zstd_compress_internal.h
; File E:\dev\pyzstd\lib\compress\zstd_lazy.c
; File E:\dev\pyzstd\lib\compress\zstd_compress_internal.h
; File E:\dev\pyzstd\lib\common\zstd_internal.h
; File E:\dev\pyzstd\lib\compress\zstd_compress_internal.h
; File E:\dev\pyzstd\lib\compress\zstd_lazy.c
; File E:\dev\pyzstd\lib\compress\zstd_compress_internal.h
; File E:\dev\pyzstd\lib\compress\zstd_lazy.c
_TEXT	SEGMENT
iend$1$ = 32
offset_2$1$ = 40
dictIndexDelta$1$ = 44
prefixLowest$1$ = 48
base$1$ = 56
dictBase$1$ = 64
dictEnd$1$ = 72
offsetFound$1 = 80
dictLowest$1$ = 88
ilimit$1$ = 96
ms$ = 176
seqStore$ = 184
rep$ = 192
prefixLowestIndex$1$ = 200
src$ = 200
offset_1$1$ = 208
srcSize$ = 208
ZSTD_compressBlock_greedy_dictMatchState PROC

; 923  : {

$LN377:
	mov	QWORD PTR [rsp+16], rbx
	mov	QWORD PTR [rsp+24], r8
	mov	QWORD PTR [rsp+8], rcx
	push	rbp
	push	rsi
	push	rdi
	push	r12
	push	r13
	push	r14
	push	r15
	sub	rsp, 112				; 00000070H

; 635  :     const BYTE* const iend = istart + srcSize;

	mov	r10, QWORD PTR srcSize$[rsp]

; 923  : {

	mov	rbp, r8

; 635  :     const BYTE* const iend = istart + srcSize;

	add	r10, r9

; 923  : {

	mov	r8, rcx
	mov	r15, r9

; 635  :     const BYTE* const iend = istart + srcSize;

	mov	QWORD PTR iend$1$[rsp], r10

; 923  : {

	mov	rbx, rdx

; 649  :     U32 offset_1 = rep[0], offset_2 = rep[1], savedOffset=0;

	mov	r13d, DWORD PTR [rbp]

; 650  : 
; 651  :     const ZSTD_matchState_t* const dms = ms->dictMatchState;

	mov	rax, QWORD PTR [r8+176]
	lea	rcx, QWORD PTR [r10-8]
	mov	rsi, QWORD PTR [r8+8]
	mov	edx, DWORD PTR [r8+24]
	mov	r12d, DWORD PTR [rbp+4]

; 652  :     const U32 dictLowestIndex      = dictMode == ZSTD_dictMatchState ?
; 653  :                                      dms->window.dictLimit : 0;
; 654  :     const BYTE* const dictBase     = dictMode == ZSTD_dictMatchState ?

	mov	r11, QWORD PTR [rax+8]

; 655  :                                      dms->window.base : NULL;
; 656  :     const BYTE* const dictLowest   = dictMode == ZSTD_dictMatchState ?

	mov	edi, DWORD PTR [rax+24]

; 657  :                                      dictBase + dictLowestIndex : NULL;
; 658  :     const BYTE* const dictEnd      = dictMode == ZSTD_dictMatchState ?
; 659  :                                      dms->window.nextSrc : NULL;
; 660  :     const U32 dictIndexDelta       = dictMode == ZSTD_dictMatchState ?

	mov	r8d, r11d
	mov	rax, QWORD PTR [rax]
	lea	r9, QWORD PTR [rsi+rdx]
	sub	r8d, eax
	mov	QWORD PTR dictEnd$1$[rsp], rax
	add	rdi, r11
	mov	QWORD PTR prefixLowest$1$[rsp], r9
	add	r8d, edx
	mov	QWORD PTR dictLowest$1$[rsp], rdi

; 661  :                                      prefixLowestIndex - (U32)(dictEnd - dictBase) :
; 662  :                                      0;
; 663  :     const U32 dictAndPrefixLength = (U32)((ip - prefixLowest) + (dictEnd - dictLowest));
; 664  : 
; 665  :     DEBUGLOG(5, "ZSTD_compressBlock_lazy_generic (dictMode=%u)", (U32)dictMode);
; 666  : 
; 667  :     /* init */
; 668  :     ip += (dictAndPrefixLength == 0);

	mov	eax, r15d
	mov	QWORD PTR ilimit$1$[rsp], rcx
	sub	eax, edi
	mov	QWORD PTR base$1$[rsp], rsi
	sub	eax, r9d
	mov	DWORD PTR prefixLowestIndex$1$[rsp], edx
	mov	r9, QWORD PTR dictEnd$1$[rsp]
	mov	edi, 0
	add	eax, r9d
	mov	DWORD PTR offset_1$1$[rsp], r13d
	mov	eax, edi
	mov	DWORD PTR offset_2$1$[rsp], r12d
	sete	al
	mov	QWORD PTR dictBase$1$[rsp], r11
	mov	DWORD PTR dictIndexDelta$1$[rsp], r8d
	lea	r14, QWORD PTR [rax+r15]
	cmp	r14, rcx

; 669  :     if (dictMode == ZSTD_noDict) {
; 670  :         U32 const current = (U32)(ip - base);
; 671  :         U32 const windowLow = ZSTD_getLowestPrefixIndex(ms, current, ms->cParams.windowLog);
; 672  :         U32 const maxRep = current - windowLow;
; 673  :         if (offset_2 > maxRep) savedOffset = offset_2, offset_2 = 0;
; 674  :         if (offset_1 > maxRep) savedOffset = offset_1, offset_1 = 0;
; 675  :     }
; 676  :     if (dictMode == ZSTD_dictMatchState) {
; 677  :         /* dictMatchState repCode checks don't currently handle repCode == 0
; 678  :          * disabling. */
; 679  :         assert(offset_1 <= dictAndPrefixLength);
; 680  :         assert(offset_2 <= dictAndPrefixLength);
; 681  :     }
; 682  : 
; 683  :     /* Match Loop */
; 684  : #if defined(__GNUC__) && defined(__x86_64__)
; 685  :     /* I've measured random a 5% speed loss on levels 5 & 6 (greedy) when the
; 686  :      * code alignment is perturbed. To fix the instability align the loop on 32-bytes.
; 687  :      */
; 688  :     __asm__(".p2align 5");
; 689  : #endif
; 690  :     while (ip < ilimit) {

	jae	$LN5@ZSTD_compr
	npad	3
$LL4@ZSTD_compr:

; 691  :         size_t matchLength=0;
; 692  :         size_t offset=0;
; 693  :         const BYTE* start=ip+1;
; 694  : 
; 695  :         /* check repCode */
; 696  :         if (dictMode == ZSTD_dictMatchState) {
; 697  :             const U32 repIndex = (U32)(ip - base) + 1 - offset_1;

	mov	ecx, r14d
	lea	rbp, QWORD PTR [r14+1]
	sub	ecx, esi
	mov	r13, rdi
	sub	ecx, DWORD PTR offset_1$1$[rsp]
	inc	ecx

; 698  :             const BYTE* repMatch = (dictMode == ZSTD_dictMatchState

	cmp	ecx, edx
	jae	SHORT $LN60@ZSTD_compr
	mov	edi, ecx
	sub	edi, r8d
	add	rdi, r11
	jmp	SHORT $LN61@ZSTD_compr
$LN60@ZSTD_compr:
	mov	edi, ecx
	add	rdi, rsi
$LN61@ZSTD_compr:

; 699  :                                 && repIndex < prefixLowestIndex) ?
; 700  :                                    dictBase + (repIndex - dictIndexDelta) :
; 701  :                                    base + repIndex;
; 702  :             if (((U32)((prefixLowestIndex-1) - repIndex) >= 3 /* intentional underflow */)
; 703  :                 && (MEM_read32(repMatch) == MEM_read32(ip+1)) ) {

	mov	eax, edx
	sub	eax, ecx
	dec	eax
	cmp	eax, 3
	jb	SHORT $LN22@ZSTD_compr
	mov	eax, DWORD PTR [rbp]
	cmp	DWORD PTR [rdi], eax
	jne	SHORT $LN22@ZSTD_compr

; 704  :                 const BYTE* repMatchEnd = repIndex < prefixLowestIndex ? dictEnd : iend;

	cmp	ecx, edx

; 705  :                 matchLength = ZSTD_count_2segments(ip+1+4, repMatch+4, iend, repMatchEnd, prefixLowest) + 4;

	lea	r12, QWORD PTR [r14+5]
	mov	rsi, r10
; File E:\dev\pyzstd\lib\compress\zstd_compress_internal.h

; 590  :     const BYTE* const vEnd = MIN( ip + (mEnd - match), iEnd);

	mov	r8, r10
; File E:\dev\pyzstd\lib\compress\zstd_lazy.c

; 704  :                 const BYTE* repMatchEnd = repIndex < prefixLowestIndex ? dictEnd : iend;

	cmovb	rsi, r9
; File E:\dev\pyzstd\lib\compress\zstd_compress_internal.h

; 590  :     const BYTE* const vEnd = MIN( ip + (mEnd - match), iEnd);

	mov	rcx, r12
; File E:\dev\pyzstd\lib\compress\zstd_lazy.c

; 705  :                 matchLength = ZSTD_count_2segments(ip+1+4, repMatch+4, iend, repMatchEnd, prefixLowest) + 4;

	add	rdi, 4
; File E:\dev\pyzstd\lib\compress\zstd_compress_internal.h

; 590  :     const BYTE* const vEnd = MIN( ip + (mEnd - match), iEnd);

	sub	rcx, rdi

; 591  :     size_t const matchLength = ZSTD_count(ip, match, vEnd);

	mov	rdx, rdi
	add	rcx, rsi
	cmp	rcx, r10
	cmovb	r8, rcx
	mov	rcx, r12
	call	ZSTD_count
	mov	r14, rax

; 592  :     if (match + matchLength != mEnd) return matchLength;

	add	rax, rdi
	cmp	rax, rsi
	jne	SHORT $LN83@ZSTD_compr

; 593  :     DEBUGLOG(7, "ZSTD_count_2segments: found a 2-parts match (current length==%zu)", matchLength);
; 594  :     DEBUGLOG(7, "distance from match beginning to end dictionary = %zi", mEnd - match);
; 595  :     DEBUGLOG(7, "distance from current pos to end buffer = %zi", iEnd - ip);
; 596  :     DEBUGLOG(7, "next byte : ip==%02X, istart==%02X", ip[matchLength], *iStart);
; 597  :     DEBUGLOG(7, "final match length = %zu", matchLength + ZSTD_count(ip+matchLength, iStart, iEnd));
; 598  :     return matchLength + ZSTD_count(ip+matchLength, iStart, iEnd);

	mov	r8, QWORD PTR iend$1$[rsp]
	lea	rcx, QWORD PTR [r14+r12]
	mov	rdx, QWORD PTR prefixLowest$1$[rsp]
	call	ZSTD_count
	add	r14, rax
$LN83@ZSTD_compr:
; File E:\dev\pyzstd\lib\compress\zstd_lazy.c

; 706  :                 if (depth==0) goto _storeSequence;

	mov	r12d, DWORD PTR offset_2$1$[rsp]
	lea	rdi, QWORD PTR [r14+4]
	jmp	$_storeSequence$378
$LN22@ZSTD_compr:

; 707  :             }
; 708  :         }
; 709  :         if ( dictMode == ZSTD_noDict
; 710  :           && ((offset_1 > 0) & (MEM_read32(ip+1-offset_1) == MEM_read32(ip+1)))) {
; 711  :             matchLength = ZSTD_count(ip+1+4, ip+1+4-offset_1, iend) + 4;
; 712  :             if (depth==0) goto _storeSequence;
; 713  :         }
; 714  : 
; 715  :         /* first search (depth 0) */
; 716  :         {   size_t offsetFound = 999999999;
; 717  :             size_t const ml2 = searchMax(ms, ip, iend, &offsetFound);

	mov	rcx, QWORD PTR ms$[rsp]
	lea	r9, QWORD PTR offsetFound$1[rsp]
	mov	r8, r10
	mov	QWORD PTR offsetFound$1[rsp], 999999999	; 3b9ac9ffH
	mov	rdx, r14
	call	ZSTD_HcFindBestMatch_dictMatchState_selectMLS
	mov	rdi, rax

; 718  :             if (ml2 > matchLength)

	test	rax, rax
	je	$LN370@ZSTD_compr

; 719  :                 matchLength = ml2, start = ip, offset=offsetFound;

	mov	r13, QWORD PTR offsetFound$1[rsp]
	mov	rbp, r14

; 720  :         }
; 721  : 
; 722  :         if (matchLength < 4) {

	cmp	rax, 4
	jb	$LN370@ZSTD_compr

; 724  :             continue;
; 725  :         }
; 726  : 
; 727  :         /* let's try to find a better solution */
; 728  :         if (depth>=1)
; 729  :         while (ip<ilimit) {
; 730  :             ip ++;
; 731  :             if ( (dictMode == ZSTD_noDict)
; 732  :               && (offset) && ((offset_1>0) & (MEM_read32(ip) == MEM_read32(ip - offset_1)))) {
; 733  :                 size_t const mlRep = ZSTD_count(ip+4, ip+4-offset_1, iend) + 4;
; 734  :                 int const gain2 = (int)(mlRep * 3);
; 735  :                 int const gain1 = (int)(matchLength*3 - ZSTD_highbit32((U32)offset+1) + 1);
; 736  :                 if ((mlRep >= 4) && (gain2 > gain1))
; 737  :                     matchLength = mlRep, offset = 0, start = ip;
; 738  :             }
; 739  :             if (dictMode == ZSTD_dictMatchState) {
; 740  :                 const U32 repIndex = (U32)(ip - base) - offset_1;
; 741  :                 const BYTE* repMatch = repIndex < prefixLowestIndex ?
; 742  :                                dictBase + (repIndex - dictIndexDelta) :
; 743  :                                base + repIndex;
; 744  :                 if (((U32)((prefixLowestIndex-1) - repIndex) >= 3 /* intentional underflow */)
; 745  :                     && (MEM_read32(repMatch) == MEM_read32(ip)) ) {
; 746  :                     const BYTE* repMatchEnd = repIndex < prefixLowestIndex ? dictEnd : iend;
; 747  :                     size_t const mlRep = ZSTD_count_2segments(ip+4, repMatch+4, iend, repMatchEnd, prefixLowest) + 4;
; 748  :                     int const gain2 = (int)(mlRep * 3);
; 749  :                     int const gain1 = (int)(matchLength*3 - ZSTD_highbit32((U32)offset+1) + 1);
; 750  :                     if ((mlRep >= 4) && (gain2 > gain1))
; 751  :                         matchLength = mlRep, offset = 0, start = ip;
; 752  :                 }
; 753  :             }
; 754  :             {   size_t offset2=999999999;
; 755  :                 size_t const ml2 = searchMax(ms, ip, iend, &offset2);
; 756  :                 int const gain2 = (int)(ml2*4 - ZSTD_highbit32((U32)offset2+1));   /* raw approx */
; 757  :                 int const gain1 = (int)(matchLength*4 - ZSTD_highbit32((U32)offset+1) + 4);
; 758  :                 if ((ml2 >= 4) && (gain2 > gain1)) {
; 759  :                     matchLength = ml2, offset = offset2, start = ip;
; 760  :                     continue;   /* search a better one */
; 761  :             }   }
; 762  : 
; 763  :             /* let's find an even better one */
; 764  :             if ((depth==2) && (ip<ilimit)) {
; 765  :                 ip ++;
; 766  :                 if ( (dictMode == ZSTD_noDict)
; 767  :                   && (offset) && ((offset_1>0) & (MEM_read32(ip) == MEM_read32(ip - offset_1)))) {
; 768  :                     size_t const mlRep = ZSTD_count(ip+4, ip+4-offset_1, iend) + 4;
; 769  :                     int const gain2 = (int)(mlRep * 4);
; 770  :                     int const gain1 = (int)(matchLength*4 - ZSTD_highbit32((U32)offset+1) + 1);
; 771  :                     if ((mlRep >= 4) && (gain2 > gain1))
; 772  :                         matchLength = mlRep, offset = 0, start = ip;
; 773  :                 }
; 774  :                 if (dictMode == ZSTD_dictMatchState) {
; 775  :                     const U32 repIndex = (U32)(ip - base) - offset_1;
; 776  :                     const BYTE* repMatch = repIndex < prefixLowestIndex ?
; 777  :                                    dictBase + (repIndex - dictIndexDelta) :
; 778  :                                    base + repIndex;
; 779  :                     if (((U32)((prefixLowestIndex-1) - repIndex) >= 3 /* intentional underflow */)
; 780  :                         && (MEM_read32(repMatch) == MEM_read32(ip)) ) {
; 781  :                         const BYTE* repMatchEnd = repIndex < prefixLowestIndex ? dictEnd : iend;
; 782  :                         size_t const mlRep = ZSTD_count_2segments(ip+4, repMatch+4, iend, repMatchEnd, prefixLowest) + 4;
; 783  :                         int const gain2 = (int)(mlRep * 4);
; 784  :                         int const gain1 = (int)(matchLength*4 - ZSTD_highbit32((U32)offset+1) + 1);
; 785  :                         if ((mlRep >= 4) && (gain2 > gain1))
; 786  :                             matchLength = mlRep, offset = 0, start = ip;
; 787  :                     }
; 788  :                 }
; 789  :                 {   size_t offset2=999999999;
; 790  :                     size_t const ml2 = searchMax(ms, ip, iend, &offset2);
; 791  :                     int const gain2 = (int)(ml2*4 - ZSTD_highbit32((U32)offset2+1));   /* raw approx */
; 792  :                     int const gain1 = (int)(matchLength*4 - ZSTD_highbit32((U32)offset+1) + 7);
; 793  :                     if ((ml2 >= 4) && (gain2 > gain1)) {
; 794  :                         matchLength = ml2, offset = offset2, start = ip;
; 795  :                         continue;
; 796  :             }   }   }
; 797  :             break;  /* nothing found : store previous solution */
; 798  :         }
; 799  : 
; 800  :         /* NOTE:
; 801  :          * start[-offset+ZSTD_REP_MOVE-1] is undefined behavior.
; 802  :          * (-offset+ZSTD_REP_MOVE-1) is unsigned, and is added to start, which
; 803  :          * overflows the pointer, which is undefined behavior.
; 804  :          */
; 805  :         /* catch up */
; 806  :         if (offset) {

	test	r13, r13
	je	SHORT $_storeSequence$378

; 807  :             if (dictMode == ZSTD_noDict) {
; 808  :                 while ( ((start > anchor) & (start - (offset-ZSTD_REP_MOVE) > prefixLowest))
; 809  :                      && (start[-1] == (start-(offset-ZSTD_REP_MOVE))[-1]) )  /* only search for offset within prefix */
; 810  :                     { start--; matchLength++; }
; 811  :             }
; 812  :             if (dictMode == ZSTD_dictMatchState) {
; 813  :                 U32 const matchIndex = (U32)((start-base) - (offset - ZSTD_REP_MOVE));
; 814  :                 const BYTE* match = (matchIndex < prefixLowestIndex) ? dictBase + matchIndex - dictIndexDelta : base + matchIndex;

	mov	r9d, DWORD PTR prefixLowestIndex$1$[rsp]
	mov	edx, r14d
	sub	edx, esi
	sub	edx, r13d
	add	edx, 2
	mov	r8d, edx
	cmp	edx, r9d
	jae	SHORT $LN66@ZSTD_compr
	mov	eax, DWORD PTR dictIndexDelta$1$[rsp]
	mov	rcx, QWORD PTR dictBase$1$[rsp]
	sub	rcx, rax
	add	rcx, r8
	jmp	SHORT $LN67@ZSTD_compr
$LN66@ZSTD_compr:
	lea	rcx, QWORD PTR [rsi+rdx]
$LN67@ZSTD_compr:

; 815  :                 const BYTE* const mStart = (matchIndex < prefixLowestIndex) ? dictLowest : prefixLowest;

	mov	r8, QWORD PTR prefixLowest$1$[rsp]
	cmp	edx, r9d
	cmovb	r8, QWORD PTR dictLowest$1$[rsp]
	cmp	r14, r15

; 816  :                 while ((start>anchor) && (match>mStart) && (start[-1] == match[-1])) { start--; match--; matchLength++; }  /* catch up */

	jbe	SHORT $LN371@ZSTD_compr
	npad	1
$LL10@ZSTD_compr:
	cmp	rcx, r8
	jbe	SHORT $LN371@ZSTD_compr
	movzx	eax, BYTE PTR [rcx-1]
	lea	rdx, QWORD PTR [rbp-1]
	cmp	BYTE PTR [rdx], al
	jne	SHORT $LN371@ZSTD_compr
	dec	rcx
	inc	rdi
	mov	rbp, rdx
	cmp	rdx, r15
	ja	SHORT $LL10@ZSTD_compr
$LN371@ZSTD_compr:

; 817  :             }
; 818  :             offset_2 = offset_1; offset_1 = (U32)(offset - ZSTD_REP_MOVE);

	mov	r12d, DWORD PTR offset_1$1$[rsp]
	lea	eax, DWORD PTR [r13-2]
	mov	DWORD PTR offset_1$1$[rsp], eax
	mov	DWORD PTR offset_2$1$[rsp], r12d
$_storeSequence$378:
; File E:\dev\pyzstd\lib\compress\zstd_compress_internal.h

; 441  :     BYTE const* const litLimit_w = litLimit - WILDCOPY_OVERLENGTH;

	mov	r9, QWORD PTR iend$1$[rsp]
; File E:\dev\pyzstd\lib\compress\zstd_lazy.c

; 823  :             ZSTD_storeSeq(seqStore, litLength, anchor, iend, (U32)offset, matchLength-MINMATCH);

	lea	r14, QWORD PTR [rdi-3]
; File E:\dev\pyzstd\lib\compress\zstd_compress_internal.h

; 442  :     BYTE const* const litEnd = literals + litLength;

	mov	rcx, QWORD PTR [rbx+24]
; File E:\dev\pyzstd\lib\compress\zstd_lazy.c

; 822  :         {   size_t const litLength = start - anchor;

	mov	rsi, rbp
	sub	rsi, r15
; File E:\dev\pyzstd\lib\compress\zstd_compress_internal.h

; 441  :     BYTE const* const litLimit_w = litLimit - WILDCOPY_OVERLENGTH;

	lea	rdx, QWORD PTR [r9-32]

; 442  :     BYTE const* const litEnd = literals + litLength;

	lea	r8, QWORD PTR [rsi+r15]

; 456  :     if (litEnd <= litLimit_w) {

	cmp	r8, rdx
	ja	SHORT $LN222@ZSTD_compr
; File E:\dev\pyzstd\lib\common\zstd_internal.h

; 243  :     memcpy(dst, src, 16);

	movups	xmm0, XMMWORD PTR [r15]
	movups	XMMWORD PTR [rcx], xmm0
; File E:\dev\pyzstd\lib\compress\zstd_compress_internal.h

; 462  :         if (litLength > 16) {

	cmp	rsi, 16
	jbe	SHORT $LN223@ZSTD_compr

; 463  :             ZSTD_wildcopy(seqStorePtr->lit+16, literals+16, (ptrdiff_t)litLength-16, ZSTD_no_overlap);

	mov	rax, QWORD PTR [rbx+24]
	add	r15, 16
	add	rax, 16
; File E:\dev\pyzstd\lib\common\zstd_internal.h

; 270  :     BYTE* const oend = op + length;

	lea	rcx, QWORD PTR [rax-16]
	add	rcx, rsi
	npad	9
$LL236@ZSTD_compr:

; 243  :     memcpy(dst, src, 16);

	movups	xmm0, XMMWORD PTR [r15]

; 289  :             COPY16(op, ip);

	lea	r15, QWORD PTR [r15+16]

; 243  :     memcpy(dst, src, 16);

	movups	XMMWORD PTR [rax], xmm0

; 289  :             COPY16(op, ip);

	add	rax, 16

; 290  :         }
; 291  :         while (op < oend);

	cmp	rax, rcx
	jb	SHORT $LL236@ZSTD_compr
; File E:\dev\pyzstd\lib\compress\zstd_compress_internal.h

; 465  :     } else {

	jmp	SHORT $LN223@ZSTD_compr
$LN222@ZSTD_compr:

; 466  :         ZSTD_safecopyLiterals(seqStorePtr->lit, literals, litEnd, litLimit_w);

	mov	r9, rdx
	mov	rdx, r15
	call	ZSTD_safecopyLiterals
	mov	r9, QWORD PTR iend$1$[rsp]
$LN223@ZSTD_compr:

; 467  :     }
; 468  :     seqStorePtr->lit += litLength;

	add	QWORD PTR [rbx+24], rsi

; 469  : 
; 470  :     /* literal Length */
; 471  :     if (litLength>0xFFFF) {

	mov	rcx, QWORD PTR [rbx+8]
	cmp	rsi, 65535				; 0000ffffH
	jbe	SHORT $LN225@ZSTD_compr

; 472  :         assert(seqStorePtr->longLengthID == 0); /* there can only be a single long length */
; 473  :         seqStorePtr->longLengthID = 1;
; 474  :         seqStorePtr->longLengthPos = (U32)(seqStorePtr->sequences - seqStorePtr->sequencesStart);

	mov	rax, rcx
	mov	DWORD PTR [rbx+72], 1
	sub	rax, QWORD PTR [rbx]
	sar	rax, 3
	mov	DWORD PTR [rbx+76], eax
$LN225@ZSTD_compr:

; 475  :     }
; 476  :     seqStorePtr->sequences[0].litLength = (U16)litLength;

	mov	WORD PTR [rcx+4], si

; 477  : 
; 478  :     /* match offset */
; 479  :     seqStorePtr->sequences[0].offset = offCode + 1;

	lea	ecx, DWORD PTR [r13+1]
	mov	rax, QWORD PTR [rbx+8]
	mov	DWORD PTR [rax], ecx
	mov	rcx, QWORD PTR [rbx+8]

; 480  : 
; 481  :     /* match Length */
; 482  :     if (mlBase>0xFFFF) {

	cmp	r14, 65535				; 0000ffffH
	jbe	SHORT $LN364@ZSTD_compr

; 483  :         assert(seqStorePtr->longLengthID == 0); /* there can only be a single long length */
; 484  :         seqStorePtr->longLengthID = 2;
; 485  :         seqStorePtr->longLengthPos = (U32)(seqStorePtr->sequences - seqStorePtr->sequencesStart);

	mov	rax, rcx
	mov	DWORD PTR [rbx+72], 2
	sub	rax, QWORD PTR [rbx]
	sar	rax, 3
	mov	DWORD PTR [rbx+76], eax
$LN364@ZSTD_compr:

; 487  :     seqStorePtr->sequences[0].matchLength = (U16)mlBase;

	mov	WORD PTR [rcx+6], r14w
; File E:\dev\pyzstd\lib\compress\zstd_lazy.c

; 824  :             anchor = ip = start + matchLength;

	lea	r15, QWORD PTR [rdi+rbp]
; File E:\dev\pyzstd\lib\compress\zstd_compress_internal.h

; 489  :     seqStorePtr->sequences++;

	add	QWORD PTR [rbx+8], 8
; File E:\dev\pyzstd\lib\compress\zstd_lazy.c

; 824  :             anchor = ip = start + matchLength;

	lea	rdx, QWORD PTR [r9-8]
	mov	r14, r15
	cmp	r15, rdx

; 829  :             while (ip <= ilimit) {

	ja	$LN372@ZSTD_compr
	npad	8
$LL12@ZSTD_compr:

; 830  :                 U32 const current2 = (U32)(ip-base);
; 831  :                 U32 const repIndex = current2 - offset_2;

	mov	rsi, QWORD PTR base$1$[rsp]
	mov	ecx, r14d

; 832  :                 const BYTE* repMatch = dictMode == ZSTD_dictMatchState

	mov	edx, DWORD PTR prefixLowestIndex$1$[rsp]
	sub	ecx, esi
	sub	ecx, r12d
	mov	r13d, r12d
	mov	edi, ecx
	cmp	ecx, edx
	jae	SHORT $LN68@ZSTD_compr
	mov	eax, DWORD PTR dictIndexDelta$1$[rsp]
	sub	rdi, rax
	add	rdi, QWORD PTR dictBase$1$[rsp]
	jmp	SHORT $LN69@ZSTD_compr
$LN68@ZSTD_compr:
	add	rdi, rsi
$LN69@ZSTD_compr:

; 833  :                     && repIndex < prefixLowestIndex ?
; 834  :                         dictBase - dictIndexDelta + repIndex :
; 835  :                         base + repIndex;
; 836  :                 if ( ((U32)((prefixLowestIndex-1) - (U32)repIndex) >= 3 /* intentional overflow */)
; 837  :                    && (MEM_read32(repMatch) == MEM_read32(ip)) ) {

	mov	eax, edx
	sub	eax, ecx
	dec	eax
	cmp	eax, 3
	jb	$LN374@ZSTD_compr
	mov	eax, DWORD PTR [r14]
	cmp	DWORD PTR [rdi], eax
	jne	$LN374@ZSTD_compr

; 838  :                     const BYTE* const repEnd2 = repIndex < prefixLowestIndex ? dictEnd : iend;

	cmp	ecx, edx

; 839  :                     matchLength = ZSTD_count_2segments(ip+4, repMatch+4, iend, repEnd2, prefixLowest) + 4;

	lea	r12, QWORD PTR [r14+4]
	mov	rsi, r9
; File E:\dev\pyzstd\lib\compress\zstd_compress_internal.h

; 590  :     const BYTE* const vEnd = MIN( ip + (mEnd - match), iEnd);

	mov	r8, r9
; File E:\dev\pyzstd\lib\compress\zstd_lazy.c

; 838  :                     const BYTE* const repEnd2 = repIndex < prefixLowestIndex ? dictEnd : iend;

	cmovb	rsi, QWORD PTR dictEnd$1$[rsp]
; File E:\dev\pyzstd\lib\compress\zstd_compress_internal.h

; 590  :     const BYTE* const vEnd = MIN( ip + (mEnd - match), iEnd);

	mov	rcx, r12
; File E:\dev\pyzstd\lib\compress\zstd_lazy.c

; 839  :                     matchLength = ZSTD_count_2segments(ip+4, repMatch+4, iend, repEnd2, prefixLowest) + 4;

	add	rdi, 4
; File E:\dev\pyzstd\lib\compress\zstd_compress_internal.h

; 590  :     const BYTE* const vEnd = MIN( ip + (mEnd - match), iEnd);

	sub	rcx, rdi

; 591  :     size_t const matchLength = ZSTD_count(ip, match, vEnd);

	mov	rdx, rdi
	add	rcx, rsi
	cmp	rcx, r9
	cmovb	r8, rcx
	mov	rcx, r12
	call	ZSTD_count
	mov	rbp, rax

; 592  :     if (match + matchLength != mEnd) return matchLength;

	add	rax, rdi
	cmp	rax, rsi
	jne	SHORT $LN248@ZSTD_compr

; 593  :     DEBUGLOG(7, "ZSTD_count_2segments: found a 2-parts match (current length==%zu)", matchLength);
; 594  :     DEBUGLOG(7, "distance from match beginning to end dictionary = %zi", mEnd - match);
; 595  :     DEBUGLOG(7, "distance from current pos to end buffer = %zi", iEnd - ip);
; 596  :     DEBUGLOG(7, "next byte : ip==%02X, istart==%02X", ip[matchLength], *iStart);
; 597  :     DEBUGLOG(7, "final match length = %zu", matchLength + ZSTD_count(ip+matchLength, iStart, iEnd));
; 598  :     return matchLength + ZSTD_count(ip+matchLength, iStart, iEnd);

	mov	r8, QWORD PTR iend$1$[rsp]
	lea	rcx, QWORD PTR [r12+rbp]
	mov	rdx, QWORD PTR prefixLowest$1$[rsp]
	call	ZSTD_count
	add	rbp, rax
$LN248@ZSTD_compr:
; File E:\dev\pyzstd\lib\compress\zstd_lazy.c

; 840  :                     offset = offset_2; offset_2 = offset_1; offset_1 = (U32)offset;   /* swap offset_2 <=> offset_1 */

	mov	r12d, DWORD PTR offset_1$1$[rsp]
	add	rbp, 4
; File E:\dev\pyzstd\lib\compress\zstd_compress_internal.h

; 456  :     if (litEnd <= litLimit_w) {

	mov	r9, QWORD PTR iend$1$[rsp]
	mov	rcx, QWORD PTR [rbx+24]
; File E:\dev\pyzstd\lib\compress\zstd_lazy.c

; 840  :                     offset = offset_2; offset_2 = offset_1; offset_1 = (U32)offset;   /* swap offset_2 <=> offset_1 */

	mov	DWORD PTR offset_2$1$[rsp], r12d
	mov	DWORD PTR offset_1$1$[rsp], r13d

; 841  :                     ZSTD_storeSeq(seqStore, 0, anchor, iend, 0, matchLength-MINMATCH);

	lea	rdi, QWORD PTR [rbp-3]
; File E:\dev\pyzstd\lib\compress\zstd_compress_internal.h

; 456  :     if (litEnd <= litLimit_w) {

	lea	rdx, QWORD PTR [r9-32]
	cmp	r15, rdx
	ja	SHORT $LN254@ZSTD_compr
; File E:\dev\pyzstd\lib\common\zstd_internal.h

; 243  :     memcpy(dst, src, 16);

	movups	xmm0, XMMWORD PTR [r15]
	movups	XMMWORD PTR [rcx], xmm0
; File E:\dev\pyzstd\lib\compress\zstd_compress_internal.h

; 465  :     } else {

	jmp	SHORT $LN255@ZSTD_compr
$LN254@ZSTD_compr:

; 466  :         ZSTD_safecopyLiterals(seqStorePtr->lit, literals, litEnd, litLimit_w);

	mov	r9, rdx
	mov	r8, r15
	mov	rdx, r15
	call	ZSTD_safecopyLiterals
	mov	r9, QWORD PTR iend$1$[rsp]
$LN255@ZSTD_compr:

; 475  :     }
; 476  :     seqStorePtr->sequences[0].litLength = (U16)litLength;

	mov	rax, QWORD PTR [rbx+8]
	xor	ecx, ecx
	mov	WORD PTR [rax+4], cx

; 477  : 
; 478  :     /* match offset */
; 479  :     seqStorePtr->sequences[0].offset = offCode + 1;

	mov	rax, QWORD PTR [rbx+8]
	mov	DWORD PTR [rax], 1
	mov	rcx, QWORD PTR [rbx+8]

; 480  : 
; 481  :     /* match Length */
; 482  :     if (mlBase>0xFFFF) {

	cmp	rdi, 65535				; 0000ffffH
	jbe	SHORT $LN365@ZSTD_compr

; 483  :         assert(seqStorePtr->longLengthID == 0); /* there can only be a single long length */
; 484  :         seqStorePtr->longLengthID = 2;
; 485  :         seqStorePtr->longLengthPos = (U32)(seqStorePtr->sequences - seqStorePtr->sequencesStart);

	mov	rax, rcx
	mov	DWORD PTR [rbx+72], 2
	sub	rax, QWORD PTR [rbx]
	sar	rax, 3
	mov	DWORD PTR [rbx+76], eax
$LN365@ZSTD_compr:
; File E:\dev\pyzstd\lib\compress\zstd_lazy.c

; 842  :                     ip += matchLength;

	add	r14, rbp
; File E:\dev\pyzstd\lib\compress\zstd_compress_internal.h

; 487  :     seqStorePtr->sequences[0].matchLength = (U16)mlBase;

	mov	WORD PTR [rcx+6], di

; 489  :     seqStorePtr->sequences++;

	add	QWORD PTR [rbx+8], 8
; File E:\dev\pyzstd\lib\compress\zstd_lazy.c

; 829  :             while (ip <= ilimit) {

	lea	rdx, QWORD PTR [r9-8]

; 842  :                     ip += matchLength;

	mov	r15, r14
	cmp	r14, rdx
	jbe	$LL12@ZSTD_compr

; 829  :             while (ip <= ilimit) {

	mov	edx, DWORD PTR prefixLowestIndex$1$[rsp]
	mov	rsi, QWORD PTR base$1$[rsp]
	jmp	SHORT $LN45@ZSTD_compr
$LN370@ZSTD_compr:

; 723  :             ip += ((ip-anchor) >> kSearchStrength) + 1;   /* jump faster over incompressible sections */

	mov	rcx, r14
	inc	r14
	sub	rcx, r15
	sar	rcx, 8
	add	r14, rcx

; 829  :             while (ip <= ilimit) {

	jmp	SHORT $LN375@ZSTD_compr
$LN372@ZSTD_compr:
	mov	rsi, QWORD PTR base$1$[rsp]
$LN375@ZSTD_compr:

; 669  :     if (dictMode == ZSTD_noDict) {
; 670  :         U32 const current = (U32)(ip - base);
; 671  :         U32 const windowLow = ZSTD_getLowestPrefixIndex(ms, current, ms->cParams.windowLog);
; 672  :         U32 const maxRep = current - windowLow;
; 673  :         if (offset_2 > maxRep) savedOffset = offset_2, offset_2 = 0;
; 674  :         if (offset_1 > maxRep) savedOffset = offset_1, offset_1 = 0;
; 675  :     }
; 676  :     if (dictMode == ZSTD_dictMatchState) {
; 677  :         /* dictMatchState repCode checks don't currently handle repCode == 0
; 678  :          * disabling. */
; 679  :         assert(offset_1 <= dictAndPrefixLength);
; 680  :         assert(offset_2 <= dictAndPrefixLength);
; 681  :     }
; 682  : 
; 683  :     /* Match Loop */
; 684  : #if defined(__GNUC__) && defined(__x86_64__)
; 685  :     /* I've measured random a 5% speed loss on levels 5 & 6 (greedy) when the
; 686  :      * code alignment is perturbed. To fix the instability align the loop on 32-bytes.
; 687  :      */
; 688  :     __asm__(".p2align 5");
; 689  : #endif
; 690  :     while (ip < ilimit) {

	mov	edx, DWORD PTR prefixLowestIndex$1$[rsp]
$LN374@ZSTD_compr:
	mov	r13d, DWORD PTR offset_1$1$[rsp]
$LN45@ZSTD_compr:
	mov	edi, 0
	mov	r10, QWORD PTR iend$1$[rsp]
	mov	r8d, DWORD PTR dictIndexDelta$1$[rsp]
	mov	r11, QWORD PTR dictBase$1$[rsp]
	mov	r9, QWORD PTR dictEnd$1$[rsp]
	cmp	r14, QWORD PTR ilimit$1$[rsp]
	jb	$LL4@ZSTD_compr
	mov	rbp, QWORD PTR rep$[rsp]
$LN5@ZSTD_compr:

; 925  : }

	mov	rbx, QWORD PTR [rsp+184]

; 867  :     return (size_t)(iend - anchor);

	sub	r10, r15

; 924  :     return ZSTD_compressBlock_lazy_generic(ms, seqStore, rep, src, srcSize, search_hashChain, 0, ZSTD_dictMatchState);

	mov	rax, r10

; 863  :     rep[0] = offset_1 ? offset_1 : savedOffset;

	mov	DWORD PTR [rbp], r13d

; 864  :     rep[1] = offset_2 ? offset_2 : savedOffset;

	mov	DWORD PTR [rbp+4], r12d

; 925  : }

	add	rsp, 112				; 00000070H
	pop	r15
	pop	r14
	pop	r13
	pop	r12
	pop	rdi
	pop	rsi
	pop	rbp
	ret	0
ZSTD_compressBlock_greedy_dictMatchState ENDP
_TEXT	ENDS
; Function compile flags: /Ogtpy
; File E:\dev\pyzstd\lib\compress\zstd_lazy.c
; File E:\dev\pyzstd\lib\compress\zstd_compress_internal.h
; File E:\dev\pyzstd\lib\compress\zstd_lazy.c
; File E:\dev\pyzstd\lib\compress\zstd_compress_internal.h
; File E:\dev\pyzstd\lib\compress\zstd_lazy.c
; File E:\dev\pyzstd\lib\compress\zstd_compress_internal.h
; File E:\dev\pyzstd\lib\compress\zstd_lazy.c
; File E:\dev\pyzstd\lib\compress\zstd_compress_internal.h
; File E:\dev\pyzstd\lib\compress\zstd_lazy.c
; File E:\dev\pyzstd\lib\compress\zstd_compress_internal.h
; File E:\dev\pyzstd\lib\compress\zstd_lazy.c
; File E:\dev\pyzstd\lib\compress\zstd_compress_internal.h
; File E:\dev\pyzstd\lib\compress\zstd_lazy.c
; File E:\dev\pyzstd\lib\common\zstd_internal.h
; File E:\dev\pyzstd\lib\compress\zstd_lazy.c
; File E:\dev\pyzstd\lib\common\zstd_internal.h
; File E:\dev\pyzstd\lib\compress\zstd_lazy.c
; File E:\dev\pyzstd\lib\common\zstd_internal.h
; File E:\dev\pyzstd\lib\compress\zstd_lazy.c
; File E:\dev\pyzstd\lib\common\zstd_internal.h
; File E:\dev\pyzstd\lib\compress\zstd_lazy.c
; File E:\dev\pyzstd\lib\common\zstd_internal.h
; File E:\dev\pyzstd\lib\compress\zstd_lazy.c
; File E:\dev\pyzstd\lib\common\zstd_internal.h
; File E:\dev\pyzstd\lib\compress\zstd_lazy.c
; File E:\dev\pyzstd\lib\common\zstd_internal.h
; File E:\dev\pyzstd\lib\compress\zstd_lazy.c
; File E:\dev\pyzstd\lib\common\zstd_internal.h
; File E:\dev\pyzstd\lib\compress\zstd_lazy.c
; File E:\dev\pyzstd\lib\common\zstd_internal.h
; File E:\dev\pyzstd\lib\compress\zstd_lazy.c
; File E:\dev\pyzstd\lib\common\zstd_internal.h
; File E:\dev\pyzstd\lib\compress\zstd_lazy.c
; File E:\dev\pyzstd\lib\common\zstd_internal.h
; File E:\dev\pyzstd\lib\compress\zstd_lazy.c
; File E:\dev\pyzstd\lib\common\zstd_internal.h
; File E:\dev\pyzstd\lib\compress\zstd_lazy.c
; File E:\dev\pyzstd\lib\compress\zstd_compress_internal.h
; File E:\dev\pyzstd\lib\compress\zstd_lazy.c
; File E:\dev\pyzstd\lib\compress\zstd_compress_internal.h
; File E:\dev\pyzstd\lib\compress\zstd_lazy.c
; File E:\dev\pyzstd\lib\compress\zstd_compress_internal.h
; File E:\dev\pyzstd\lib\common\zstd_internal.h
; File E:\dev\pyzstd\lib\compress\zstd_compress_internal.h
; File E:\dev\pyzstd\lib\common\zstd_internal.h
; File E:\dev\pyzstd\lib\compress\zstd_compress_internal.h
; File E:\dev\pyzstd\lib\common\zstd_internal.h
; File E:\dev\pyzstd\lib\compress\zstd_compress_internal.h
; File E:\dev\pyzstd\lib\compress\zstd_lazy.c
; File E:\dev\pyzstd\lib\compress\zstd_compress_internal.h
; File E:\dev\pyzstd\lib\compress\zstd_lazy.c
; File E:\dev\pyzstd\lib\compress\zstd_compress_internal.h
; File E:\dev\pyzstd\lib\compress\zstd_lazy.c
; File E:\dev\pyzstd\lib\compress\zstd_compress_internal.h
; File E:\dev\pyzstd\lib\compress\zstd_lazy.c
; File E:\dev\pyzstd\lib\compress\zstd_compress_internal.h
; File E:\dev\pyzstd\lib\common\zstd_internal.h
; File E:\dev\pyzstd\lib\compress\zstd_compress_internal.h
; File E:\dev\pyzstd\lib\compress\zstd_lazy.c
; File E:\dev\pyzstd\lib\compress\zstd_compress_internal.h
; File E:\dev\pyzstd\lib\compress\zstd_lazy.c
_TEXT	SEGMENT
tv2277 = 32
tv2275 = 32
r$1 = 32
r$2 = 32
r$3 = 32
offset_2$1$ = 36
iend$1$ = 40
tv2278 = 48
r$4 = 48
r$5 = 48
r$6 = 48
tv2480 = 56
offsetFound$7 = 64
offset2$8 = 72
offset2$9 = 80
prefixLowest$1$ = 88
ilimit$1$ = 96
ms$ = 192
seqStore$ = 200
rep$ = 208
src$ = 216
offset_1$1$ = 224
srcSize$ = 224
ZSTD_compressBlock_btlazy2 PROC

; 874  : {

$LN382:
	mov	QWORD PTR [rsp+32], r9
	mov	QWORD PTR [rsp+24], r8
	mov	QWORD PTR [rsp+16], rdx
	mov	QWORD PTR [rsp+8], rcx
	push	rbx
	push	rbp
	push	rsi
	push	rdi
	push	r12
	push	r13
	push	r14
	push	r15
	sub	rsp, 120				; 00000078H

; 638  :     const U32 prefixLowestIndex = ms->window.dictLimit;

	mov	r10d, DWORD PTR [rcx+24]

; 874  : {

	mov	r15, rcx

; 644  :     searchMax_f const searchMax = dictMode == ZSTD_dictMatchState ?

	mov	edi, DWORD PTR [r8]

; 874  : {

	mov	r14, r9

; 649  :     U32 offset_1 = rep[0], offset_2 = rep[1], savedOffset=0;

	mov	r11d, DWORD PTR [r8+4]

; 874  : {

	mov	rsi, rdx

; 635  :     const BYTE* const iend = istart + srcSize;

	mov	r12, QWORD PTR srcSize$[rsp]

; 668  :     ip += (dictAndPrefixLength == 0);

	xor	r8d, r8d
	add	r12, r9
	mov	eax, r8d
	mov	r9, QWORD PTR [rcx+8]
; File E:\dev\pyzstd\lib\compress\zstd_compress_internal.h

; 991  :     U32    const maxDistance = 1U << windowLog;

	mov	edx, 1
; File E:\dev\pyzstd\lib\compress\zstd_lazy.c

; 635  :     const BYTE* const iend = istart + srcSize;

	mov	QWORD PTR iend$1$[rsp], r12

; 636  :     const BYTE* const ilimit = iend - 8;

	lea	rbp, QWORD PTR [r12-8]

; 639  :     const BYTE* const prefixLowest = base + prefixLowestIndex;

	lea	rcx, QWORD PTR [r9+r10]
	mov	QWORD PTR ilimit$1$[rsp], rbp

; 668  :     ip += (dictAndPrefixLength == 0);

	cmp	r14d, ecx
	mov	QWORD PTR prefixLowest$1$[rsp], rcx
; File E:\dev\pyzstd\lib\compress\zstd_compress_internal.h

; 991  :     U32    const maxDistance = 1U << windowLog;

	mov	ecx, DWORD PTR [r15+184]
; File E:\dev\pyzstd\lib\compress\zstd_lazy.c

; 668  :     ip += (dictAndPrefixLength == 0);

	sete	al
; File E:\dev\pyzstd\lib\compress\zstd_compress_internal.h

; 991  :     U32    const maxDistance = 1U << windowLog;

	shl	edx, cl
; File E:\dev\pyzstd\lib\compress\zstd_lazy.c

; 668  :     ip += (dictAndPrefixLength == 0);

	lea	rbx, QWORD PTR [rax+r14]

; 669  :     if (dictMode == ZSTD_noDict) {
; 670  :         U32 const current = (U32)(ip - base);

	mov	r8d, ebx
	sub	r8d, r9d
; File E:\dev\pyzstd\lib\compress\zstd_compress_internal.h

; 993  :     U32    const withinWindow = (current - lowestValid > maxDistance) ? current - maxDistance : lowestValid;

	mov	eax, r8d

; 994  :     U32    const isDictionary = (ms->loadedDictEnd != 0);

	mov	ecx, r8d
	sub	eax, r10d
	sub	ecx, edx
	cmp	eax, edx
; File E:\dev\pyzstd\lib\compress\zstd_lazy.c

; 690  :     while (ip < ilimit) {

	mov	eax, edi
; File E:\dev\pyzstd\lib\compress\zstd_compress_internal.h

; 994  :     U32    const isDictionary = (ms->loadedDictEnd != 0);

	cmovbe	ecx, r10d
	cmp	DWORD PTR [r15+32], 0

; 995  :     U32    const matchLowest = isDictionary ? lowestValid : withinWindow;

	cmovne	ecx, r10d
; File E:\dev\pyzstd\lib\compress\zstd_lazy.c

; 674  :         if (offset_1 > maxRep) savedOffset = offset_1, offset_1 = 0;

	xor	r10d, r10d
	sub	r8d, ecx
	mov	r13d, r10d
	cmp	r11d, r8d

; 690  :     while (ip < ilimit) {

	mov	r9d, r10d
	cmovbe	r13d, r11d
	cmovbe	r11d, r10d
	cmp	edi, r8d
	cmovbe	eax, r11d
	cmovbe	r9d, edi
	mov	DWORD PTR tv2480[rsp], eax
	cmp	rbx, rbp
	jae	$LN5@ZSTD_compr
; File E:\dev\pyzstd\lib\compress\zstd_compress_internal.h

; 485  :         seqStorePtr->longLengthPos = (U32)(seqStorePtr->sequences - seqStorePtr->sequencesStart);

	mov	DWORD PTR offset_2$1$[rsp], r13d
	mov	DWORD PTR offset_1$1$[rsp], r9d
	npad	5
$LL4@ZSTD_compr:
; File E:\dev\pyzstd\lib\compress\zstd_lazy.c

; 710  :           && ((offset_1 > 0) & (MEM_read32(ip+1-offset_1) == MEM_read32(ip+1)))) {

	mov	eax, r9d
	lea	r15, QWORD PTR [rbx+1]
	mov	r8d, r10d
	mov	QWORD PTR tv2278[rsp], rax
	mov	ecx, r10d
	mov	rdx, rbx
	sub	rdx, rax
	mov	rdi, r10
	mov	eax, DWORD PTR [r15]
	test	r9d, r9d
	mov	rbp, r10
	setne	r8b
	cmp	DWORD PTR [rdx+1], eax
	mov	DWORD PTR tv2277[rsp], r8d
	sete	cl
	test	ecx, r8d
	je	SHORT $LN24@ZSTD_compr

; 711  :             matchLength = ZSTD_count(ip+1+4, ip+1+4-offset_1, iend) + 4;

	add	rdx, 5
	lea	rcx, QWORD PTR [rbx+5]
	mov	r8, r12
	call	ZSTD_count
	lea	rdi, QWORD PTR [rax+4]
$LN24@ZSTD_compr:

; 712  :             if (depth==0) goto _storeSequence;
; 713  :         }
; 714  : 
; 715  :         /* first search (depth 0) */
; 716  :         {   size_t offsetFound = 999999999;
; 717  :             size_t const ml2 = searchMax(ms, ip, iend, &offsetFound);

	mov	rcx, QWORD PTR ms$[rsp]
	lea	r9, QWORD PTR offsetFound$7[rsp]
	mov	r8, r12
	mov	QWORD PTR offsetFound$7[rsp], 999999999	; 3b9ac9ffH
	mov	rdx, rbx
	call	ZSTD_BtFindBestMatch_selectMLS

; 718  :             if (ml2 > matchLength)

	cmp	rax, rdi
	jbe	SHORT $LN25@ZSTD_compr

; 719  :                 matchLength = ml2, start = ip, offset=offsetFound;

	mov	rbp, QWORD PTR offsetFound$7[rsp]
	mov	rdi, rax
	mov	r15, rbx
$LN25@ZSTD_compr:

; 720  :         }
; 721  : 
; 722  :         if (matchLength < 4) {

	cmp	rdi, 4
	jae	SHORT $LN354@ZSTD_compr

; 723  :             ip += ((ip-anchor) >> kSearchStrength) + 1;   /* jump faster over incompressible sections */

	mov	rax, rbx
	inc	rbx
	sub	rax, r14
	sar	rax, 8
	add	rbx, rax

; 724  :             continue;

	xor	r10d, r10d
	jmp	$LN15@ZSTD_compr
$LN354@ZSTD_compr:

; 725  :         }
; 726  : 
; 727  :         /* let's try to find a better solution */
; 728  :         if (depth>=1)
; 729  :         while (ip<ilimit) {

	lea	rax, QWORD PTR [r12-8]
	cmp	rbx, rax
	jae	$LN40@ZSTD_compr
	mov	rsi, QWORD PTR iend$1$[rsp]
	mov	r13d, DWORD PTR tv2277[rsp]
	mov	r14, QWORD PTR tv2278[rsp]
$LL6@ZSTD_compr:

; 730  :             ip ++;

	inc	rbx

; 731  :             if ( (dictMode == ZSTD_noDict)
; 732  :               && (offset) && ((offset_1>0) & (MEM_read32(ip) == MEM_read32(ip - offset_1)))) {

	test	rbp, rbp
	je	SHORT $LN29@ZSTD_compr
	xor	r12d, r12d
	mov	rdx, rbx
	sub	rdx, r14
	mov	ecx, r12d
	mov	eax, DWORD PTR [rdx]
	cmp	DWORD PTR [rbx], eax
	sete	cl
	test	ecx, r13d
	je	SHORT $LN29@ZSTD_compr

; 733  :                 size_t const mlRep = ZSTD_count(ip+4, ip+4-offset_1, iend) + 4;

	add	rdx, 4
	lea	rcx, QWORD PTR [rbx+4]
	mov	r8, rsi
	call	ZSTD_count
; File E:\dev\pyzstd\lib\common\zstd_internal.h

; 397  :         unsigned long r=0;

	mov	DWORD PTR r$1[rsp], r12d
; File E:\dev\pyzstd\lib\compress\zstd_lazy.c

; 733  :                 size_t const mlRep = ZSTD_count(ip+4, ip+4-offset_1, iend) + 4;

	lea	rdx, QWORD PTR [rax+4]

; 735  :                 int const gain1 = (int)(matchLength*3 - ZSTD_highbit32((U32)offset+1) + 1);

	lea	eax, DWORD PTR [rbp+1]
; File E:\dev\pyzstd\lib\common\zstd_internal.h

; 398  :         return _BitScanReverse(&r, val) ? (unsigned)r : 0;

	bsr	ecx, eax
	mov	eax, r12d
	cmovne	eax, ecx
; File E:\dev\pyzstd\lib\compress\zstd_lazy.c

; 735  :                 int const gain1 = (int)(matchLength*3 - ZSTD_highbit32((U32)offset+1) + 1);

	lea	ecx, DWORD PTR [rdi+rdi*2]
	sub	ecx, eax
	inc	ecx

; 736  :                 if ((mlRep >= 4) && (gain2 > gain1))

	cmp	rdx, 4
	jb	SHORT $LN29@ZSTD_compr
	lea	eax, DWORD PTR [rdx+rdx*2]
	cmp	eax, ecx
	jle	SHORT $LN29@ZSTD_compr

; 737  :                     matchLength = mlRep, offset = 0, start = ip;

	mov	rdi, rdx
	mov	ebp, r12d
	mov	r15, rbx
$LN29@ZSTD_compr:

; 738  :             }
; 739  :             if (dictMode == ZSTD_dictMatchState) {
; 740  :                 const U32 repIndex = (U32)(ip - base) - offset_1;
; 741  :                 const BYTE* repMatch = repIndex < prefixLowestIndex ?
; 742  :                                dictBase + (repIndex - dictIndexDelta) :
; 743  :                                base + repIndex;
; 744  :                 if (((U32)((prefixLowestIndex-1) - repIndex) >= 3 /* intentional underflow */)
; 745  :                     && (MEM_read32(repMatch) == MEM_read32(ip)) ) {
; 746  :                     const BYTE* repMatchEnd = repIndex < prefixLowestIndex ? dictEnd : iend;
; 747  :                     size_t const mlRep = ZSTD_count_2segments(ip+4, repMatch+4, iend, repMatchEnd, prefixLowest) + 4;
; 748  :                     int const gain2 = (int)(mlRep * 3);
; 749  :                     int const gain1 = (int)(matchLength*3 - ZSTD_highbit32((U32)offset+1) + 1);
; 750  :                     if ((mlRep >= 4) && (gain2 > gain1))
; 751  :                         matchLength = mlRep, offset = 0, start = ip;
; 752  :                 }
; 753  :             }
; 754  :             {   size_t offset2=999999999;
; 755  :                 size_t const ml2 = searchMax(ms, ip, iend, &offset2);

	mov	rcx, QWORD PTR ms$[rsp]
	lea	r9, QWORD PTR offset2$8[rsp]
	mov	r8, rsi
	mov	QWORD PTR offset2$8[rsp], 999999999	; 3b9ac9ffH
	mov	rdx, rbx
	call	ZSTD_BtFindBestMatch_selectMLS

; 756  :                 int const gain2 = (int)(ml2*4 - ZSTD_highbit32((U32)offset2+1));   /* raw approx */

	mov	r9, QWORD PTR offset2$8[rsp]

; 757  :                 int const gain1 = (int)(matchLength*4 - ZSTD_highbit32((U32)offset+1) + 4);

	lea	r12d, DWORD PTR [rdi*4]
	mov	rdx, rax
; File E:\dev\pyzstd\lib\common\zstd_internal.h

; 397  :         unsigned long r=0;

	xor	r10d, r10d
	mov	DWORD PTR r$3[rsp], r10d
	mov	DWORD PTR r$2[rsp], r10d
; File E:\dev\pyzstd\lib\compress\zstd_lazy.c

; 756  :                 int const gain2 = (int)(ml2*4 - ZSTD_highbit32((U32)offset2+1));   /* raw approx */

	lea	eax, DWORD PTR [r9+1]
; File E:\dev\pyzstd\lib\common\zstd_internal.h

; 398  :         return _BitScanReverse(&r, val) ? (unsigned)r : 0;

	bsr	ecx, eax
	mov	eax, r10d
; File E:\dev\pyzstd\lib\compress\zstd_lazy.c

; 756  :                 int const gain2 = (int)(ml2*4 - ZSTD_highbit32((U32)offset2+1));   /* raw approx */

	lea	r8d, DWORD PTR [rdx*4]
; File E:\dev\pyzstd\lib\common\zstd_internal.h

; 398  :         return _BitScanReverse(&r, val) ? (unsigned)r : 0;

	cmovne	eax, ecx
	mov	ecx, r10d
; File E:\dev\pyzstd\lib\compress\zstd_lazy.c

; 756  :                 int const gain2 = (int)(ml2*4 - ZSTD_highbit32((U32)offset2+1));   /* raw approx */

	sub	r8d, eax

; 757  :                 int const gain1 = (int)(matchLength*4 - ZSTD_highbit32((U32)offset+1) + 4);

	lea	eax, DWORD PTR [rbp+1]
	mov	DWORD PTR tv2275[rsp], eax
; File E:\dev\pyzstd\lib\common\zstd_internal.h

; 398  :         return _BitScanReverse(&r, val) ? (unsigned)r : 0;

	bsr	eax, eax
	cmovne	ecx, eax
	mov	eax, r12d
	sub	eax, ecx
; File E:\dev\pyzstd\lib\compress\zstd_lazy.c

; 757  :                 int const gain1 = (int)(matchLength*4 - ZSTD_highbit32((U32)offset+1) + 4);

	add	eax, 4

; 758  :                 if ((ml2 >= 4) && (gain2 > gain1)) {

	cmp	rdx, 4
	jb	SHORT $LN33@ZSTD_compr
	cmp	r8d, eax
	jle	SHORT $LN33@ZSTD_compr

; 759  :                     matchLength = ml2, offset = offset2, start = ip;

	mov	rdi, rdx

; 760  :                     continue;   /* search a better one */

	jmp	$LN380@ZSTD_compr
$LN33@ZSTD_compr:

; 761  :             }   }
; 762  : 
; 763  :             /* let's find an even better one */
; 764  :             if ((depth==2) && (ip<ilimit)) {

	lea	rax, QWORD PTR [rsi-8]
	cmp	rbx, rax
	jae	$LN376@ZSTD_compr

; 765  :                 ip ++;

	inc	rbx

; 766  :                 if ( (dictMode == ZSTD_noDict)
; 767  :                   && (offset) && ((offset_1>0) & (MEM_read32(ip) == MEM_read32(ip - offset_1)))) {

	test	rbp, rbp
	je	SHORT $LN36@ZSTD_compr
	mov	ecx, r10d
	mov	rdx, rbx
	sub	rdx, r14
	mov	eax, DWORD PTR [rdx]
	cmp	DWORD PTR [rbx], eax
	sete	cl
	test	ecx, r13d
	je	SHORT $LN36@ZSTD_compr

; 768  :                     size_t const mlRep = ZSTD_count(ip+4, ip+4-offset_1, iend) + 4;

	add	rdx, 4
	lea	rcx, QWORD PTR [rbx+4]
	mov	r8, rsi
	call	ZSTD_count
; File E:\dev\pyzstd\lib\common\zstd_internal.h

; 397  :         unsigned long r=0;

	xor	r8d, r8d

; 398  :         return _BitScanReverse(&r, val) ? (unsigned)r : 0;

	mov	ecx, r8d
	mov	DWORD PTR r$4[rsp], r8d
; File E:\dev\pyzstd\lib\compress\zstd_lazy.c

; 768  :                     size_t const mlRep = ZSTD_count(ip+4, ip+4-offset_1, iend) + 4;

	lea	rdx, QWORD PTR [rax+4]
; File E:\dev\pyzstd\lib\common\zstd_internal.h

; 398  :         return _BitScanReverse(&r, val) ? (unsigned)r : 0;

	bsr	eax, DWORD PTR tv2275[rsp]
	cmovne	ecx, eax
	sub	r12d, ecx
; File E:\dev\pyzstd\lib\compress\zstd_lazy.c

; 770  :                     int const gain1 = (int)(matchLength*4 - ZSTD_highbit32((U32)offset+1) + 1);

	inc	r12d

; 771  :                     if ((mlRep >= 4) && (gain2 > gain1))

	cmp	rdx, 4
	jb	SHORT $LN36@ZSTD_compr
	lea	eax, DWORD PTR [rdx*4]
	cmp	eax, r12d
	jle	SHORT $LN36@ZSTD_compr

; 772  :                         matchLength = mlRep, offset = 0, start = ip;

	mov	rdi, rdx
	mov	ebp, r8d
	mov	r15, rbx
$LN36@ZSTD_compr:

; 773  :                 }
; 774  :                 if (dictMode == ZSTD_dictMatchState) {
; 775  :                     const U32 repIndex = (U32)(ip - base) - offset_1;
; 776  :                     const BYTE* repMatch = repIndex < prefixLowestIndex ?
; 777  :                                    dictBase + (repIndex - dictIndexDelta) :
; 778  :                                    base + repIndex;
; 779  :                     if (((U32)((prefixLowestIndex-1) - repIndex) >= 3 /* intentional underflow */)
; 780  :                         && (MEM_read32(repMatch) == MEM_read32(ip)) ) {
; 781  :                         const BYTE* repMatchEnd = repIndex < prefixLowestIndex ? dictEnd : iend;
; 782  :                         size_t const mlRep = ZSTD_count_2segments(ip+4, repMatch+4, iend, repMatchEnd, prefixLowest) + 4;
; 783  :                         int const gain2 = (int)(mlRep * 4);
; 784  :                         int const gain1 = (int)(matchLength*4 - ZSTD_highbit32((U32)offset+1) + 1);
; 785  :                         if ((mlRep >= 4) && (gain2 > gain1))
; 786  :                             matchLength = mlRep, offset = 0, start = ip;
; 787  :                     }
; 788  :                 }
; 789  :                 {   size_t offset2=999999999;
; 790  :                     size_t const ml2 = searchMax(ms, ip, iend, &offset2);

	mov	rcx, QWORD PTR ms$[rsp]
	lea	r9, QWORD PTR offset2$9[rsp]
	mov	r8, rsi
	mov	QWORD PTR offset2$9[rsp], 999999999	; 3b9ac9ffH
	mov	rdx, rbx
	call	ZSTD_BtFindBestMatch_selectMLS

; 791  :                     int const gain2 = (int)(ml2*4 - ZSTD_highbit32((U32)offset2+1));   /* raw approx */

	mov	r9, QWORD PTR offset2$9[rsp]
	mov	r8, rax
; File E:\dev\pyzstd\lib\common\zstd_internal.h

; 397  :         unsigned long r=0;

	xor	r10d, r10d
	mov	DWORD PTR r$5[rsp], r10d
	mov	DWORD PTR r$6[rsp], r10d
; File E:\dev\pyzstd\lib\compress\zstd_lazy.c

; 791  :                     int const gain2 = (int)(ml2*4 - ZSTD_highbit32((U32)offset2+1));   /* raw approx */

	lea	eax, DWORD PTR [r9+1]
; File E:\dev\pyzstd\lib\common\zstd_internal.h

; 398  :         return _BitScanReverse(&r, val) ? (unsigned)r : 0;

	bsr	ecx, eax
	mov	eax, r10d
; File E:\dev\pyzstd\lib\compress\zstd_lazy.c

; 791  :                     int const gain2 = (int)(ml2*4 - ZSTD_highbit32((U32)offset2+1));   /* raw approx */

	lea	edx, DWORD PTR [r8*4]
; File E:\dev\pyzstd\lib\common\zstd_internal.h

; 398  :         return _BitScanReverse(&r, val) ? (unsigned)r : 0;

	cmovne	eax, ecx
; File E:\dev\pyzstd\lib\compress\zstd_lazy.c

; 791  :                     int const gain2 = (int)(ml2*4 - ZSTD_highbit32((U32)offset2+1));   /* raw approx */

	sub	edx, eax

; 792  :                     int const gain1 = (int)(matchLength*4 - ZSTD_highbit32((U32)offset+1) + 7);

	lea	eax, DWORD PTR [rbp+1]
; File E:\dev\pyzstd\lib\common\zstd_internal.h

; 398  :         return _BitScanReverse(&r, val) ? (unsigned)r : 0;

	bsr	ecx, eax
	mov	eax, r10d
	cmovne	eax, ecx
; File E:\dev\pyzstd\lib\compress\zstd_lazy.c

; 792  :                     int const gain1 = (int)(matchLength*4 - ZSTD_highbit32((U32)offset+1) + 7);

	lea	ecx, DWORD PTR [rdi*4]
	sub	ecx, eax
	add	ecx, 7

; 793  :                     if ((ml2 >= 4) && (gain2 > gain1)) {

	cmp	r8, 4
	jb	SHORT $LN376@ZSTD_compr
	cmp	edx, ecx
	jle	SHORT $LN376@ZSTD_compr

; 794  :                         matchLength = ml2, offset = offset2, start = ip;

	mov	rdi, r8
$LN380@ZSTD_compr:

; 725  :         }
; 726  : 
; 727  :         /* let's try to find a better solution */
; 728  :         if (depth>=1)
; 729  :         while (ip<ilimit) {

	lea	rax, QWORD PTR [rsi-8]
	mov	r15, rbx
	mov	rbp, r9
	cmp	rbx, rax
	jb	$LL6@ZSTD_compr
$LN376@ZSTD_compr:
	mov	rsi, QWORD PTR seqStore$[rsp]
	mov	r14, QWORD PTR src$[rsp]
	mov	r13d, DWORD PTR offset_2$1$[rsp]
	mov	r12, QWORD PTR iend$1$[rsp]
$LN40@ZSTD_compr:

; 795  :                         continue;
; 796  :             }   }   }
; 797  :             break;  /* nothing found : store previous solution */
; 798  :         }
; 799  : 
; 800  :         /* NOTE:
; 801  :          * start[-offset+ZSTD_REP_MOVE-1] is undefined behavior.
; 802  :          * (-offset+ZSTD_REP_MOVE-1) is unsigned, and is added to start, which
; 803  :          * overflows the pointer, which is undefined behavior.
; 804  :          */
; 805  :         /* catch up */
; 806  :         if (offset) {

	test	rbp, rbp
	je	SHORT $_storeSequence$383

; 807  :             if (dictMode == ZSTD_noDict) {
; 808  :                 while ( ((start > anchor) & (start - (offset-ZSTD_REP_MOVE) > prefixLowest))
; 809  :                      && (start[-1] == (start-(offset-ZSTD_REP_MOVE))[-1]) )  /* only search for offset within prefix */

	mov	r8, QWORD PTR prefixLowest$1$[rsp]
	xor	r9d, r9d
	mov	ecx, r9d
	mov	eax, r9d
	mov	rdx, r15
	sub	rdx, rbp
	add	rdx, 2
	cmp	rdx, r8
	seta	cl
	cmp	r15, r14
	seta	al
	test	ecx, eax
	je	SHORT $LN377@ZSTD_compr
	npad	7
$LL8@ZSTD_compr:
	movzx	eax, BYTE PTR [rdx-1]
	cmp	BYTE PTR [rdx+rbp-3], al
	jne	SHORT $LN377@ZSTD_compr

; 810  :                     { start--; matchLength++; }

	dec	r15
	dec	rdx
	inc	rdi
	mov	ecx, r9d
	cmp	rdx, r8
	mov	eax, r9d
	seta	cl
	cmp	r15, r14
	seta	al
	test	ecx, eax
	jne	SHORT $LL8@ZSTD_compr
$LN377@ZSTD_compr:

; 811  :             }
; 812  :             if (dictMode == ZSTD_dictMatchState) {
; 813  :                 U32 const matchIndex = (U32)((start-base) - (offset - ZSTD_REP_MOVE));
; 814  :                 const BYTE* match = (matchIndex < prefixLowestIndex) ? dictBase + matchIndex - dictIndexDelta : base + matchIndex;
; 815  :                 const BYTE* const mStart = (matchIndex < prefixLowestIndex) ? dictLowest : prefixLowest;
; 816  :                 while ((start>anchor) && (match>mStart) && (start[-1] == match[-1])) { start--; match--; matchLength++; }  /* catch up */
; 817  :             }
; 818  :             offset_2 = offset_1; offset_1 = (U32)(offset - ZSTD_REP_MOVE);

	mov	r13d, DWORD PTR offset_1$1$[rsp]
	lea	eax, DWORD PTR [rbp-2]
	mov	DWORD PTR offset_1$1$[rsp], eax
	mov	DWORD PTR offset_2$1$[rsp], r13d
$_storeSequence$383:
; File E:\dev\pyzstd\lib\compress\zstd_compress_internal.h

; 442  :     BYTE const* const litEnd = literals + litLength;

	mov	rcx, QWORD PTR [rsi+24]
; File E:\dev\pyzstd\lib\compress\zstd_lazy.c

; 823  :             ZSTD_storeSeq(seqStore, litLength, anchor, iend, (U32)offset, matchLength-MINMATCH);

	lea	rdx, QWORD PTR [rdi-3]
	mov	rbx, r15
; File E:\dev\pyzstd\lib\compress\zstd_compress_internal.h

; 441  :     BYTE const* const litLimit_w = litLimit - WILDCOPY_OVERLENGTH;

	add	r12, -32				; ffffffffffffffe0H
; File E:\dev\pyzstd\lib\compress\zstd_lazy.c

; 822  :         {   size_t const litLength = start - anchor;

	sub	rbx, r14
; File E:\dev\pyzstd\lib\compress\zstd_compress_internal.h

; 442  :     BYTE const* const litEnd = literals + litLength;

	lea	r8, QWORD PTR [rbx+r14]

; 456  :     if (litEnd <= litLimit_w) {

	cmp	r8, r12
	ja	SHORT $LN222@ZSTD_compr
; File E:\dev\pyzstd\lib\common\zstd_internal.h

; 243  :     memcpy(dst, src, 16);

	movups	xmm0, XMMWORD PTR [r14]
	movups	XMMWORD PTR [rcx], xmm0
; File E:\dev\pyzstd\lib\compress\zstd_compress_internal.h

; 462  :         if (litLength > 16) {

	cmp	rbx, 16
	jbe	SHORT $LN223@ZSTD_compr

; 463  :             ZSTD_wildcopy(seqStorePtr->lit+16, literals+16, (ptrdiff_t)litLength-16, ZSTD_no_overlap);

	mov	rax, QWORD PTR [rsi+24]
; File E:\dev\pyzstd\lib\common\zstd_internal.h

; 270  :     BYTE* const oend = op + length;

	lea	rcx, QWORD PTR [rbx-16]
; File E:\dev\pyzstd\lib\compress\zstd_compress_internal.h

; 463  :             ZSTD_wildcopy(seqStorePtr->lit+16, literals+16, (ptrdiff_t)litLength-16, ZSTD_no_overlap);

	add	rax, 16
	add	r14, 16
; File E:\dev\pyzstd\lib\common\zstd_internal.h

; 270  :     BYTE* const oend = op + length;

	add	rcx, rax
	npad	5
$LL236@ZSTD_compr:

; 243  :     memcpy(dst, src, 16);

	movups	xmm0, XMMWORD PTR [r14]

; 289  :             COPY16(op, ip);

	lea	r14, QWORD PTR [r14+16]

; 243  :     memcpy(dst, src, 16);

	movups	XMMWORD PTR [rax], xmm0

; 289  :             COPY16(op, ip);

	add	rax, 16

; 290  :         }
; 291  :         while (op < oend);

	cmp	rax, rcx
	jb	SHORT $LL236@ZSTD_compr
; File E:\dev\pyzstd\lib\compress\zstd_compress_internal.h

; 465  :     } else {

	jmp	SHORT $LN223@ZSTD_compr
$LN222@ZSTD_compr:

; 466  :         ZSTD_safecopyLiterals(seqStorePtr->lit, literals, litEnd, litLimit_w);

	mov	r9, r12
	mov	rdx, r14
	call	ZSTD_safecopyLiterals
	lea	rdx, QWORD PTR [rdi-3]
$LN223@ZSTD_compr:

; 467  :     }
; 468  :     seqStorePtr->lit += litLength;

	add	QWORD PTR [rsi+24], rbx

; 469  : 
; 470  :     /* literal Length */
; 471  :     if (litLength>0xFFFF) {

	mov	rcx, QWORD PTR [rsi+8]
	cmp	rbx, 65535				; 0000ffffH
	jbe	SHORT $LN225@ZSTD_compr

; 472  :         assert(seqStorePtr->longLengthID == 0); /* there can only be a single long length */
; 473  :         seqStorePtr->longLengthID = 1;
; 474  :         seqStorePtr->longLengthPos = (U32)(seqStorePtr->sequences - seqStorePtr->sequencesStart);

	mov	rax, rcx
	mov	DWORD PTR [rsi+72], 1
	sub	rax, QWORD PTR [rsi]
	sar	rax, 3
	mov	DWORD PTR [rsi+76], eax
$LN225@ZSTD_compr:

; 475  :     }
; 476  :     seqStorePtr->sequences[0].litLength = (U16)litLength;

	mov	WORD PTR [rcx+4], bx

; 477  : 
; 478  :     /* match offset */
; 479  :     seqStorePtr->sequences[0].offset = offCode + 1;

	lea	ecx, DWORD PTR [rbp+1]
	mov	rax, QWORD PTR [rsi+8]
	mov	DWORD PTR [rax], ecx
	mov	rcx, QWORD PTR [rsi+8]

; 480  : 
; 481  :     /* match Length */
; 482  :     if (mlBase>0xFFFF) {

	cmp	rdx, 65535				; 0000ffffH
	jbe	SHORT $LN368@ZSTD_compr

; 485  :         seqStorePtr->longLengthPos = (U32)(seqStorePtr->sequences - seqStorePtr->sequencesStart);

	mov	rax, rcx
	mov	DWORD PTR [rsi+72], 2
	sub	rax, QWORD PTR [rsi]
	sar	rax, 3
	mov	DWORD PTR [rsi+76], eax
$LN368@ZSTD_compr:
; File E:\dev\pyzstd\lib\compress\zstd_lazy.c

; 852  :                  && (MEM_read32(ip) == MEM_read32(ip - offset_2)) ) {

	xor	r10d, r10d
; File E:\dev\pyzstd\lib\compress\zstd_compress_internal.h

; 487  :     seqStorePtr->sequences[0].matchLength = (U16)mlBase;

	mov	WORD PTR [rcx+6], dx

; 489  :     seqStorePtr->sequences++;

	add	QWORD PTR [rsi+8], 8
; File E:\dev\pyzstd\lib\compress\zstd_lazy.c

; 824  :             anchor = ip = start + matchLength;

	lea	r14, QWORD PTR [r15+rdi]
	cmp	r14, QWORD PTR ilimit$1$[rsp]

; 852  :                  && (MEM_read32(ip) == MEM_read32(ip - offset_2)) ) {

	mov	ecx, r10d
	mov	eax, r10d
	mov	QWORD PTR src$[rsp], r14
	setbe	cl
	mov	rbx, r14
	test	r13d, r13d
	setne	al
	test	ecx, eax
	je	$LN379@ZSTD_compr
	mov	r15, QWORD PTR iend$1$[rsp]
; File E:\dev\pyzstd\lib\compress\zstd_compress_internal.h

; 485  :         seqStorePtr->longLengthPos = (U32)(seqStorePtr->sequences - seqStorePtr->sequencesStart);

	mov	QWORD PTR src$[rsp], r14
	npad	4
$LL14@ZSTD_compr:
; File E:\dev\pyzstd\lib\compress\zstd_lazy.c

; 852  :                  && (MEM_read32(ip) == MEM_read32(ip - offset_2)) ) {

	mov	eax, r13d
	mov	rdx, rbx
	sub	rdx, rax
	mov	ebp, r13d
	mov	eax, DWORD PTR [rdx]
	cmp	DWORD PTR [rbx], eax
	jne	$LN378@ZSTD_compr

; 853  :                 /* store sequence */
; 854  :                 matchLength = ZSTD_count(ip+4, ip+4-offset_2, iend) + 4;

	add	rdx, 4
	lea	rcx, QWORD PTR [rbx+4]
	mov	r8, r15
	call	ZSTD_count

; 855  :                 offset = offset_2; offset_2 = offset_1; offset_1 = (U32)offset; /* swap repcodes */

	mov	r13d, DWORD PTR offset_1$1$[rsp]
; File E:\dev\pyzstd\lib\compress\zstd_compress_internal.h

; 442  :     BYTE const* const litEnd = literals + litLength;

	mov	rcx, QWORD PTR [rsi+24]
; File E:\dev\pyzstd\lib\compress\zstd_lazy.c

; 855  :                 offset = offset_2; offset_2 = offset_1; offset_1 = (U32)offset; /* swap repcodes */

	mov	DWORD PTR offset_1$1$[rsp], ebp
	lea	rdi, QWORD PTR [rax+4]

; 856  :                 ZSTD_storeSeq(seqStore, 0, anchor, iend, 0, matchLength-MINMATCH);

	lea	rbp, QWORD PTR [rdi-3]
; File E:\dev\pyzstd\lib\compress\zstd_compress_internal.h

; 456  :     if (litEnd <= litLimit_w) {

	cmp	r14, r12
	ja	SHORT $LN310@ZSTD_compr
; File E:\dev\pyzstd\lib\common\zstd_internal.h

; 243  :     memcpy(dst, src, 16);

	movups	xmm0, XMMWORD PTR [r14]
	movups	XMMWORD PTR [rcx], xmm0
; File E:\dev\pyzstd\lib\compress\zstd_compress_internal.h

; 465  :     } else {

	jmp	SHORT $LN311@ZSTD_compr
$LN310@ZSTD_compr:

; 466  :         ZSTD_safecopyLiterals(seqStorePtr->lit, literals, litEnd, litLimit_w);

	mov	r9, r12
	mov	r8, r14
	mov	rdx, r14
	call	ZSTD_safecopyLiterals
$LN311@ZSTD_compr:

; 475  :     }
; 476  :     seqStorePtr->sequences[0].litLength = (U16)litLength;

	mov	rax, QWORD PTR [rsi+8]
	xor	r10d, r10d
	mov	WORD PTR [rax+4], r10w

; 477  : 
; 478  :     /* match offset */
; 479  :     seqStorePtr->sequences[0].offset = offCode + 1;

	mov	rax, QWORD PTR [rsi+8]
	mov	DWORD PTR [rax], 1
	mov	rcx, QWORD PTR [rsi+8]

; 480  : 
; 481  :     /* match Length */
; 482  :     if (mlBase>0xFFFF) {

	cmp	rbp, 65535				; 0000ffffH
	jbe	SHORT $LN369@ZSTD_compr

; 485  :         seqStorePtr->longLengthPos = (U32)(seqStorePtr->sequences - seqStorePtr->sequencesStart);

	mov	rax, rcx
	mov	DWORD PTR [rsi+72], 2
	sub	rax, QWORD PTR [rsi]
	sar	rax, 3
	mov	DWORD PTR [rsi+76], eax
$LN369@ZSTD_compr:

; 487  :     seqStorePtr->sequences[0].matchLength = (U16)mlBase;

	mov	WORD PTR [rcx+6], bp
; File E:\dev\pyzstd\lib\compress\zstd_lazy.c

; 857  :                 ip += matchLength;

	lea	r14, QWORD PTR [rdi+rbx]
; File E:\dev\pyzstd\lib\compress\zstd_compress_internal.h

; 489  :     seqStorePtr->sequences++;

	add	QWORD PTR [rsi+8], 8
; File E:\dev\pyzstd\lib\compress\zstd_lazy.c

; 858  :                 anchor = ip;

	lea	rax, QWORD PTR [r15-8]
	cmp	r14, rax
	mov	ecx, r10d
	mov	eax, r10d
	mov	rbx, r14
	setbe	cl
	test	r13d, r13d
	setne	al
	test	ecx, eax
	jne	$LL14@ZSTD_compr
$LN378@ZSTD_compr:
	mov	DWORD PTR offset_2$1$[rsp], r13d

; 852  :                  && (MEM_read32(ip) == MEM_read32(ip - offset_2)) ) {

	mov	r12, r15
	mov	QWORD PTR src$[rsp], r14
	jmp	SHORT $LN15@ZSTD_compr
$LN379@ZSTD_compr:
	mov	r12, QWORD PTR iend$1$[rsp]
$LN15@ZSTD_compr:

; 690  :     while (ip < ilimit) {

	mov	r9d, DWORD PTR offset_1$1$[rsp]
	lea	rax, QWORD PTR [r12-8]
	cmp	rbx, rax
	jb	$LL4@ZSTD_compr
	mov	eax, DWORD PTR tv2480[rsp]
$LN5@ZSTD_compr:

; 859  :                 continue;   /* faster when present ... (?) */
; 860  :     }   }   }
; 861  : 
; 862  :     /* Save reps for next block */
; 863  :     rep[0] = offset_1 ? offset_1 : savedOffset;

	mov	rdx, QWORD PTR rep$[rsp]
	test	r9d, r9d
	mov	ecx, eax
	cmovne	ecx, r9d

; 864  :     rep[1] = offset_2 ? offset_2 : savedOffset;

	test	r13d, r13d
	cmovne	eax, r13d
	mov	DWORD PTR [rdx], ecx

; 865  : 
; 866  :     /* Return the last literals size */
; 867  :     return (size_t)(iend - anchor);

	sub	r12, r14
	mov	DWORD PTR [rdx+4], eax

; 875  :     return ZSTD_compressBlock_lazy_generic(ms, seqStore, rep, src, srcSize, search_binaryTree, 2, ZSTD_noDict);

	mov	rax, r12

; 876  : }

	add	rsp, 120				; 00000078H
	pop	r15
	pop	r14
	pop	r13
	pop	r12
	pop	rdi
	pop	rsi
	pop	rbp
	pop	rbx
	ret	0
ZSTD_compressBlock_btlazy2 ENDP
_TEXT	ENDS
; Function compile flags: /Ogtpy
; File E:\dev\pyzstd\lib\compress\zstd_lazy.c
; File E:\dev\pyzstd\lib\compress\zstd_compress_internal.h
; File E:\dev\pyzstd\lib\compress\zstd_lazy.c
; File E:\dev\pyzstd\lib\compress\zstd_compress_internal.h
; File E:\dev\pyzstd\lib\compress\zstd_lazy.c
; File E:\dev\pyzstd\lib\compress\zstd_compress_internal.h
; File E:\dev\pyzstd\lib\compress\zstd_lazy.c
; File E:\dev\pyzstd\lib\compress\zstd_compress_internal.h
; File E:\dev\pyzstd\lib\compress\zstd_lazy.c
; File E:\dev\pyzstd\lib\compress\zstd_compress_internal.h
; File E:\dev\pyzstd\lib\compress\zstd_lazy.c
; File E:\dev\pyzstd\lib\compress\zstd_compress_internal.h
; File E:\dev\pyzstd\lib\compress\zstd_lazy.c
; File E:\dev\pyzstd\lib\common\zstd_internal.h
; File E:\dev\pyzstd\lib\compress\zstd_lazy.c
; File E:\dev\pyzstd\lib\common\zstd_internal.h
; File E:\dev\pyzstd\lib\compress\zstd_lazy.c
; File E:\dev\pyzstd\lib\common\zstd_internal.h
; File E:\dev\pyzstd\lib\compress\zstd_lazy.c
; File E:\dev\pyzstd\lib\common\zstd_internal.h
; File E:\dev\pyzstd\lib\compress\zstd_lazy.c
; File E:\dev\pyzstd\lib\common\zstd_internal.h
; File E:\dev\pyzstd\lib\compress\zstd_lazy.c
; File E:\dev\pyzstd\lib\common\zstd_internal.h
; File E:\dev\pyzstd\lib\compress\zstd_lazy.c
; File E:\dev\pyzstd\lib\common\zstd_internal.h
; File E:\dev\pyzstd\lib\compress\zstd_lazy.c
; File E:\dev\pyzstd\lib\common\zstd_internal.h
; File E:\dev\pyzstd\lib\compress\zstd_lazy.c
; File E:\dev\pyzstd\lib\common\zstd_internal.h
; File E:\dev\pyzstd\lib\compress\zstd_lazy.c
; File E:\dev\pyzstd\lib\common\zstd_internal.h
; File E:\dev\pyzstd\lib\compress\zstd_lazy.c
; File E:\dev\pyzstd\lib\common\zstd_internal.h
; File E:\dev\pyzstd\lib\compress\zstd_lazy.c
; File E:\dev\pyzstd\lib\common\zstd_internal.h
; File E:\dev\pyzstd\lib\compress\zstd_lazy.c
; File E:\dev\pyzstd\lib\compress\zstd_compress_internal.h
; File E:\dev\pyzstd\lib\compress\zstd_lazy.c
; File E:\dev\pyzstd\lib\compress\zstd_compress_internal.h
; File E:\dev\pyzstd\lib\compress\zstd_lazy.c
; File E:\dev\pyzstd\lib\compress\zstd_compress_internal.h
; File E:\dev\pyzstd\lib\common\zstd_internal.h
; File E:\dev\pyzstd\lib\compress\zstd_compress_internal.h
; File E:\dev\pyzstd\lib\common\zstd_internal.h
; File E:\dev\pyzstd\lib\compress\zstd_compress_internal.h
; File E:\dev\pyzstd\lib\common\zstd_internal.h
; File E:\dev\pyzstd\lib\compress\zstd_compress_internal.h
; File E:\dev\pyzstd\lib\compress\zstd_lazy.c
; File E:\dev\pyzstd\lib\compress\zstd_compress_internal.h
; File E:\dev\pyzstd\lib\compress\zstd_lazy.c
; File E:\dev\pyzstd\lib\compress\zstd_compress_internal.h
; File E:\dev\pyzstd\lib\compress\zstd_lazy.c
; File E:\dev\pyzstd\lib\compress\zstd_compress_internal.h
; File E:\dev\pyzstd\lib\compress\zstd_lazy.c
; File E:\dev\pyzstd\lib\compress\zstd_compress_internal.h
; File E:\dev\pyzstd\lib\common\zstd_internal.h
; File E:\dev\pyzstd\lib\compress\zstd_compress_internal.h
; File E:\dev\pyzstd\lib\compress\zstd_lazy.c
; File E:\dev\pyzstd\lib\compress\zstd_compress_internal.h
; File E:\dev\pyzstd\lib\compress\zstd_lazy.c
_TEXT	SEGMENT
tv2277 = 32
tv2275 = 32
r$1 = 32
r$2 = 32
r$3 = 32
offset_2$1$ = 36
iend$1$ = 40
tv2278 = 48
r$4 = 48
r$5 = 48
r$6 = 48
tv2480 = 56
offsetFound$7 = 64
offset2$8 = 72
offset2$9 = 80
prefixLowest$1$ = 88
ilimit$1$ = 96
ms$ = 192
seqStore$ = 200
rep$ = 208
src$ = 216
offset_1$1$ = 224
srcSize$ = 224
ZSTD_compressBlock_lazy2 PROC

; 881  : {

$LN382:
	mov	QWORD PTR [rsp+32], r9
	mov	QWORD PTR [rsp+24], r8
	mov	QWORD PTR [rsp+16], rdx
	mov	QWORD PTR [rsp+8], rcx
	push	rbx
	push	rbp
	push	rsi
	push	rdi
	push	r12
	push	r13
	push	r14
	push	r15
	sub	rsp, 120				; 00000078H

; 638  :     const U32 prefixLowestIndex = ms->window.dictLimit;

	mov	r10d, DWORD PTR [rcx+24]

; 881  : {

	mov	r15, rcx

; 644  :     searchMax_f const searchMax = dictMode == ZSTD_dictMatchState ?

	mov	edi, DWORD PTR [r8]

; 881  : {

	mov	r14, r9

; 649  :     U32 offset_1 = rep[0], offset_2 = rep[1], savedOffset=0;

	mov	r11d, DWORD PTR [r8+4]

; 881  : {

	mov	rsi, rdx

; 635  :     const BYTE* const iend = istart + srcSize;

	mov	r12, QWORD PTR srcSize$[rsp]

; 668  :     ip += (dictAndPrefixLength == 0);

	xor	r8d, r8d
	add	r12, r9
	mov	eax, r8d
	mov	r9, QWORD PTR [rcx+8]
; File E:\dev\pyzstd\lib\compress\zstd_compress_internal.h

; 991  :     U32    const maxDistance = 1U << windowLog;

	mov	edx, 1
; File E:\dev\pyzstd\lib\compress\zstd_lazy.c

; 635  :     const BYTE* const iend = istart + srcSize;

	mov	QWORD PTR iend$1$[rsp], r12

; 636  :     const BYTE* const ilimit = iend - 8;

	lea	rbp, QWORD PTR [r12-8]

; 639  :     const BYTE* const prefixLowest = base + prefixLowestIndex;

	lea	rcx, QWORD PTR [r9+r10]
	mov	QWORD PTR ilimit$1$[rsp], rbp

; 668  :     ip += (dictAndPrefixLength == 0);

	cmp	r14d, ecx
	mov	QWORD PTR prefixLowest$1$[rsp], rcx
; File E:\dev\pyzstd\lib\compress\zstd_compress_internal.h

; 991  :     U32    const maxDistance = 1U << windowLog;

	mov	ecx, DWORD PTR [r15+184]
; File E:\dev\pyzstd\lib\compress\zstd_lazy.c

; 668  :     ip += (dictAndPrefixLength == 0);

	sete	al
; File E:\dev\pyzstd\lib\compress\zstd_compress_internal.h

; 991  :     U32    const maxDistance = 1U << windowLog;

	shl	edx, cl
; File E:\dev\pyzstd\lib\compress\zstd_lazy.c

; 668  :     ip += (dictAndPrefixLength == 0);

	lea	rbx, QWORD PTR [rax+r14]

; 669  :     if (dictMode == ZSTD_noDict) {
; 670  :         U32 const current = (U32)(ip - base);

	mov	r8d, ebx
	sub	r8d, r9d
; File E:\dev\pyzstd\lib\compress\zstd_compress_internal.h

; 993  :     U32    const withinWindow = (current - lowestValid > maxDistance) ? current - maxDistance : lowestValid;

	mov	eax, r8d

; 994  :     U32    const isDictionary = (ms->loadedDictEnd != 0);

	mov	ecx, r8d
	sub	eax, r10d
	sub	ecx, edx
	cmp	eax, edx
; File E:\dev\pyzstd\lib\compress\zstd_lazy.c

; 690  :     while (ip < ilimit) {

	mov	eax, edi
; File E:\dev\pyzstd\lib\compress\zstd_compress_internal.h

; 994  :     U32    const isDictionary = (ms->loadedDictEnd != 0);

	cmovbe	ecx, r10d
	cmp	DWORD PTR [r15+32], 0

; 995  :     U32    const matchLowest = isDictionary ? lowestValid : withinWindow;

	cmovne	ecx, r10d
; File E:\dev\pyzstd\lib\compress\zstd_lazy.c

; 674  :         if (offset_1 > maxRep) savedOffset = offset_1, offset_1 = 0;

	xor	r10d, r10d
	sub	r8d, ecx
	mov	r13d, r10d
	cmp	r11d, r8d

; 690  :     while (ip < ilimit) {

	mov	r9d, r10d
	cmovbe	r13d, r11d
	cmovbe	r11d, r10d
	cmp	edi, r8d
	cmovbe	eax, r11d
	cmovbe	r9d, edi
	mov	DWORD PTR tv2480[rsp], eax
	cmp	rbx, rbp
	jae	$LN5@ZSTD_compr
; File E:\dev\pyzstd\lib\compress\zstd_compress_internal.h

; 485  :         seqStorePtr->longLengthPos = (U32)(seqStorePtr->sequences - seqStorePtr->sequencesStart);

	mov	DWORD PTR offset_2$1$[rsp], r13d
	mov	DWORD PTR offset_1$1$[rsp], r9d
	npad	5
$LL4@ZSTD_compr:
; File E:\dev\pyzstd\lib\compress\zstd_lazy.c

; 710  :           && ((offset_1 > 0) & (MEM_read32(ip+1-offset_1) == MEM_read32(ip+1)))) {

	mov	eax, r9d
	lea	r15, QWORD PTR [rbx+1]
	mov	r8d, r10d
	mov	QWORD PTR tv2278[rsp], rax
	mov	ecx, r10d
	mov	rdx, rbx
	sub	rdx, rax
	mov	rdi, r10
	mov	eax, DWORD PTR [r15]
	test	r9d, r9d
	mov	rbp, r10
	setne	r8b
	cmp	DWORD PTR [rdx+1], eax
	mov	DWORD PTR tv2277[rsp], r8d
	sete	cl
	test	ecx, r8d
	je	SHORT $LN24@ZSTD_compr

; 711  :             matchLength = ZSTD_count(ip+1+4, ip+1+4-offset_1, iend) + 4;

	add	rdx, 5
	lea	rcx, QWORD PTR [rbx+5]
	mov	r8, r12
	call	ZSTD_count
	lea	rdi, QWORD PTR [rax+4]
$LN24@ZSTD_compr:

; 712  :             if (depth==0) goto _storeSequence;
; 713  :         }
; 714  : 
; 715  :         /* first search (depth 0) */
; 716  :         {   size_t offsetFound = 999999999;
; 717  :             size_t const ml2 = searchMax(ms, ip, iend, &offsetFound);

	mov	rcx, QWORD PTR ms$[rsp]
	lea	r9, QWORD PTR offsetFound$7[rsp]
	mov	r8, r12
	mov	QWORD PTR offsetFound$7[rsp], 999999999	; 3b9ac9ffH
	mov	rdx, rbx
	call	ZSTD_HcFindBestMatch_selectMLS

; 718  :             if (ml2 > matchLength)

	cmp	rax, rdi
	jbe	SHORT $LN25@ZSTD_compr

; 719  :                 matchLength = ml2, start = ip, offset=offsetFound;

	mov	rbp, QWORD PTR offsetFound$7[rsp]
	mov	rdi, rax
	mov	r15, rbx
$LN25@ZSTD_compr:

; 720  :         }
; 721  : 
; 722  :         if (matchLength < 4) {

	cmp	rdi, 4
	jae	SHORT $LN354@ZSTD_compr

; 723  :             ip += ((ip-anchor) >> kSearchStrength) + 1;   /* jump faster over incompressible sections */

	mov	rax, rbx
	inc	rbx
	sub	rax, r14
	sar	rax, 8
	add	rbx, rax

; 724  :             continue;

	xor	r10d, r10d
	jmp	$LN15@ZSTD_compr
$LN354@ZSTD_compr:

; 725  :         }
; 726  : 
; 727  :         /* let's try to find a better solution */
; 728  :         if (depth>=1)
; 729  :         while (ip<ilimit) {

	lea	rax, QWORD PTR [r12-8]
	cmp	rbx, rax
	jae	$LN40@ZSTD_compr
	mov	rsi, QWORD PTR iend$1$[rsp]
	mov	r13d, DWORD PTR tv2277[rsp]
	mov	r14, QWORD PTR tv2278[rsp]
$LL6@ZSTD_compr:

; 730  :             ip ++;

	inc	rbx

; 731  :             if ( (dictMode == ZSTD_noDict)
; 732  :               && (offset) && ((offset_1>0) & (MEM_read32(ip) == MEM_read32(ip - offset_1)))) {

	test	rbp, rbp
	je	SHORT $LN29@ZSTD_compr
	xor	r12d, r12d
	mov	rdx, rbx
	sub	rdx, r14
	mov	ecx, r12d
	mov	eax, DWORD PTR [rdx]
	cmp	DWORD PTR [rbx], eax
	sete	cl
	test	ecx, r13d
	je	SHORT $LN29@ZSTD_compr

; 733  :                 size_t const mlRep = ZSTD_count(ip+4, ip+4-offset_1, iend) + 4;

	add	rdx, 4
	lea	rcx, QWORD PTR [rbx+4]
	mov	r8, rsi
	call	ZSTD_count
; File E:\dev\pyzstd\lib\common\zstd_internal.h

; 397  :         unsigned long r=0;

	mov	DWORD PTR r$1[rsp], r12d
; File E:\dev\pyzstd\lib\compress\zstd_lazy.c

; 733  :                 size_t const mlRep = ZSTD_count(ip+4, ip+4-offset_1, iend) + 4;

	lea	rdx, QWORD PTR [rax+4]

; 735  :                 int const gain1 = (int)(matchLength*3 - ZSTD_highbit32((U32)offset+1) + 1);

	lea	eax, DWORD PTR [rbp+1]
; File E:\dev\pyzstd\lib\common\zstd_internal.h

; 398  :         return _BitScanReverse(&r, val) ? (unsigned)r : 0;

	bsr	ecx, eax
	mov	eax, r12d
	cmovne	eax, ecx
; File E:\dev\pyzstd\lib\compress\zstd_lazy.c

; 735  :                 int const gain1 = (int)(matchLength*3 - ZSTD_highbit32((U32)offset+1) + 1);

	lea	ecx, DWORD PTR [rdi+rdi*2]
	sub	ecx, eax
	inc	ecx

; 736  :                 if ((mlRep >= 4) && (gain2 > gain1))

	cmp	rdx, 4
	jb	SHORT $LN29@ZSTD_compr
	lea	eax, DWORD PTR [rdx+rdx*2]
	cmp	eax, ecx
	jle	SHORT $LN29@ZSTD_compr

; 737  :                     matchLength = mlRep, offset = 0, start = ip;

	mov	rdi, rdx
	mov	ebp, r12d
	mov	r15, rbx
$LN29@ZSTD_compr:

; 738  :             }
; 739  :             if (dictMode == ZSTD_dictMatchState) {
; 740  :                 const U32 repIndex = (U32)(ip - base) - offset_1;
; 741  :                 const BYTE* repMatch = repIndex < prefixLowestIndex ?
; 742  :                                dictBase + (repIndex - dictIndexDelta) :
; 743  :                                base + repIndex;
; 744  :                 if (((U32)((prefixLowestIndex-1) - repIndex) >= 3 /* intentional underflow */)
; 745  :                     && (MEM_read32(repMatch) == MEM_read32(ip)) ) {
; 746  :                     const BYTE* repMatchEnd = repIndex < prefixLowestIndex ? dictEnd : iend;
; 747  :                     size_t const mlRep = ZSTD_count_2segments(ip+4, repMatch+4, iend, repMatchEnd, prefixLowest) + 4;
; 748  :                     int const gain2 = (int)(mlRep * 3);
; 749  :                     int const gain1 = (int)(matchLength*3 - ZSTD_highbit32((U32)offset+1) + 1);
; 750  :                     if ((mlRep >= 4) && (gain2 > gain1))
; 751  :                         matchLength = mlRep, offset = 0, start = ip;
; 752  :                 }
; 753  :             }
; 754  :             {   size_t offset2=999999999;
; 755  :                 size_t const ml2 = searchMax(ms, ip, iend, &offset2);

	mov	rcx, QWORD PTR ms$[rsp]
	lea	r9, QWORD PTR offset2$8[rsp]
	mov	r8, rsi
	mov	QWORD PTR offset2$8[rsp], 999999999	; 3b9ac9ffH
	mov	rdx, rbx
	call	ZSTD_HcFindBestMatch_selectMLS

; 756  :                 int const gain2 = (int)(ml2*4 - ZSTD_highbit32((U32)offset2+1));   /* raw approx */

	mov	r9, QWORD PTR offset2$8[rsp]

; 757  :                 int const gain1 = (int)(matchLength*4 - ZSTD_highbit32((U32)offset+1) + 4);

	lea	r12d, DWORD PTR [rdi*4]
	mov	rdx, rax
; File E:\dev\pyzstd\lib\common\zstd_internal.h

; 397  :         unsigned long r=0;

	xor	r10d, r10d
	mov	DWORD PTR r$3[rsp], r10d
	mov	DWORD PTR r$2[rsp], r10d
; File E:\dev\pyzstd\lib\compress\zstd_lazy.c

; 756  :                 int const gain2 = (int)(ml2*4 - ZSTD_highbit32((U32)offset2+1));   /* raw approx */

	lea	eax, DWORD PTR [r9+1]
; File E:\dev\pyzstd\lib\common\zstd_internal.h

; 398  :         return _BitScanReverse(&r, val) ? (unsigned)r : 0;

	bsr	ecx, eax
	mov	eax, r10d
; File E:\dev\pyzstd\lib\compress\zstd_lazy.c

; 756  :                 int const gain2 = (int)(ml2*4 - ZSTD_highbit32((U32)offset2+1));   /* raw approx */

	lea	r8d, DWORD PTR [rdx*4]
; File E:\dev\pyzstd\lib\common\zstd_internal.h

; 398  :         return _BitScanReverse(&r, val) ? (unsigned)r : 0;

	cmovne	eax, ecx
	mov	ecx, r10d
; File E:\dev\pyzstd\lib\compress\zstd_lazy.c

; 756  :                 int const gain2 = (int)(ml2*4 - ZSTD_highbit32((U32)offset2+1));   /* raw approx */

	sub	r8d, eax

; 757  :                 int const gain1 = (int)(matchLength*4 - ZSTD_highbit32((U32)offset+1) + 4);

	lea	eax, DWORD PTR [rbp+1]
	mov	DWORD PTR tv2275[rsp], eax
; File E:\dev\pyzstd\lib\common\zstd_internal.h

; 398  :         return _BitScanReverse(&r, val) ? (unsigned)r : 0;

	bsr	eax, eax
	cmovne	ecx, eax
	mov	eax, r12d
	sub	eax, ecx
; File E:\dev\pyzstd\lib\compress\zstd_lazy.c

; 757  :                 int const gain1 = (int)(matchLength*4 - ZSTD_highbit32((U32)offset+1) + 4);

	add	eax, 4

; 758  :                 if ((ml2 >= 4) && (gain2 > gain1)) {

	cmp	rdx, 4
	jb	SHORT $LN33@ZSTD_compr
	cmp	r8d, eax
	jle	SHORT $LN33@ZSTD_compr

; 759  :                     matchLength = ml2, offset = offset2, start = ip;

	mov	rdi, rdx

; 760  :                     continue;   /* search a better one */

	jmp	$LN380@ZSTD_compr
$LN33@ZSTD_compr:

; 761  :             }   }
; 762  : 
; 763  :             /* let's find an even better one */
; 764  :             if ((depth==2) && (ip<ilimit)) {

	lea	rax, QWORD PTR [rsi-8]
	cmp	rbx, rax
	jae	$LN376@ZSTD_compr

; 765  :                 ip ++;

	inc	rbx

; 766  :                 if ( (dictMode == ZSTD_noDict)
; 767  :                   && (offset) && ((offset_1>0) & (MEM_read32(ip) == MEM_read32(ip - offset_1)))) {

	test	rbp, rbp
	je	SHORT $LN36@ZSTD_compr
	mov	ecx, r10d
	mov	rdx, rbx
	sub	rdx, r14
	mov	eax, DWORD PTR [rdx]
	cmp	DWORD PTR [rbx], eax
	sete	cl
	test	ecx, r13d
	je	SHORT $LN36@ZSTD_compr

; 768  :                     size_t const mlRep = ZSTD_count(ip+4, ip+4-offset_1, iend) + 4;

	add	rdx, 4
	lea	rcx, QWORD PTR [rbx+4]
	mov	r8, rsi
	call	ZSTD_count
; File E:\dev\pyzstd\lib\common\zstd_internal.h

; 397  :         unsigned long r=0;

	xor	r8d, r8d

; 398  :         return _BitScanReverse(&r, val) ? (unsigned)r : 0;

	mov	ecx, r8d
	mov	DWORD PTR r$4[rsp], r8d
; File E:\dev\pyzstd\lib\compress\zstd_lazy.c

; 768  :                     size_t const mlRep = ZSTD_count(ip+4, ip+4-offset_1, iend) + 4;

	lea	rdx, QWORD PTR [rax+4]
; File E:\dev\pyzstd\lib\common\zstd_internal.h

; 398  :         return _BitScanReverse(&r, val) ? (unsigned)r : 0;

	bsr	eax, DWORD PTR tv2275[rsp]
	cmovne	ecx, eax
	sub	r12d, ecx
; File E:\dev\pyzstd\lib\compress\zstd_lazy.c

; 770  :                     int const gain1 = (int)(matchLength*4 - ZSTD_highbit32((U32)offset+1) + 1);

	inc	r12d

; 771  :                     if ((mlRep >= 4) && (gain2 > gain1))

	cmp	rdx, 4
	jb	SHORT $LN36@ZSTD_compr
	lea	eax, DWORD PTR [rdx*4]
	cmp	eax, r12d
	jle	SHORT $LN36@ZSTD_compr

; 772  :                         matchLength = mlRep, offset = 0, start = ip;

	mov	rdi, rdx
	mov	ebp, r8d
	mov	r15, rbx
$LN36@ZSTD_compr:

; 773  :                 }
; 774  :                 if (dictMode == ZSTD_dictMatchState) {
; 775  :                     const U32 repIndex = (U32)(ip - base) - offset_1;
; 776  :                     const BYTE* repMatch = repIndex < prefixLowestIndex ?
; 777  :                                    dictBase + (repIndex - dictIndexDelta) :
; 778  :                                    base + repIndex;
; 779  :                     if (((U32)((prefixLowestIndex-1) - repIndex) >= 3 /* intentional underflow */)
; 780  :                         && (MEM_read32(repMatch) == MEM_read32(ip)) ) {
; 781  :                         const BYTE* repMatchEnd = repIndex < prefixLowestIndex ? dictEnd : iend;
; 782  :                         size_t const mlRep = ZSTD_count_2segments(ip+4, repMatch+4, iend, repMatchEnd, prefixLowest) + 4;
; 783  :                         int const gain2 = (int)(mlRep * 4);
; 784  :                         int const gain1 = (int)(matchLength*4 - ZSTD_highbit32((U32)offset+1) + 1);
; 785  :                         if ((mlRep >= 4) && (gain2 > gain1))
; 786  :                             matchLength = mlRep, offset = 0, start = ip;
; 787  :                     }
; 788  :                 }
; 789  :                 {   size_t offset2=999999999;
; 790  :                     size_t const ml2 = searchMax(ms, ip, iend, &offset2);

	mov	rcx, QWORD PTR ms$[rsp]
	lea	r9, QWORD PTR offset2$9[rsp]
	mov	r8, rsi
	mov	QWORD PTR offset2$9[rsp], 999999999	; 3b9ac9ffH
	mov	rdx, rbx
	call	ZSTD_HcFindBestMatch_selectMLS

; 791  :                     int const gain2 = (int)(ml2*4 - ZSTD_highbit32((U32)offset2+1));   /* raw approx */

	mov	r9, QWORD PTR offset2$9[rsp]
	mov	r8, rax
; File E:\dev\pyzstd\lib\common\zstd_internal.h

; 397  :         unsigned long r=0;

	xor	r10d, r10d
	mov	DWORD PTR r$5[rsp], r10d
	mov	DWORD PTR r$6[rsp], r10d
; File E:\dev\pyzstd\lib\compress\zstd_lazy.c

; 791  :                     int const gain2 = (int)(ml2*4 - ZSTD_highbit32((U32)offset2+1));   /* raw approx */

	lea	eax, DWORD PTR [r9+1]
; File E:\dev\pyzstd\lib\common\zstd_internal.h

; 398  :         return _BitScanReverse(&r, val) ? (unsigned)r : 0;

	bsr	ecx, eax
	mov	eax, r10d
; File E:\dev\pyzstd\lib\compress\zstd_lazy.c

; 791  :                     int const gain2 = (int)(ml2*4 - ZSTD_highbit32((U32)offset2+1));   /* raw approx */

	lea	edx, DWORD PTR [r8*4]
; File E:\dev\pyzstd\lib\common\zstd_internal.h

; 398  :         return _BitScanReverse(&r, val) ? (unsigned)r : 0;

	cmovne	eax, ecx
; File E:\dev\pyzstd\lib\compress\zstd_lazy.c

; 791  :                     int const gain2 = (int)(ml2*4 - ZSTD_highbit32((U32)offset2+1));   /* raw approx */

	sub	edx, eax

; 792  :                     int const gain1 = (int)(matchLength*4 - ZSTD_highbit32((U32)offset+1) + 7);

	lea	eax, DWORD PTR [rbp+1]
; File E:\dev\pyzstd\lib\common\zstd_internal.h

; 398  :         return _BitScanReverse(&r, val) ? (unsigned)r : 0;

	bsr	ecx, eax
	mov	eax, r10d
	cmovne	eax, ecx
; File E:\dev\pyzstd\lib\compress\zstd_lazy.c

; 792  :                     int const gain1 = (int)(matchLength*4 - ZSTD_highbit32((U32)offset+1) + 7);

	lea	ecx, DWORD PTR [rdi*4]
	sub	ecx, eax
	add	ecx, 7

; 793  :                     if ((ml2 >= 4) && (gain2 > gain1)) {

	cmp	r8, 4
	jb	SHORT $LN376@ZSTD_compr
	cmp	edx, ecx
	jle	SHORT $LN376@ZSTD_compr

; 794  :                         matchLength = ml2, offset = offset2, start = ip;

	mov	rdi, r8
$LN380@ZSTD_compr:

; 725  :         }
; 726  : 
; 727  :         /* let's try to find a better solution */
; 728  :         if (depth>=1)
; 729  :         while (ip<ilimit) {

	lea	rax, QWORD PTR [rsi-8]
	mov	r15, rbx
	mov	rbp, r9
	cmp	rbx, rax
	jb	$LL6@ZSTD_compr
$LN376@ZSTD_compr:
	mov	rsi, QWORD PTR seqStore$[rsp]
	mov	r14, QWORD PTR src$[rsp]
	mov	r13d, DWORD PTR offset_2$1$[rsp]
	mov	r12, QWORD PTR iend$1$[rsp]
$LN40@ZSTD_compr:

; 795  :                         continue;
; 796  :             }   }   }
; 797  :             break;  /* nothing found : store previous solution */
; 798  :         }
; 799  : 
; 800  :         /* NOTE:
; 801  :          * start[-offset+ZSTD_REP_MOVE-1] is undefined behavior.
; 802  :          * (-offset+ZSTD_REP_MOVE-1) is unsigned, and is added to start, which
; 803  :          * overflows the pointer, which is undefined behavior.
; 804  :          */
; 805  :         /* catch up */
; 806  :         if (offset) {

	test	rbp, rbp
	je	SHORT $_storeSequence$383

; 807  :             if (dictMode == ZSTD_noDict) {
; 808  :                 while ( ((start > anchor) & (start - (offset-ZSTD_REP_MOVE) > prefixLowest))
; 809  :                      && (start[-1] == (start-(offset-ZSTD_REP_MOVE))[-1]) )  /* only search for offset within prefix */

	mov	r8, QWORD PTR prefixLowest$1$[rsp]
	xor	r9d, r9d
	mov	ecx, r9d
	mov	eax, r9d
	mov	rdx, r15
	sub	rdx, rbp
	add	rdx, 2
	cmp	rdx, r8
	seta	cl
	cmp	r15, r14
	seta	al
	test	ecx, eax
	je	SHORT $LN377@ZSTD_compr
	npad	7
$LL8@ZSTD_compr:
	movzx	eax, BYTE PTR [rdx-1]
	cmp	BYTE PTR [rdx+rbp-3], al
	jne	SHORT $LN377@ZSTD_compr

; 810  :                     { start--; matchLength++; }

	dec	r15
	dec	rdx
	inc	rdi
	mov	ecx, r9d
	cmp	rdx, r8
	mov	eax, r9d
	seta	cl
	cmp	r15, r14
	seta	al
	test	ecx, eax
	jne	SHORT $LL8@ZSTD_compr
$LN377@ZSTD_compr:

; 811  :             }
; 812  :             if (dictMode == ZSTD_dictMatchState) {
; 813  :                 U32 const matchIndex = (U32)((start-base) - (offset - ZSTD_REP_MOVE));
; 814  :                 const BYTE* match = (matchIndex < prefixLowestIndex) ? dictBase + matchIndex - dictIndexDelta : base + matchIndex;
; 815  :                 const BYTE* const mStart = (matchIndex < prefixLowestIndex) ? dictLowest : prefixLowest;
; 816  :                 while ((start>anchor) && (match>mStart) && (start[-1] == match[-1])) { start--; match--; matchLength++; }  /* catch up */
; 817  :             }
; 818  :             offset_2 = offset_1; offset_1 = (U32)(offset - ZSTD_REP_MOVE);

	mov	r13d, DWORD PTR offset_1$1$[rsp]
	lea	eax, DWORD PTR [rbp-2]
	mov	DWORD PTR offset_1$1$[rsp], eax
	mov	DWORD PTR offset_2$1$[rsp], r13d
$_storeSequence$383:
; File E:\dev\pyzstd\lib\compress\zstd_compress_internal.h

; 442  :     BYTE const* const litEnd = literals + litLength;

	mov	rcx, QWORD PTR [rsi+24]
; File E:\dev\pyzstd\lib\compress\zstd_lazy.c

; 823  :             ZSTD_storeSeq(seqStore, litLength, anchor, iend, (U32)offset, matchLength-MINMATCH);

	lea	rdx, QWORD PTR [rdi-3]
	mov	rbx, r15
; File E:\dev\pyzstd\lib\compress\zstd_compress_internal.h

; 441  :     BYTE const* const litLimit_w = litLimit - WILDCOPY_OVERLENGTH;

	add	r12, -32				; ffffffffffffffe0H
; File E:\dev\pyzstd\lib\compress\zstd_lazy.c

; 822  :         {   size_t const litLength = start - anchor;

	sub	rbx, r14
; File E:\dev\pyzstd\lib\compress\zstd_compress_internal.h

; 442  :     BYTE const* const litEnd = literals + litLength;

	lea	r8, QWORD PTR [rbx+r14]

; 456  :     if (litEnd <= litLimit_w) {

	cmp	r8, r12
	ja	SHORT $LN222@ZSTD_compr
; File E:\dev\pyzstd\lib\common\zstd_internal.h

; 243  :     memcpy(dst, src, 16);

	movups	xmm0, XMMWORD PTR [r14]
	movups	XMMWORD PTR [rcx], xmm0
; File E:\dev\pyzstd\lib\compress\zstd_compress_internal.h

; 462  :         if (litLength > 16) {

	cmp	rbx, 16
	jbe	SHORT $LN223@ZSTD_compr

; 463  :             ZSTD_wildcopy(seqStorePtr->lit+16, literals+16, (ptrdiff_t)litLength-16, ZSTD_no_overlap);

	mov	rax, QWORD PTR [rsi+24]
; File E:\dev\pyzstd\lib\common\zstd_internal.h

; 270  :     BYTE* const oend = op + length;

	lea	rcx, QWORD PTR [rbx-16]
; File E:\dev\pyzstd\lib\compress\zstd_compress_internal.h

; 463  :             ZSTD_wildcopy(seqStorePtr->lit+16, literals+16, (ptrdiff_t)litLength-16, ZSTD_no_overlap);

	add	rax, 16
	add	r14, 16
; File E:\dev\pyzstd\lib\common\zstd_internal.h

; 270  :     BYTE* const oend = op + length;

	add	rcx, rax
	npad	5
$LL236@ZSTD_compr:

; 243  :     memcpy(dst, src, 16);

	movups	xmm0, XMMWORD PTR [r14]

; 289  :             COPY16(op, ip);

	lea	r14, QWORD PTR [r14+16]

; 243  :     memcpy(dst, src, 16);

	movups	XMMWORD PTR [rax], xmm0

; 289  :             COPY16(op, ip);

	add	rax, 16

; 290  :         }
; 291  :         while (op < oend);

	cmp	rax, rcx
	jb	SHORT $LL236@ZSTD_compr
; File E:\dev\pyzstd\lib\compress\zstd_compress_internal.h

; 465  :     } else {

	jmp	SHORT $LN223@ZSTD_compr
$LN222@ZSTD_compr:

; 466  :         ZSTD_safecopyLiterals(seqStorePtr->lit, literals, litEnd, litLimit_w);

	mov	r9, r12
	mov	rdx, r14
	call	ZSTD_safecopyLiterals
	lea	rdx, QWORD PTR [rdi-3]
$LN223@ZSTD_compr:

; 467  :     }
; 468  :     seqStorePtr->lit += litLength;

	add	QWORD PTR [rsi+24], rbx

; 469  : 
; 470  :     /* literal Length */
; 471  :     if (litLength>0xFFFF) {

	mov	rcx, QWORD PTR [rsi+8]
	cmp	rbx, 65535				; 0000ffffH
	jbe	SHORT $LN225@ZSTD_compr

; 472  :         assert(seqStorePtr->longLengthID == 0); /* there can only be a single long length */
; 473  :         seqStorePtr->longLengthID = 1;
; 474  :         seqStorePtr->longLengthPos = (U32)(seqStorePtr->sequences - seqStorePtr->sequencesStart);

	mov	rax, rcx
	mov	DWORD PTR [rsi+72], 1
	sub	rax, QWORD PTR [rsi]
	sar	rax, 3
	mov	DWORD PTR [rsi+76], eax
$LN225@ZSTD_compr:

; 475  :     }
; 476  :     seqStorePtr->sequences[0].litLength = (U16)litLength;

	mov	WORD PTR [rcx+4], bx

; 477  : 
; 478  :     /* match offset */
; 479  :     seqStorePtr->sequences[0].offset = offCode + 1;

	lea	ecx, DWORD PTR [rbp+1]
	mov	rax, QWORD PTR [rsi+8]
	mov	DWORD PTR [rax], ecx
	mov	rcx, QWORD PTR [rsi+8]

; 480  : 
; 481  :     /* match Length */
; 482  :     if (mlBase>0xFFFF) {

	cmp	rdx, 65535				; 0000ffffH
	jbe	SHORT $LN368@ZSTD_compr

; 485  :         seqStorePtr->longLengthPos = (U32)(seqStorePtr->sequences - seqStorePtr->sequencesStart);

	mov	rax, rcx
	mov	DWORD PTR [rsi+72], 2
	sub	rax, QWORD PTR [rsi]
	sar	rax, 3
	mov	DWORD PTR [rsi+76], eax
$LN368@ZSTD_compr:
; File E:\dev\pyzstd\lib\compress\zstd_lazy.c

; 852  :                  && (MEM_read32(ip) == MEM_read32(ip - offset_2)) ) {

	xor	r10d, r10d
; File E:\dev\pyzstd\lib\compress\zstd_compress_internal.h

; 487  :     seqStorePtr->sequences[0].matchLength = (U16)mlBase;

	mov	WORD PTR [rcx+6], dx

; 489  :     seqStorePtr->sequences++;

	add	QWORD PTR [rsi+8], 8
; File E:\dev\pyzstd\lib\compress\zstd_lazy.c

; 824  :             anchor = ip = start + matchLength;

	lea	r14, QWORD PTR [r15+rdi]
	cmp	r14, QWORD PTR ilimit$1$[rsp]

; 852  :                  && (MEM_read32(ip) == MEM_read32(ip - offset_2)) ) {

	mov	ecx, r10d
	mov	eax, r10d
	mov	QWORD PTR src$[rsp], r14
	setbe	cl
	mov	rbx, r14
	test	r13d, r13d
	setne	al
	test	ecx, eax
	je	$LN379@ZSTD_compr
	mov	r15, QWORD PTR iend$1$[rsp]
; File E:\dev\pyzstd\lib\compress\zstd_compress_internal.h

; 485  :         seqStorePtr->longLengthPos = (U32)(seqStorePtr->sequences - seqStorePtr->sequencesStart);

	mov	QWORD PTR src$[rsp], r14
	npad	4
$LL14@ZSTD_compr:
; File E:\dev\pyzstd\lib\compress\zstd_lazy.c

; 852  :                  && (MEM_read32(ip) == MEM_read32(ip - offset_2)) ) {

	mov	eax, r13d
	mov	rdx, rbx
	sub	rdx, rax
	mov	ebp, r13d
	mov	eax, DWORD PTR [rdx]
	cmp	DWORD PTR [rbx], eax
	jne	$LN378@ZSTD_compr

; 853  :                 /* store sequence */
; 854  :                 matchLength = ZSTD_count(ip+4, ip+4-offset_2, iend) + 4;

	add	rdx, 4
	lea	rcx, QWORD PTR [rbx+4]
	mov	r8, r15
	call	ZSTD_count

; 855  :                 offset = offset_2; offset_2 = offset_1; offset_1 = (U32)offset; /* swap repcodes */

	mov	r13d, DWORD PTR offset_1$1$[rsp]
; File E:\dev\pyzstd\lib\compress\zstd_compress_internal.h

; 442  :     BYTE const* const litEnd = literals + litLength;

	mov	rcx, QWORD PTR [rsi+24]
; File E:\dev\pyzstd\lib\compress\zstd_lazy.c

; 855  :                 offset = offset_2; offset_2 = offset_1; offset_1 = (U32)offset; /* swap repcodes */

	mov	DWORD PTR offset_1$1$[rsp], ebp
	lea	rdi, QWORD PTR [rax+4]

; 856  :                 ZSTD_storeSeq(seqStore, 0, anchor, iend, 0, matchLength-MINMATCH);

	lea	rbp, QWORD PTR [rdi-3]
; File E:\dev\pyzstd\lib\compress\zstd_compress_internal.h

; 456  :     if (litEnd <= litLimit_w) {

	cmp	r14, r12
	ja	SHORT $LN310@ZSTD_compr
; File E:\dev\pyzstd\lib\common\zstd_internal.h

; 243  :     memcpy(dst, src, 16);

	movups	xmm0, XMMWORD PTR [r14]
	movups	XMMWORD PTR [rcx], xmm0
; File E:\dev\pyzstd\lib\compress\zstd_compress_internal.h

; 465  :     } else {

	jmp	SHORT $LN311@ZSTD_compr
$LN310@ZSTD_compr:

; 466  :         ZSTD_safecopyLiterals(seqStorePtr->lit, literals, litEnd, litLimit_w);

	mov	r9, r12
	mov	r8, r14
	mov	rdx, r14
	call	ZSTD_safecopyLiterals
$LN311@ZSTD_compr:

; 475  :     }
; 476  :     seqStorePtr->sequences[0].litLength = (U16)litLength;

	mov	rax, QWORD PTR [rsi+8]
	xor	r10d, r10d
	mov	WORD PTR [rax+4], r10w

; 477  : 
; 478  :     /* match offset */
; 479  :     seqStorePtr->sequences[0].offset = offCode + 1;

	mov	rax, QWORD PTR [rsi+8]
	mov	DWORD PTR [rax], 1
	mov	rcx, QWORD PTR [rsi+8]

; 480  : 
; 481  :     /* match Length */
; 482  :     if (mlBase>0xFFFF) {

	cmp	rbp, 65535				; 0000ffffH
	jbe	SHORT $LN369@ZSTD_compr

; 485  :         seqStorePtr->longLengthPos = (U32)(seqStorePtr->sequences - seqStorePtr->sequencesStart);

	mov	rax, rcx
	mov	DWORD PTR [rsi+72], 2
	sub	rax, QWORD PTR [rsi]
	sar	rax, 3
	mov	DWORD PTR [rsi+76], eax
$LN369@ZSTD_compr:

; 487  :     seqStorePtr->sequences[0].matchLength = (U16)mlBase;

	mov	WORD PTR [rcx+6], bp
; File E:\dev\pyzstd\lib\compress\zstd_lazy.c

; 857  :                 ip += matchLength;

	lea	r14, QWORD PTR [rdi+rbx]
; File E:\dev\pyzstd\lib\compress\zstd_compress_internal.h

; 489  :     seqStorePtr->sequences++;

	add	QWORD PTR [rsi+8], 8
; File E:\dev\pyzstd\lib\compress\zstd_lazy.c

; 858  :                 anchor = ip;

	lea	rax, QWORD PTR [r15-8]
	cmp	r14, rax
	mov	ecx, r10d
	mov	eax, r10d
	mov	rbx, r14
	setbe	cl
	test	r13d, r13d
	setne	al
	test	ecx, eax
	jne	$LL14@ZSTD_compr
$LN378@ZSTD_compr:
	mov	DWORD PTR offset_2$1$[rsp], r13d

; 852  :                  && (MEM_read32(ip) == MEM_read32(ip - offset_2)) ) {

	mov	r12, r15
	mov	QWORD PTR src$[rsp], r14
	jmp	SHORT $LN15@ZSTD_compr
$LN379@ZSTD_compr:
	mov	r12, QWORD PTR iend$1$[rsp]
$LN15@ZSTD_compr:

; 690  :     while (ip < ilimit) {

	mov	r9d, DWORD PTR offset_1$1$[rsp]
	lea	rax, QWORD PTR [r12-8]
	cmp	rbx, rax
	jb	$LL4@ZSTD_compr
	mov	eax, DWORD PTR tv2480[rsp]
$LN5@ZSTD_compr:

; 859  :                 continue;   /* faster when present ... (?) */
; 860  :     }   }   }
; 861  : 
; 862  :     /* Save reps for next block */
; 863  :     rep[0] = offset_1 ? offset_1 : savedOffset;

	mov	rdx, QWORD PTR rep$[rsp]
	test	r9d, r9d
	mov	ecx, eax
	cmovne	ecx, r9d

; 864  :     rep[1] = offset_2 ? offset_2 : savedOffset;

	test	r13d, r13d
	cmovne	eax, r13d
	mov	DWORD PTR [rdx], ecx

; 865  : 
; 866  :     /* Return the last literals size */
; 867  :     return (size_t)(iend - anchor);

	sub	r12, r14
	mov	DWORD PTR [rdx+4], eax

; 882  :     return ZSTD_compressBlock_lazy_generic(ms, seqStore, rep, src, srcSize, search_hashChain, 2, ZSTD_noDict);

	mov	rax, r12

; 883  : }

	add	rsp, 120				; 00000078H
	pop	r15
	pop	r14
	pop	r13
	pop	r12
	pop	rdi
	pop	rsi
	pop	rbp
	pop	rbx
	ret	0
ZSTD_compressBlock_lazy2 ENDP
_TEXT	ENDS
; Function compile flags: /Ogtpy
; File E:\dev\pyzstd\lib\compress\zstd_lazy.c
; File E:\dev\pyzstd\lib\compress\zstd_compress_internal.h
; File E:\dev\pyzstd\lib\compress\zstd_lazy.c
; File E:\dev\pyzstd\lib\compress\zstd_compress_internal.h
; File E:\dev\pyzstd\lib\compress\zstd_lazy.c
; File E:\dev\pyzstd\lib\compress\zstd_compress_internal.h
; File E:\dev\pyzstd\lib\compress\zstd_lazy.c
; File E:\dev\pyzstd\lib\compress\zstd_compress_internal.h
; File E:\dev\pyzstd\lib\compress\zstd_lazy.c
; File E:\dev\pyzstd\lib\compress\zstd_compress_internal.h
; File E:\dev\pyzstd\lib\compress\zstd_lazy.c
; File E:\dev\pyzstd\lib\common\zstd_internal.h
; File E:\dev\pyzstd\lib\compress\zstd_lazy.c
; File E:\dev\pyzstd\lib\common\zstd_internal.h
; File E:\dev\pyzstd\lib\compress\zstd_lazy.c
; File E:\dev\pyzstd\lib\common\zstd_internal.h
; File E:\dev\pyzstd\lib\compress\zstd_lazy.c
; File E:\dev\pyzstd\lib\common\zstd_internal.h
; File E:\dev\pyzstd\lib\compress\zstd_lazy.c
; File E:\dev\pyzstd\lib\common\zstd_internal.h
; File E:\dev\pyzstd\lib\compress\zstd_lazy.c
; File E:\dev\pyzstd\lib\common\zstd_internal.h
; File E:\dev\pyzstd\lib\compress\zstd_lazy.c
; File E:\dev\pyzstd\lib\common\zstd_internal.h
; File E:\dev\pyzstd\lib\compress\zstd_lazy.c
; File E:\dev\pyzstd\lib\compress\zstd_compress_internal.h
; File E:\dev\pyzstd\lib\compress\zstd_lazy.c
; File E:\dev\pyzstd\lib\compress\zstd_compress_internal.h
; File E:\dev\pyzstd\lib\compress\zstd_lazy.c
; File E:\dev\pyzstd\lib\common\zstd_internal.h
; File E:\dev\pyzstd\lib\compress\zstd_lazy.c
; File E:\dev\pyzstd\lib\common\zstd_internal.h
; File E:\dev\pyzstd\lib\compress\zstd_lazy.c
; File E:\dev\pyzstd\lib\common\zstd_internal.h
; File E:\dev\pyzstd\lib\compress\zstd_lazy.c
; File E:\dev\pyzstd\lib\common\zstd_internal.h
; File E:\dev\pyzstd\lib\compress\zstd_lazy.c
; File E:\dev\pyzstd\lib\compress\zstd_compress_internal.h
; File E:\dev\pyzstd\lib\compress\zstd_lazy.c
; File E:\dev\pyzstd\lib\compress\zstd_compress_internal.h
; File E:\dev\pyzstd\lib\compress\zstd_lazy.c
; File E:\dev\pyzstd\lib\compress\zstd_compress_internal.h
; File E:\dev\pyzstd\lib\common\zstd_internal.h
; File E:\dev\pyzstd\lib\compress\zstd_compress_internal.h
; File E:\dev\pyzstd\lib\common\zstd_internal.h
; File E:\dev\pyzstd\lib\compress\zstd_compress_internal.h
; File E:\dev\pyzstd\lib\common\zstd_internal.h
; File E:\dev\pyzstd\lib\compress\zstd_compress_internal.h
; File E:\dev\pyzstd\lib\compress\zstd_lazy.c
; File E:\dev\pyzstd\lib\compress\zstd_compress_internal.h
; File E:\dev\pyzstd\lib\compress\zstd_lazy.c
; File E:\dev\pyzstd\lib\compress\zstd_compress_internal.h
; File E:\dev\pyzstd\lib\compress\zstd_lazy.c
; File E:\dev\pyzstd\lib\compress\zstd_compress_internal.h
; File E:\dev\pyzstd\lib\compress\zstd_lazy.c
; File E:\dev\pyzstd\lib\compress\zstd_compress_internal.h
; File E:\dev\pyzstd\lib\compress\zstd_lazy.c
; File E:\dev\pyzstd\lib\compress\zstd_compress_internal.h
; File E:\dev\pyzstd\lib\compress\zstd_lazy.c
; File E:\dev\pyzstd\lib\compress\zstd_compress_internal.h
; File E:\dev\pyzstd\lib\compress\zstd_lazy.c
; File E:\dev\pyzstd\lib\compress\zstd_compress_internal.h
; File E:\dev\pyzstd\lib\compress\zstd_lazy.c
; File E:\dev\pyzstd\lib\compress\zstd_compress_internal.h
; File E:\dev\pyzstd\lib\common\zstd_internal.h
; File E:\dev\pyzstd\lib\compress\zstd_compress_internal.h
; File E:\dev\pyzstd\lib\compress\zstd_lazy.c
; File E:\dev\pyzstd\lib\compress\zstd_compress_internal.h
; File E:\dev\pyzstd\lib\compress\zstd_lazy.c
_TEXT	SEGMENT
iend$1$ = 32
offset_1$1$ = 40
offset_2$1$ = 44
dictIndexDelta$1$ = 48
tv2467 = 52
r$1 = 52
r$2 = 52
r$3 = 52
offset$1$ = 56
prefixLowest$1$ = 72
base$1$ = 80
dictBase$1$ = 88
dictEnd$1$ = 96
offsetFound$4 = 104
ilimit$1$ = 112
offset2$5 = 120
offset2$6 = 128
dictLowest$1$ = 136
ms$ = 224
seqStore$ = 232
rep$ = 240
src$ = 248
prefixLowestIndex$1$ = 256
srcSize$ = 256
ZSTD_compressBlock_btlazy2_dictMatchState PROC

; 902  : {

$LN389:
	mov	QWORD PTR [rsp+32], r9
	mov	QWORD PTR [rsp+24], r8
	mov	QWORD PTR [rsp+16], rdx
	mov	QWORD PTR [rsp+8], rcx
	push	rbx
	push	rbp
	push	rsi
	push	rdi
	push	r13
	push	r14
	push	r15
	sub	rsp, 160				; 000000a0H
	mov	r10, rcx
	mov	r14, r8
	mov	r13, r9
	mov	r15, rdx

; 635  :     const BYTE* const iend = istart + srcSize;

	mov	rdx, QWORD PTR srcSize$[rsp]
	add	rdx, r9

; 636  :     const BYTE* const ilimit = iend - 8;
; 637  :     const BYTE* const base = ms->window.base;
; 638  :     const U32 prefixLowestIndex = ms->window.dictLimit;
; 639  :     const BYTE* const prefixLowest = base + prefixLowestIndex;
; 640  : 
; 641  :     typedef size_t (*searchMax_f)(
; 642  :                         ZSTD_matchState_t* ms,
; 643  :                         const BYTE* ip, const BYTE* iLimit, size_t* offsetPtr);
; 644  :     searchMax_f const searchMax = dictMode == ZSTD_dictMatchState ?
; 645  :         (searchMethod==search_binaryTree ? ZSTD_BtFindBestMatch_dictMatchState_selectMLS
; 646  :                                          : ZSTD_HcFindBestMatch_dictMatchState_selectMLS) :
; 647  :         (searchMethod==search_binaryTree ? ZSTD_BtFindBestMatch_selectMLS
; 648  :                                          : ZSTD_HcFindBestMatch_selectMLS);
; 649  :     U32 offset_1 = rep[0], offset_2 = rep[1], savedOffset=0;
; 650  : 
; 651  :     const ZSTD_matchState_t* const dms = ms->dictMatchState;

	mov	rax, QWORD PTR [r10+176]
	mov	r8, QWORD PTR [r10+8]
	mov	esi, DWORD PTR [r10+24]
	mov	r9d, DWORD PTR [r14]
	lea	rcx, QWORD PTR [rdx-8]

; 652  :     const U32 dictLowestIndex      = dictMode == ZSTD_dictMatchState ?
; 653  :                                      dms->window.dictLimit : 0;
; 654  :     const BYTE* const dictBase     = dictMode == ZSTD_dictMatchState ?

	mov	r11, QWORD PTR [rax+8]

; 655  :                                      dms->window.base : NULL;
; 656  :     const BYTE* const dictLowest   = dictMode == ZSTD_dictMatchState ?

	mov	edi, DWORD PTR [rax+24]

; 657  :                                      dictBase + dictLowestIndex : NULL;
; 658  :     const BYTE* const dictEnd      = dictMode == ZSTD_dictMatchState ?
; 659  :                                      dms->window.nextSrc : NULL;
; 660  :     const U32 dictIndexDelta       = dictMode == ZSTD_dictMatchState ?

	mov	r10d, r11d
	mov	rax, QWORD PTR [rax]
	lea	rbx, QWORD PTR [r8+rsi]
	mov	ebp, DWORD PTR [r14+4]
	sub	r10d, eax
	add	rdi, r11
	mov	QWORD PTR dictEnd$1$[rsp], rax

; 661  :                                      prefixLowestIndex - (U32)(dictEnd - dictBase) :
; 662  :                                      0;
; 663  :     const U32 dictAndPrefixLength = (U32)((ip - prefixLowest) + (dictEnd - dictLowest));
; 664  : 
; 665  :     DEBUGLOG(5, "ZSTD_compressBlock_lazy_generic (dictMode=%u)", (U32)dictMode);
; 666  : 
; 667  :     /* init */
; 668  :     ip += (dictAndPrefixLength == 0);

	sub	eax, edi
	mov	QWORD PTR dictLowest$1$[rsp], rdi
	sub	eax, ebx
	mov	QWORD PTR prefixLowest$1$[rsp], rbx
	add	r10d, esi
	mov	QWORD PTR iend$1$[rsp], rdx
	add	eax, r13d
	mov	QWORD PTR ilimit$1$[rsp], rcx
	mov	edi, 0
	mov	QWORD PTR base$1$[rsp], r8
	mov	eax, edi
	mov	DWORD PTR prefixLowestIndex$1$[rsp], esi
	sete	al
	mov	DWORD PTR offset_1$1$[rsp], r9d
	mov	DWORD PTR offset_2$1$[rsp], ebp
	mov	QWORD PTR dictBase$1$[rsp], r11
	mov	DWORD PTR dictIndexDelta$1$[rsp], r10d
	lea	rbx, QWORD PTR [rax+r13]
	cmp	rbx, rcx

; 669  :     if (dictMode == ZSTD_noDict) {
; 670  :         U32 const current = (U32)(ip - base);
; 671  :         U32 const windowLow = ZSTD_getLowestPrefixIndex(ms, current, ms->cParams.windowLog);
; 672  :         U32 const maxRep = current - windowLow;
; 673  :         if (offset_2 > maxRep) savedOffset = offset_2, offset_2 = 0;
; 674  :         if (offset_1 > maxRep) savedOffset = offset_1, offset_1 = 0;
; 675  :     }
; 676  :     if (dictMode == ZSTD_dictMatchState) {
; 677  :         /* dictMatchState repCode checks don't currently handle repCode == 0
; 678  :          * disabling. */
; 679  :         assert(offset_1 <= dictAndPrefixLength);
; 680  :         assert(offset_2 <= dictAndPrefixLength);
; 681  :     }
; 682  : 
; 683  :     /* Match Loop */
; 684  : #if defined(__GNUC__) && defined(__x86_64__)
; 685  :     /* I've measured random a 5% speed loss on levels 5 & 6 (greedy) when the
; 686  :      * code alignment is perturbed. To fix the instability align the loop on 32-bytes.
; 687  :      */
; 688  :     __asm__(".p2align 5");
; 689  : #endif
; 690  :     while (ip < ilimit) {

	jae	$LN5@ZSTD_compr
	mov	QWORD PTR [rsp+152], r12
$LL4@ZSTD_compr:

; 691  :         size_t matchLength=0;
; 692  :         size_t offset=0;
; 693  :         const BYTE* start=ip+1;
; 694  : 
; 695  :         /* check repCode */
; 696  :         if (dictMode == ZSTD_dictMatchState) {
; 697  :             const U32 repIndex = (U32)(ip - base) + 1 - offset_1;

	mov	ecx, ebx
	mov	QWORD PTR offset$1$[rsp], rdi
	sub	ecx, r8d
	lea	r12, QWORD PTR [rbx+1]
	sub	ecx, r9d
	mov	rbp, rdi
	inc	ecx
	mov	r14, rdi

; 698  :             const BYTE* repMatch = (dictMode == ZSTD_dictMatchState

	cmp	ecx, esi
	jae	SHORT $LN60@ZSTD_compr
	mov	edi, ecx
	sub	edi, r10d
	add	rdi, r11
	jmp	SHORT $LN61@ZSTD_compr
$LN60@ZSTD_compr:
	mov	edi, ecx
	add	rdi, r8
$LN61@ZSTD_compr:

; 699  :                                 && repIndex < prefixLowestIndex) ?
; 700  :                                    dictBase + (repIndex - dictIndexDelta) :
; 701  :                                    base + repIndex;
; 702  :             if (((U32)((prefixLowestIndex-1) - repIndex) >= 3 /* intentional underflow */)
; 703  :                 && (MEM_read32(repMatch) == MEM_read32(ip+1)) ) {

	mov	eax, esi
	sub	eax, ecx
	dec	eax
	cmp	eax, 3
	jb	SHORT $LN22@ZSTD_compr
	mov	eax, DWORD PTR [r12]
	cmp	DWORD PTR [rdi], eax
	jne	SHORT $LN22@ZSTD_compr

; 704  :                 const BYTE* repMatchEnd = repIndex < prefixLowestIndex ? dictEnd : iend;

	cmp	ecx, DWORD PTR prefixLowestIndex$1$[rsp]
	mov	rsi, rdx
; File E:\dev\pyzstd\lib\compress\zstd_compress_internal.h

; 590  :     const BYTE* const vEnd = MIN( ip + (mEnd - match), iEnd);

	mov	r8, rdx
	lea	rcx, QWORD PTR [rbx+5]
; File E:\dev\pyzstd\lib\compress\zstd_lazy.c

; 704  :                 const BYTE* repMatchEnd = repIndex < prefixLowestIndex ? dictEnd : iend;

	cmovb	rsi, QWORD PTR dictEnd$1$[rsp]

; 705  :                 matchLength = ZSTD_count_2segments(ip+1+4, repMatch+4, iend, repMatchEnd, prefixLowest) + 4;

	add	rdi, 4
; File E:\dev\pyzstd\lib\compress\zstd_compress_internal.h

; 590  :     const BYTE* const vEnd = MIN( ip + (mEnd - match), iEnd);

	sub	rcx, rdi
	add	rcx, rsi
	cmp	rcx, rdx

; 591  :     size_t const matchLength = ZSTD_count(ip, match, vEnd);

	mov	rdx, rdi
	cmovb	r8, rcx
	lea	rcx, QWORD PTR [rbx+5]
	call	ZSTD_count
	mov	rbp, rax

; 592  :     if (match + matchLength != mEnd) return matchLength;

	add	rax, rdi
	cmp	rax, rsi
	jne	SHORT $LN83@ZSTD_compr

; 593  :     DEBUGLOG(7, "ZSTD_count_2segments: found a 2-parts match (current length==%zu)", matchLength);
; 594  :     DEBUGLOG(7, "distance from match beginning to end dictionary = %zi", mEnd - match);
; 595  :     DEBUGLOG(7, "distance from current pos to end buffer = %zi", iEnd - ip);
; 596  :     DEBUGLOG(7, "next byte : ip==%02X, istart==%02X", ip[matchLength], *iStart);
; 597  :     DEBUGLOG(7, "final match length = %zu", matchLength + ZSTD_count(ip+matchLength, iStart, iEnd));
; 598  :     return matchLength + ZSTD_count(ip+matchLength, iStart, iEnd);

	mov	r8, QWORD PTR iend$1$[rsp]
	lea	rcx, QWORD PTR [rbp+5]
	mov	rdx, QWORD PTR prefixLowest$1$[rsp]
	add	rcx, rbx
	call	ZSTD_count
	add	rbp, rax
$LN83@ZSTD_compr:
	mov	esi, DWORD PTR prefixLowestIndex$1$[rsp]
; File E:\dev\pyzstd\lib\compress\zstd_lazy.c

; 705  :                 matchLength = ZSTD_count_2segments(ip+1+4, repMatch+4, iend, repMatchEnd, prefixLowest) + 4;

	add	rbp, 4
	mov	rdx, QWORD PTR iend$1$[rsp]
$LN22@ZSTD_compr:

; 706  :                 if (depth==0) goto _storeSequence;
; 707  :             }
; 708  :         }
; 709  :         if ( dictMode == ZSTD_noDict
; 710  :           && ((offset_1 > 0) & (MEM_read32(ip+1-offset_1) == MEM_read32(ip+1)))) {
; 711  :             matchLength = ZSTD_count(ip+1+4, ip+1+4-offset_1, iend) + 4;
; 712  :             if (depth==0) goto _storeSequence;
; 713  :         }
; 714  : 
; 715  :         /* first search (depth 0) */
; 716  :         {   size_t offsetFound = 999999999;
; 717  :             size_t const ml2 = searchMax(ms, ip, iend, &offsetFound);

	mov	rcx, QWORD PTR ms$[rsp]
	lea	r9, QWORD PTR offsetFound$4[rsp]
	mov	r8, rdx
	mov	QWORD PTR offsetFound$4[rsp], 999999999	; 3b9ac9ffH
	mov	rdx, rbx
	call	ZSTD_BtFindBestMatch_dictMatchState_selectMLS

; 718  :             if (ml2 > matchLength)

	cmp	rax, rbp
	jbe	SHORT $LN25@ZSTD_compr

; 719  :                 matchLength = ml2, start = ip, offset=offsetFound;

	mov	r14, QWORD PTR offsetFound$4[rsp]
	mov	rbp, rax
	mov	QWORD PTR offset$1$[rsp], r14
	mov	r12, rbx
$LN25@ZSTD_compr:

; 720  :         }
; 721  : 
; 722  :         if (matchLength < 4) {

	cmp	rbp, 4
	jae	SHORT $LN354@ZSTD_compr

; 723  :             ip += ((ip-anchor) >> kSearchStrength) + 1;   /* jump faster over incompressible sections */
; 724  :             continue;

	mov	rdx, QWORD PTR ilimit$1$[rsp]
	mov	rax, rbx
	sub	rax, r13
	inc	rbx
	sar	rax, 8
	add	rbx, rax
$LN384@ZSTD_compr:

; 669  :     if (dictMode == ZSTD_noDict) {
; 670  :         U32 const current = (U32)(ip - base);
; 671  :         U32 const windowLow = ZSTD_getLowestPrefixIndex(ms, current, ms->cParams.windowLog);
; 672  :         U32 const maxRep = current - windowLow;
; 673  :         if (offset_2 > maxRep) savedOffset = offset_2, offset_2 = 0;
; 674  :         if (offset_1 > maxRep) savedOffset = offset_1, offset_1 = 0;
; 675  :     }
; 676  :     if (dictMode == ZSTD_dictMatchState) {
; 677  :         /* dictMatchState repCode checks don't currently handle repCode == 0
; 678  :          * disabling. */
; 679  :         assert(offset_1 <= dictAndPrefixLength);
; 680  :         assert(offset_2 <= dictAndPrefixLength);
; 681  :     }
; 682  : 
; 683  :     /* Match Loop */
; 684  : #if defined(__GNUC__) && defined(__x86_64__)
; 685  :     /* I've measured random a 5% speed loss on levels 5 & 6 (greedy) when the
; 686  :      * code alignment is perturbed. To fix the instability align the loop on 32-bytes.
; 687  :      */
; 688  :     __asm__(".p2align 5");
; 689  : #endif
; 690  :     while (ip < ilimit) {

	mov	ebp, DWORD PTR offset_2$1$[rsp]
$LN45@ZSTD_compr:
	mov	r8, QWORD PTR base$1$[rsp]
	cmp	rbx, rdx
	mov	rdx, QWORD PTR iend$1$[rsp]
	mov	edi, 0
	mov	r9d, DWORD PTR offset_1$1$[rsp]
	mov	r10d, DWORD PTR dictIndexDelta$1$[rsp]
	mov	r11, QWORD PTR dictBase$1$[rsp]
	jb	$LL4@ZSTD_compr
	mov	r14, QWORD PTR rep$[rsp]
	mov	r12, QWORD PTR [rsp+152]
$LN5@ZSTD_compr:

; 865  : 
; 866  :     /* Return the last literals size */
; 867  :     return (size_t)(iend - anchor);

	sub	rdx, r13
	mov	DWORD PTR [r14], r9d

; 903  :     return ZSTD_compressBlock_lazy_generic(ms, seqStore, rep, src, srcSize, search_binaryTree, 2, ZSTD_dictMatchState);

	mov	rax, rdx

; 864  :     rep[1] = offset_2 ? offset_2 : savedOffset;

	mov	DWORD PTR [r14+4], ebp

; 904  : }

	add	rsp, 160				; 000000a0H
	pop	r15
	pop	r14
	pop	r13
	pop	rdi
	pop	rsi
	pop	rbp
	pop	rbx
	ret	0
$LN354@ZSTD_compr:

; 729  :         while (ip<ilimit) {

	cmp	rbx, QWORD PTR ilimit$1$[rsp]
	jae	$LN40@ZSTD_compr
	mov	r14, QWORD PTR iend$1$[rsp]
	npad	13
$LL6@ZSTD_compr:

; 730  :             ip ++;
; 731  :             if ( (dictMode == ZSTD_noDict)
; 732  :               && (offset) && ((offset_1>0) & (MEM_read32(ip) == MEM_read32(ip - offset_1)))) {
; 733  :                 size_t const mlRep = ZSTD_count(ip+4, ip+4-offset_1, iend) + 4;
; 734  :                 int const gain2 = (int)(mlRep * 3);
; 735  :                 int const gain1 = (int)(matchLength*3 - ZSTD_highbit32((U32)offset+1) + 1);
; 736  :                 if ((mlRep >= 4) && (gain2 > gain1))
; 737  :                     matchLength = mlRep, offset = 0, start = ip;
; 738  :             }
; 739  :             if (dictMode == ZSTD_dictMatchState) {
; 740  :                 const U32 repIndex = (U32)(ip - base) - offset_1;

	mov	rax, QWORD PTR base$1$[rsp]
	inc	rbx
	mov	ecx, ebx
	sub	ecx, eax
	sub	ecx, DWORD PTR offset_1$1$[rsp]

; 741  :                 const BYTE* repMatch = repIndex < prefixLowestIndex ?

	cmp	ecx, esi
	jae	SHORT $LN62@ZSTD_compr
	mov	edi, ecx
	sub	edi, DWORD PTR dictIndexDelta$1$[rsp]
	add	rdi, QWORD PTR dictBase$1$[rsp]
	jmp	SHORT $LN63@ZSTD_compr
$LN62@ZSTD_compr:
	mov	edi, ecx
	add	rdi, rax
$LN63@ZSTD_compr:

; 742  :                                dictBase + (repIndex - dictIndexDelta) :
; 743  :                                base + repIndex;
; 744  :                 if (((U32)((prefixLowestIndex-1) - repIndex) >= 3 /* intentional underflow */)
; 745  :                     && (MEM_read32(repMatch) == MEM_read32(ip)) ) {

	mov	eax, esi
	sub	eax, ecx
	dec	eax
	cmp	eax, 3
	jb	$LN378@ZSTD_compr
	mov	eax, DWORD PTR [rbx]
	cmp	DWORD PTR [rdi], eax
	jne	$LN378@ZSTD_compr

; 746  :                     const BYTE* repMatchEnd = repIndex < prefixLowestIndex ? dictEnd : iend;

	cmp	ecx, DWORD PTR prefixLowestIndex$1$[rsp]

; 747  :                     size_t const mlRep = ZSTD_count_2segments(ip+4, repMatch+4, iend, repMatchEnd, prefixLowest) + 4;

	lea	r13, QWORD PTR [rbx+4]
	mov	rsi, r14
; File E:\dev\pyzstd\lib\compress\zstd_compress_internal.h

; 590  :     const BYTE* const vEnd = MIN( ip + (mEnd - match), iEnd);

	mov	rcx, r13
; File E:\dev\pyzstd\lib\compress\zstd_lazy.c

; 746  :                     const BYTE* repMatchEnd = repIndex < prefixLowestIndex ? dictEnd : iend;

	cmovb	rsi, QWORD PTR dictEnd$1$[rsp]
; File E:\dev\pyzstd\lib\compress\zstd_compress_internal.h

; 590  :     const BYTE* const vEnd = MIN( ip + (mEnd - match), iEnd);

	mov	r8, r14
; File E:\dev\pyzstd\lib\compress\zstd_lazy.c

; 747  :                     size_t const mlRep = ZSTD_count_2segments(ip+4, repMatch+4, iend, repMatchEnd, prefixLowest) + 4;

	add	rdi, 4
; File E:\dev\pyzstd\lib\compress\zstd_compress_internal.h

; 590  :     const BYTE* const vEnd = MIN( ip + (mEnd - match), iEnd);

	sub	rcx, rdi

; 591  :     size_t const matchLength = ZSTD_count(ip, match, vEnd);

	mov	rdx, rdi
	add	rcx, rsi
	cmp	rcx, r14
	cmovb	r8, rcx
	mov	rcx, r13
	call	ZSTD_count
	mov	r14, rax

; 592  :     if (match + matchLength != mEnd) return matchLength;

	add	rax, rdi
	cmp	rax, rsi
	jne	SHORT $LN160@ZSTD_compr

; 593  :     DEBUGLOG(7, "ZSTD_count_2segments: found a 2-parts match (current length==%zu)", matchLength);
; 594  :     DEBUGLOG(7, "distance from match beginning to end dictionary = %zi", mEnd - match);
; 595  :     DEBUGLOG(7, "distance from current pos to end buffer = %zi", iEnd - ip);
; 596  :     DEBUGLOG(7, "next byte : ip==%02X, istart==%02X", ip[matchLength], *iStart);
; 597  :     DEBUGLOG(7, "final match length = %zu", matchLength + ZSTD_count(ip+matchLength, iStart, iEnd));
; 598  :     return matchLength + ZSTD_count(ip+matchLength, iStart, iEnd);

	mov	r8, QWORD PTR iend$1$[rsp]
	lea	rcx, QWORD PTR [r14+r13]
	mov	rdx, QWORD PTR prefixLowest$1$[rsp]
	call	ZSTD_count
	add	r14, rax
$LN160@ZSTD_compr:
; File E:\dev\pyzstd\lib\compress\zstd_lazy.c

; 749  :                     int const gain1 = (int)(matchLength*3 - ZSTD_highbit32((U32)offset+1) + 1);

	mov	r15, QWORD PTR offset$1$[rsp]
	lea	rdx, QWORD PTR [r14+4]

; 750  :                     if ((mlRep >= 4) && (gain2 > gain1))

	mov	esi, DWORD PTR prefixLowestIndex$1$[rsp]
; File E:\dev\pyzstd\lib\common\zstd_internal.h

; 397  :         unsigned long r=0;

	xor	edi, edi
; File E:\dev\pyzstd\lib\compress\zstd_lazy.c

; 750  :                     if ((mlRep >= 4) && (gain2 > gain1))

	mov	r14, QWORD PTR iend$1$[rsp]
; File E:\dev\pyzstd\lib\common\zstd_internal.h

; 397  :         unsigned long r=0;

	mov	DWORD PTR r$3[rsp], edi
; File E:\dev\pyzstd\lib\compress\zstd_lazy.c

; 749  :                     int const gain1 = (int)(matchLength*3 - ZSTD_highbit32((U32)offset+1) + 1);

	lea	eax, DWORD PTR [r15+1]
; File E:\dev\pyzstd\lib\common\zstd_internal.h

; 398  :         return _BitScanReverse(&r, val) ? (unsigned)r : 0;

	bsr	ecx, eax
	mov	eax, edi
	cmovne	eax, ecx
; File E:\dev\pyzstd\lib\compress\zstd_lazy.c

; 749  :                     int const gain1 = (int)(matchLength*3 - ZSTD_highbit32((U32)offset+1) + 1);

	lea	ecx, DWORD PTR [rbp*2]
	add	ecx, ebp
	sub	ecx, eax
	inc	ecx

; 750  :                     if ((mlRep >= 4) && (gain2 > gain1))

	cmp	rdx, 4
	jb	SHORT $LN32@ZSTD_compr
	lea	eax, DWORD PTR [rdx+rdx*2]
	cmp	eax, ecx
	jle	SHORT $LN32@ZSTD_compr

; 751  :                         matchLength = mlRep, offset = 0, start = ip;

	mov	rbp, rdx
	mov	QWORD PTR offset$1$[rsp], rdi
	mov	r15d, edi
	mov	r12, rbx
	jmp	SHORT $LN32@ZSTD_compr
$LN378@ZSTD_compr:

; 752  :                 }
; 753  :             }
; 754  :             {   size_t offset2=999999999;

	mov	r15, QWORD PTR offset$1$[rsp]
	xor	edi, edi
$LN32@ZSTD_compr:

; 755  :                 size_t const ml2 = searchMax(ms, ip, iend, &offset2);

	mov	rcx, QWORD PTR ms$[rsp]
	lea	r9, QWORD PTR offset2$5[rsp]
	mov	r8, r14
	mov	QWORD PTR offset2$5[rsp], 999999999	; 3b9ac9ffH
	mov	rdx, rbx
	call	ZSTD_BtFindBestMatch_dictMatchState_selectMLS

; 756  :                 int const gain2 = (int)(ml2*4 - ZSTD_highbit32((U32)offset2+1));   /* raw approx */

	mov	r9, QWORD PTR offset2$5[rsp]

; 757  :                 int const gain1 = (int)(matchLength*4 - ZSTD_highbit32((U32)offset+1) + 4);

	lea	r13d, DWORD PTR [rbp*4]
	mov	r8, rax
; File E:\dev\pyzstd\lib\common\zstd_internal.h

; 397  :         unsigned long r=0;

	mov	DWORD PTR r$2[rsp], edi
	mov	DWORD PTR r$1[rsp], edi
; File E:\dev\pyzstd\lib\compress\zstd_lazy.c

; 756  :                 int const gain2 = (int)(ml2*4 - ZSTD_highbit32((U32)offset2+1));   /* raw approx */

	lea	eax, DWORD PTR [r9+1]
; File E:\dev\pyzstd\lib\common\zstd_internal.h

; 398  :         return _BitScanReverse(&r, val) ? (unsigned)r : 0;

	bsr	ecx, eax
	mov	eax, edi
; File E:\dev\pyzstd\lib\compress\zstd_lazy.c

; 756  :                 int const gain2 = (int)(ml2*4 - ZSTD_highbit32((U32)offset2+1));   /* raw approx */

	lea	edx, DWORD PTR [r8*4]
; File E:\dev\pyzstd\lib\common\zstd_internal.h

; 398  :         return _BitScanReverse(&r, val) ? (unsigned)r : 0;

	cmovne	eax, ecx
	mov	ecx, edi
; File E:\dev\pyzstd\lib\compress\zstd_lazy.c

; 756  :                 int const gain2 = (int)(ml2*4 - ZSTD_highbit32((U32)offset2+1));   /* raw approx */

	sub	edx, eax

; 757  :                 int const gain1 = (int)(matchLength*4 - ZSTD_highbit32((U32)offset+1) + 4);

	lea	eax, DWORD PTR [r15+1]
	mov	DWORD PTR tv2467[rsp], eax
; File E:\dev\pyzstd\lib\common\zstd_internal.h

; 398  :         return _BitScanReverse(&r, val) ? (unsigned)r : 0;

	bsr	eax, eax
	cmovne	ecx, eax
	mov	eax, r13d
	sub	eax, ecx
; File E:\dev\pyzstd\lib\compress\zstd_lazy.c

; 757  :                 int const gain1 = (int)(matchLength*4 - ZSTD_highbit32((U32)offset+1) + 4);

	add	eax, 4

; 758  :                 if ((ml2 >= 4) && (gain2 > gain1)) {

	cmp	r8, 4
	jb	SHORT $LN33@ZSTD_compr
	cmp	edx, eax
	jg	$LN387@ZSTD_compr
$LN33@ZSTD_compr:

; 759  :                     matchLength = ml2, offset = offset2, start = ip;
; 760  :                     continue;   /* search a better one */
; 761  :             }   }
; 762  : 
; 763  :             /* let's find an even better one */
; 764  :             if ((depth==2) && (ip<ilimit)) {

	lea	rax, QWORD PTR [r14-8]
	cmp	rbx, rax
	jae	$LN375@ZSTD_compr

; 765  :                 ip ++;
; 766  :                 if ( (dictMode == ZSTD_noDict)
; 767  :                   && (offset) && ((offset_1>0) & (MEM_read32(ip) == MEM_read32(ip - offset_1)))) {
; 768  :                     size_t const mlRep = ZSTD_count(ip+4, ip+4-offset_1, iend) + 4;
; 769  :                     int const gain2 = (int)(mlRep * 4);
; 770  :                     int const gain1 = (int)(matchLength*4 - ZSTD_highbit32((U32)offset+1) + 1);
; 771  :                     if ((mlRep >= 4) && (gain2 > gain1))
; 772  :                         matchLength = mlRep, offset = 0, start = ip;
; 773  :                 }
; 774  :                 if (dictMode == ZSTD_dictMatchState) {
; 775  :                     const U32 repIndex = (U32)(ip - base) - offset_1;

	mov	rax, QWORD PTR base$1$[rsp]
	inc	rbx
	mov	ecx, ebx
	sub	ecx, eax
	sub	ecx, DWORD PTR offset_1$1$[rsp]

; 776  :                     const BYTE* repMatch = repIndex < prefixLowestIndex ?

	cmp	ecx, esi
	jae	SHORT $LN64@ZSTD_compr
	mov	edi, ecx
	sub	edi, DWORD PTR dictIndexDelta$1$[rsp]
	add	rdi, QWORD PTR dictBase$1$[rsp]
	jmp	SHORT $LN65@ZSTD_compr
$LN64@ZSTD_compr:
	mov	edi, ecx
	add	rdi, rax
$LN65@ZSTD_compr:

; 777  :                                    dictBase + (repIndex - dictIndexDelta) :
; 778  :                                    base + repIndex;
; 779  :                     if (((U32)((prefixLowestIndex-1) - repIndex) >= 3 /* intentional underflow */)
; 780  :                         && (MEM_read32(repMatch) == MEM_read32(ip)) ) {

	mov	eax, esi
	sub	eax, ecx
	dec	eax
	cmp	eax, 3
	jb	$LN386@ZSTD_compr
	mov	eax, DWORD PTR [rbx]
	cmp	DWORD PTR [rdi], eax
	jne	$LN386@ZSTD_compr

; 781  :                         const BYTE* repMatchEnd = repIndex < prefixLowestIndex ? dictEnd : iend;

	cmp	ecx, DWORD PTR prefixLowestIndex$1$[rsp]
	mov	rsi, r14
; File E:\dev\pyzstd\lib\compress\zstd_compress_internal.h

; 590  :     const BYTE* const vEnd = MIN( ip + (mEnd - match), iEnd);

	lea	rcx, QWORD PTR [rbx+4]
	mov	r8, r14
; File E:\dev\pyzstd\lib\compress\zstd_lazy.c

; 781  :                         const BYTE* repMatchEnd = repIndex < prefixLowestIndex ? dictEnd : iend;

	cmovb	rsi, QWORD PTR dictEnd$1$[rsp]

; 782  :                         size_t const mlRep = ZSTD_count_2segments(ip+4, repMatch+4, iend, repMatchEnd, prefixLowest) + 4;

	add	rdi, 4
; File E:\dev\pyzstd\lib\compress\zstd_compress_internal.h

; 590  :     const BYTE* const vEnd = MIN( ip + (mEnd - match), iEnd);

	sub	rcx, rdi

; 591  :     size_t const matchLength = ZSTD_count(ip, match, vEnd);

	mov	rdx, rdi
	add	rcx, rsi
	cmp	rcx, r14
	cmovb	r8, rcx
	lea	rcx, QWORD PTR [rbx+4]
	call	ZSTD_count
	mov	r14, rax

; 592  :     if (match + matchLength != mEnd) return matchLength;

	add	rax, rdi
	cmp	rax, rsi
	jne	SHORT $LN210@ZSTD_compr

; 593  :     DEBUGLOG(7, "ZSTD_count_2segments: found a 2-parts match (current length==%zu)", matchLength);
; 594  :     DEBUGLOG(7, "distance from match beginning to end dictionary = %zi", mEnd - match);
; 595  :     DEBUGLOG(7, "distance from current pos to end buffer = %zi", iEnd - ip);
; 596  :     DEBUGLOG(7, "next byte : ip==%02X, istart==%02X", ip[matchLength], *iStart);
; 597  :     DEBUGLOG(7, "final match length = %zu", matchLength + ZSTD_count(ip+matchLength, iStart, iEnd));
; 598  :     return matchLength + ZSTD_count(ip+matchLength, iStart, iEnd);

	mov	r8, QWORD PTR iend$1$[rsp]
	lea	rcx, QWORD PTR [r14+4]
	mov	rdx, QWORD PTR prefixLowest$1$[rsp]
	add	rcx, rbx
	call	ZSTD_count
	add	r14, rax
$LN210@ZSTD_compr:
; File E:\dev\pyzstd\lib\compress\zstd_lazy.c

; 785  :                         if ((mlRep >= 4) && (gain2 > gain1))

	mov	esi, DWORD PTR prefixLowestIndex$1$[rsp]
	lea	rdx, QWORD PTR [r14+4]
	mov	r14, QWORD PTR iend$1$[rsp]
; File E:\dev\pyzstd\lib\common\zstd_internal.h

; 397  :         unsigned long r=0;

	xor	edi, edi

; 398  :         return _BitScanReverse(&r, val) ? (unsigned)r : 0;

	bsr	eax, DWORD PTR tv2467[rsp]
	mov	ecx, edi
	cmovne	ecx, eax
	sub	r13d, ecx
; File E:\dev\pyzstd\lib\compress\zstd_lazy.c

; 784  :                         int const gain1 = (int)(matchLength*4 - ZSTD_highbit32((U32)offset+1) + 1);

	inc	r13d

; 785  :                         if ((mlRep >= 4) && (gain2 > gain1))

	cmp	rdx, 4
	jb	SHORT $LN39@ZSTD_compr
	lea	eax, DWORD PTR [rdx*4]
	cmp	eax, r13d
	jle	SHORT $LN39@ZSTD_compr

; 786  :                             matchLength = mlRep, offset = 0, start = ip;

	mov	rbp, rdx
	mov	QWORD PTR offset$1$[rsp], rdi
	mov	r15d, edi
	mov	r12, rbx
	jmp	SHORT $LN39@ZSTD_compr
$LN386@ZSTD_compr:

; 787  :                     }
; 788  :                 }
; 789  :                 {   size_t offset2=999999999;

	xor	edi, edi
$LN39@ZSTD_compr:

; 790  :                     size_t const ml2 = searchMax(ms, ip, iend, &offset2);

	mov	rcx, QWORD PTR ms$[rsp]
	lea	r9, QWORD PTR offset2$6[rsp]
	mov	r8, r14
	mov	QWORD PTR offset2$6[rsp], 999999999	; 3b9ac9ffH
	mov	rdx, rbx
	call	ZSTD_BtFindBestMatch_dictMatchState_selectMLS

; 791  :                     int const gain2 = (int)(ml2*4 - ZSTD_highbit32((U32)offset2+1));   /* raw approx */

	mov	r9, QWORD PTR offset2$6[rsp]
	mov	r8, rax
	lea	eax, DWORD PTR [r9+1]
; File E:\dev\pyzstd\lib\common\zstd_internal.h

; 398  :         return _BitScanReverse(&r, val) ? (unsigned)r : 0;

	bsr	ecx, eax
	mov	eax, edi
; File E:\dev\pyzstd\lib\compress\zstd_lazy.c

; 791  :                     int const gain2 = (int)(ml2*4 - ZSTD_highbit32((U32)offset2+1));   /* raw approx */

	lea	edx, DWORD PTR [r8*4]
; File E:\dev\pyzstd\lib\common\zstd_internal.h

; 398  :         return _BitScanReverse(&r, val) ? (unsigned)r : 0;

	cmovne	eax, ecx
; File E:\dev\pyzstd\lib\compress\zstd_lazy.c

; 791  :                     int const gain2 = (int)(ml2*4 - ZSTD_highbit32((U32)offset2+1));   /* raw approx */

	sub	edx, eax

; 792  :                     int const gain1 = (int)(matchLength*4 - ZSTD_highbit32((U32)offset+1) + 7);

	lea	eax, DWORD PTR [r15+1]
; File E:\dev\pyzstd\lib\common\zstd_internal.h

; 398  :         return _BitScanReverse(&r, val) ? (unsigned)r : 0;

	bsr	ecx, eax
	mov	eax, edi
	cmovne	eax, ecx
; File E:\dev\pyzstd\lib\compress\zstd_lazy.c

; 792  :                     int const gain1 = (int)(matchLength*4 - ZSTD_highbit32((U32)offset+1) + 7);

	lea	ecx, DWORD PTR [rbp*4]
	sub	ecx, eax
	add	ecx, 7

; 793  :                     if ((ml2 >= 4) && (gain2 > gain1)) {

	cmp	r8, 4
	jb	SHORT $LN375@ZSTD_compr
	cmp	edx, ecx
	jle	SHORT $LN375@ZSTD_compr
$LN387@ZSTD_compr:

; 725  :         }
; 726  : 
; 727  :         /* let's try to find a better solution */
; 728  :         if (depth>=1)
; 729  :         while (ip<ilimit) {

	lea	rax, QWORD PTR [r14-8]
	mov	QWORD PTR offset$1$[rsp], r9
	mov	r12, rbx
	mov	rbp, r8
	cmp	rbx, rax
	jb	$LL6@ZSTD_compr
$LN375@ZSTD_compr:
	mov	r15, QWORD PTR seqStore$[rsp]
	mov	r13, QWORD PTR src$[rsp]
	mov	r14, QWORD PTR offset$1$[rsp]
$LN40@ZSTD_compr:

; 794  :                         matchLength = ml2, offset = offset2, start = ip;
; 795  :                         continue;
; 796  :             }   }   }
; 797  :             break;  /* nothing found : store previous solution */
; 798  :         }
; 799  : 
; 800  :         /* NOTE:
; 801  :          * start[-offset+ZSTD_REP_MOVE-1] is undefined behavior.
; 802  :          * (-offset+ZSTD_REP_MOVE-1) is unsigned, and is added to start, which
; 803  :          * overflows the pointer, which is undefined behavior.
; 804  :          */
; 805  :         /* catch up */
; 806  :         if (offset) {

	test	r14, r14
	je	SHORT $_storeSequence$390

; 807  :             if (dictMode == ZSTD_noDict) {
; 808  :                 while ( ((start > anchor) & (start - (offset-ZSTD_REP_MOVE) > prefixLowest))
; 809  :                      && (start[-1] == (start-(offset-ZSTD_REP_MOVE))[-1]) )  /* only search for offset within prefix */
; 810  :                     { start--; matchLength++; }
; 811  :             }
; 812  :             if (dictMode == ZSTD_dictMatchState) {
; 813  :                 U32 const matchIndex = (U32)((start-base) - (offset - ZSTD_REP_MOVE));

	mov	rax, QWORD PTR base$1$[rsp]
	mov	edx, r12d
	sub	edx, r14d
	sub	edx, eax
	add	edx, 2
	mov	ecx, edx

; 814  :                 const BYTE* match = (matchIndex < prefixLowestIndex) ? dictBase + matchIndex - dictIndexDelta : base + matchIndex;

	cmp	edx, esi
	jae	SHORT $LN66@ZSTD_compr
	mov	eax, DWORD PTR dictIndexDelta$1$[rsp]
	sub	rcx, rax
	add	rcx, QWORD PTR dictBase$1$[rsp]
	jmp	SHORT $LN67@ZSTD_compr
$LN66@ZSTD_compr:
	add	rcx, rax
$LN67@ZSTD_compr:

; 815  :                 const BYTE* const mStart = (matchIndex < prefixLowestIndex) ? dictLowest : prefixLowest;

	mov	r8, QWORD PTR prefixLowest$1$[rsp]
	cmp	edx, esi
	cmovb	r8, QWORD PTR dictLowest$1$[rsp]

; 816  :                 while ((start>anchor) && (match>mStart) && (start[-1] == match[-1])) { start--; match--; matchLength++; }  /* catch up */

	cmp	r12, r13
	jbe	SHORT $LN376@ZSTD_compr
$LL10@ZSTD_compr:
	cmp	rcx, r8
	jbe	SHORT $LN376@ZSTD_compr
	movzx	eax, BYTE PTR [rcx-1]
	lea	rdx, QWORD PTR [r12-1]
	cmp	BYTE PTR [rdx], al
	jne	SHORT $LN376@ZSTD_compr
	dec	rcx
	inc	rbp
	mov	r12, rdx
	cmp	rdx, r13
	ja	SHORT $LL10@ZSTD_compr
$LN376@ZSTD_compr:

; 817  :             }
; 818  :             offset_2 = offset_1; offset_1 = (U32)(offset - ZSTD_REP_MOVE);

	mov	eax, DWORD PTR offset_1$1$[rsp]
	mov	DWORD PTR offset_2$1$[rsp], eax
	lea	eax, DWORD PTR [r14-2]
	mov	DWORD PTR offset_1$1$[rsp], eax
$_storeSequence$390:
; File E:\dev\pyzstd\lib\compress\zstd_compress_internal.h

; 441  :     BYTE const* const litLimit_w = litLimit - WILDCOPY_OVERLENGTH;

	mov	r9, QWORD PTR iend$1$[rsp]
; File E:\dev\pyzstd\lib\compress\zstd_lazy.c

; 823  :             ZSTD_storeSeq(seqStore, litLength, anchor, iend, (U32)offset, matchLength-MINMATCH);

	lea	rdi, QWORD PTR [rbp-3]
; File E:\dev\pyzstd\lib\compress\zstd_compress_internal.h

; 442  :     BYTE const* const litEnd = literals + litLength;

	mov	rcx, QWORD PTR [r15+24]
; File E:\dev\pyzstd\lib\compress\zstd_lazy.c

; 822  :         {   size_t const litLength = start - anchor;

	mov	rbx, r12
	sub	rbx, r13
; File E:\dev\pyzstd\lib\compress\zstd_compress_internal.h

; 441  :     BYTE const* const litLimit_w = litLimit - WILDCOPY_OVERLENGTH;

	lea	rdx, QWORD PTR [r9-32]

; 442  :     BYTE const* const litEnd = literals + litLength;

	lea	r8, QWORD PTR [rbx+r13]

; 456  :     if (litEnd <= litLimit_w) {

	cmp	r8, rdx
	ja	SHORT $LN222@ZSTD_compr
; File E:\dev\pyzstd\lib\common\zstd_internal.h

; 243  :     memcpy(dst, src, 16);

	movups	xmm0, XMMWORD PTR [r13]
	movups	XMMWORD PTR [rcx], xmm0
; File E:\dev\pyzstd\lib\compress\zstd_compress_internal.h

; 462  :         if (litLength > 16) {

	cmp	rbx, 16
	jbe	SHORT $LN223@ZSTD_compr

; 463  :             ZSTD_wildcopy(seqStorePtr->lit+16, literals+16, (ptrdiff_t)litLength-16, ZSTD_no_overlap);

	mov	rax, QWORD PTR [r15+24]
; File E:\dev\pyzstd\lib\common\zstd_internal.h

; 270  :     BYTE* const oend = op + length;

	lea	rdx, QWORD PTR [rbx-16]
; File E:\dev\pyzstd\lib\compress\zstd_compress_internal.h

; 463  :             ZSTD_wildcopy(seqStorePtr->lit+16, literals+16, (ptrdiff_t)litLength-16, ZSTD_no_overlap);

	add	rax, 16
	lea	rcx, QWORD PTR [r13+16]
; File E:\dev\pyzstd\lib\common\zstd_internal.h

; 270  :     BYTE* const oend = op + length;

	add	rdx, rax
	npad	10
$LL236@ZSTD_compr:

; 243  :     memcpy(dst, src, 16);

	movups	xmm0, XMMWORD PTR [rcx]

; 289  :             COPY16(op, ip);

	lea	rcx, QWORD PTR [rcx+16]

; 243  :     memcpy(dst, src, 16);

	movups	XMMWORD PTR [rax], xmm0

; 289  :             COPY16(op, ip);

	add	rax, 16

; 290  :         }
; 291  :         while (op < oend);

	cmp	rax, rdx
	jb	SHORT $LL236@ZSTD_compr
; File E:\dev\pyzstd\lib\compress\zstd_compress_internal.h

; 465  :     } else {

	jmp	SHORT $LN223@ZSTD_compr
$LN222@ZSTD_compr:

; 466  :         ZSTD_safecopyLiterals(seqStorePtr->lit, literals, litEnd, litLimit_w);

	mov	r9, rdx
	mov	rdx, r13
	call	ZSTD_safecopyLiterals
	mov	r9, QWORD PTR iend$1$[rsp]
$LN223@ZSTD_compr:

; 467  :     }
; 468  :     seqStorePtr->lit += litLength;

	add	QWORD PTR [r15+24], rbx

; 469  : 
; 470  :     /* literal Length */
; 471  :     if (litLength>0xFFFF) {

	mov	rcx, QWORD PTR [r15+8]
	cmp	rbx, 65535				; 0000ffffH
	jbe	SHORT $LN225@ZSTD_compr

; 472  :         assert(seqStorePtr->longLengthID == 0); /* there can only be a single long length */
; 473  :         seqStorePtr->longLengthID = 1;
; 474  :         seqStorePtr->longLengthPos = (U32)(seqStorePtr->sequences - seqStorePtr->sequencesStart);

	mov	rax, rcx
	mov	DWORD PTR [r15+72], 1
	sub	rax, QWORD PTR [r15]
	sar	rax, 3
	mov	DWORD PTR [r15+76], eax
$LN225@ZSTD_compr:

; 475  :     }
; 476  :     seqStorePtr->sequences[0].litLength = (U16)litLength;

	mov	WORD PTR [rcx+4], bx

; 477  : 
; 478  :     /* match offset */
; 479  :     seqStorePtr->sequences[0].offset = offCode + 1;

	lea	ecx, DWORD PTR [r14+1]
	mov	rax, QWORD PTR [r15+8]
	mov	DWORD PTR [rax], ecx
	mov	rcx, QWORD PTR [r15+8]

; 480  : 
; 481  :     /* match Length */
; 482  :     if (mlBase>0xFFFF) {

	cmp	rdi, 65535				; 0000ffffH
	jbe	SHORT $LN368@ZSTD_compr

; 485  :         seqStorePtr->longLengthPos = (U32)(seqStorePtr->sequences - seqStorePtr->sequencesStart);

	mov	rax, rcx
	mov	DWORD PTR [r15+72], 2
	sub	rax, QWORD PTR [r15]
	sar	rax, 3
	mov	DWORD PTR [r15+76], eax
$LN368@ZSTD_compr:
; File E:\dev\pyzstd\lib\compress\zstd_lazy.c

; 824  :             anchor = ip = start + matchLength;

	lea	r13, QWORD PTR [r12+rbp]
; File E:\dev\pyzstd\lib\compress\zstd_compress_internal.h

; 487  :     seqStorePtr->sequences[0].matchLength = (U16)mlBase;

	mov	WORD PTR [rcx+6], di

; 488  : 
; 489  :     seqStorePtr->sequences++;

	add	QWORD PTR [r15+8], 8
; File E:\dev\pyzstd\lib\compress\zstd_lazy.c

; 824  :             anchor = ip = start + matchLength;

	lea	rdx, QWORD PTR [r9-8]
	mov	QWORD PTR src$[rsp], r13
	mov	rbx, r13
	cmp	r13, rdx

; 829  :             while (ip <= ilimit) {

	ja	$LN384@ZSTD_compr
	mov	ebp, DWORD PTR offset_2$1$[rsp]
; File E:\dev\pyzstd\lib\compress\zstd_compress_internal.h

; 485  :         seqStorePtr->longLengthPos = (U32)(seqStorePtr->sequences - seqStorePtr->sequencesStart);

	mov	QWORD PTR src$[rsp], r13
	npad	2
$LL12@ZSTD_compr:
; File E:\dev\pyzstd\lib\compress\zstd_lazy.c

; 831  :                 U32 const repIndex = current2 - offset_2;

	mov	rax, QWORD PTR base$1$[rsp]
	mov	ecx, ebx
	sub	ecx, eax
	mov	r12d, ebp
	sub	ecx, ebp
	mov	edi, ecx

; 832  :                 const BYTE* repMatch = dictMode == ZSTD_dictMatchState

	cmp	ecx, esi
	jae	SHORT $LN68@ZSTD_compr
	mov	eax, DWORD PTR dictIndexDelta$1$[rsp]
	sub	rdi, rax
	add	rdi, QWORD PTR dictBase$1$[rsp]
	jmp	SHORT $LN69@ZSTD_compr
$LN68@ZSTD_compr:
	add	rdi, rax
$LN69@ZSTD_compr:

; 833  :                     && repIndex < prefixLowestIndex ?
; 834  :                         dictBase - dictIndexDelta + repIndex :
; 835  :                         base + repIndex;
; 836  :                 if ( ((U32)((prefixLowestIndex-1) - (U32)repIndex) >= 3 /* intentional overflow */)
; 837  :                    && (MEM_read32(repMatch) == MEM_read32(ip)) ) {

	mov	eax, esi
	sub	eax, ecx
	dec	eax
	cmp	eax, 3
	jb	$LN377@ZSTD_compr
	mov	eax, DWORD PTR [rbx]
	cmp	DWORD PTR [rdi], eax
	jne	$LN377@ZSTD_compr

; 838  :                     const BYTE* const repEnd2 = repIndex < prefixLowestIndex ? dictEnd : iend;

	cmp	ecx, DWORD PTR prefixLowestIndex$1$[rsp]

; 839  :                     matchLength = ZSTD_count_2segments(ip+4, repMatch+4, iend, repEnd2, prefixLowest) + 4;

	lea	rbp, QWORD PTR [rbx+4]
	mov	rsi, r9
; File E:\dev\pyzstd\lib\compress\zstd_compress_internal.h

; 590  :     const BYTE* const vEnd = MIN( ip + (mEnd - match), iEnd);

	mov	r8, r9
; File E:\dev\pyzstd\lib\compress\zstd_lazy.c

; 838  :                     const BYTE* const repEnd2 = repIndex < prefixLowestIndex ? dictEnd : iend;

	cmovb	rsi, QWORD PTR dictEnd$1$[rsp]
; File E:\dev\pyzstd\lib\compress\zstd_compress_internal.h

; 590  :     const BYTE* const vEnd = MIN( ip + (mEnd - match), iEnd);

	mov	rcx, rbp
; File E:\dev\pyzstd\lib\compress\zstd_lazy.c

; 839  :                     matchLength = ZSTD_count_2segments(ip+4, repMatch+4, iend, repEnd2, prefixLowest) + 4;

	add	rdi, 4
; File E:\dev\pyzstd\lib\compress\zstd_compress_internal.h

; 590  :     const BYTE* const vEnd = MIN( ip + (mEnd - match), iEnd);

	sub	rcx, rdi

; 591  :     size_t const matchLength = ZSTD_count(ip, match, vEnd);

	mov	rdx, rdi
	add	rcx, rsi
	cmp	rcx, r9
	cmovb	r8, rcx
	mov	rcx, rbp
	call	ZSTD_count
	mov	r14, rax

; 592  :     if (match + matchLength != mEnd) return matchLength;

	add	rax, rdi
	cmp	rax, rsi
	jne	SHORT $LN248@ZSTD_compr

; 593  :     DEBUGLOG(7, "ZSTD_count_2segments: found a 2-parts match (current length==%zu)", matchLength);
; 594  :     DEBUGLOG(7, "distance from match beginning to end dictionary = %zi", mEnd - match);
; 595  :     DEBUGLOG(7, "distance from current pos to end buffer = %zi", iEnd - ip);
; 596  :     DEBUGLOG(7, "next byte : ip==%02X, istart==%02X", ip[matchLength], *iStart);
; 597  :     DEBUGLOG(7, "final match length = %zu", matchLength + ZSTD_count(ip+matchLength, iStart, iEnd));
; 598  :     return matchLength + ZSTD_count(ip+matchLength, iStart, iEnd);

	mov	r8, QWORD PTR iend$1$[rsp]
	lea	rcx, QWORD PTR [r14+rbp]
	mov	rdx, QWORD PTR prefixLowest$1$[rsp]
	call	ZSTD_count
	add	r14, rax
$LN248@ZSTD_compr:

; 456  :     if (litEnd <= litLimit_w) {

	mov	r9, QWORD PTR iend$1$[rsp]
; File E:\dev\pyzstd\lib\compress\zstd_lazy.c

; 839  :                     matchLength = ZSTD_count_2segments(ip+4, repMatch+4, iend, repEnd2, prefixLowest) + 4;

	add	r14, 4

; 840  :                     offset = offset_2; offset_2 = offset_1; offset_1 = (U32)offset;   /* swap offset_2 <=> offset_1 */

	mov	ebp, DWORD PTR offset_1$1$[rsp]
; File E:\dev\pyzstd\lib\compress\zstd_compress_internal.h

; 442  :     BYTE const* const litEnd = literals + litLength;

	mov	rcx, QWORD PTR [r15+24]
; File E:\dev\pyzstd\lib\compress\zstd_lazy.c

; 840  :                     offset = offset_2; offset_2 = offset_1; offset_1 = (U32)offset;   /* swap offset_2 <=> offset_1 */

	mov	DWORD PTR offset_1$1$[rsp], r12d
; File E:\dev\pyzstd\lib\compress\zstd_compress_internal.h

; 456  :     if (litEnd <= litLimit_w) {

	lea	rdx, QWORD PTR [r9-32]
; File E:\dev\pyzstd\lib\compress\zstd_lazy.c

; 841  :                     ZSTD_storeSeq(seqStore, 0, anchor, iend, 0, matchLength-MINMATCH);

	lea	rdi, QWORD PTR [r14-3]
; File E:\dev\pyzstd\lib\compress\zstd_compress_internal.h

; 456  :     if (litEnd <= litLimit_w) {

	cmp	r13, rdx
	ja	SHORT $LN254@ZSTD_compr
; File E:\dev\pyzstd\lib\common\zstd_internal.h

; 243  :     memcpy(dst, src, 16);

	movups	xmm0, XMMWORD PTR [r13]
	movups	XMMWORD PTR [rcx], xmm0
; File E:\dev\pyzstd\lib\compress\zstd_compress_internal.h

; 465  :     } else {

	jmp	SHORT $LN255@ZSTD_compr
$LN254@ZSTD_compr:

; 466  :         ZSTD_safecopyLiterals(seqStorePtr->lit, literals, litEnd, litLimit_w);

	mov	r9, rdx
	mov	r8, r13
	mov	rdx, r13
	call	ZSTD_safecopyLiterals
	mov	r9, QWORD PTR iend$1$[rsp]
$LN255@ZSTD_compr:

; 475  :     }
; 476  :     seqStorePtr->sequences[0].litLength = (U16)litLength;

	mov	rax, QWORD PTR [r15+8]
	xor	ecx, ecx
	mov	WORD PTR [rax+4], cx

; 477  : 
; 478  :     /* match offset */
; 479  :     seqStorePtr->sequences[0].offset = offCode + 1;

	mov	rax, QWORD PTR [r15+8]
	mov	DWORD PTR [rax], 1
	mov	rcx, QWORD PTR [r15+8]

; 480  : 
; 481  :     /* match Length */
; 482  :     if (mlBase>0xFFFF) {

	cmp	rdi, 65535				; 0000ffffH
	jbe	SHORT $LN369@ZSTD_compr

; 485  :         seqStorePtr->longLengthPos = (U32)(seqStorePtr->sequences - seqStorePtr->sequencesStart);

	mov	rax, rcx
	mov	DWORD PTR [r15+72], 2
	sub	rax, QWORD PTR [r15]
	sar	rax, 3
	mov	DWORD PTR [r15+76], eax
$LN369@ZSTD_compr:
; File E:\dev\pyzstd\lib\compress\zstd_lazy.c

; 829  :             while (ip <= ilimit) {

	mov	esi, DWORD PTR prefixLowestIndex$1$[rsp]
	lea	rdx, QWORD PTR [r9-8]

; 842  :                     ip += matchLength;

	add	rbx, r14
; File E:\dev\pyzstd\lib\compress\zstd_compress_internal.h

; 487  :     seqStorePtr->sequences[0].matchLength = (U16)mlBase;

	mov	WORD PTR [rcx+6], di

; 488  : 
; 489  :     seqStorePtr->sequences++;

	add	QWORD PTR [r15+8], 8
; File E:\dev\pyzstd\lib\compress\zstd_lazy.c

; 842  :                     ip += matchLength;

	mov	r13, rbx
	cmp	rbx, rdx
	jbe	$LL12@ZSTD_compr
$LN377@ZSTD_compr:
	mov	DWORD PTR offset_2$1$[rsp], ebp
	mov	QWORD PTR src$[rsp], r13

; 829  :             while (ip <= ilimit) {

	jmp	$LN45@ZSTD_compr
ZSTD_compressBlock_btlazy2_dictMatchState ENDP
_TEXT	ENDS
; Function compile flags: /Ogtpy
; File E:\dev\pyzstd\lib\compress\zstd_lazy.c
; File E:\dev\pyzstd\lib\compress\zstd_compress_internal.h
; File E:\dev\pyzstd\lib\compress\zstd_lazy.c
; File E:\dev\pyzstd\lib\compress\zstd_compress_internal.h
; File E:\dev\pyzstd\lib\compress\zstd_lazy.c
; File E:\dev\pyzstd\lib\compress\zstd_compress_internal.h
; File E:\dev\pyzstd\lib\compress\zstd_lazy.c
; File E:\dev\pyzstd\lib\compress\zstd_compress_internal.h
; File E:\dev\pyzstd\lib\compress\zstd_lazy.c
; File E:\dev\pyzstd\lib\compress\zstd_compress_internal.h
; File E:\dev\pyzstd\lib\compress\zstd_lazy.c
; File E:\dev\pyzstd\lib\common\zstd_internal.h
; File E:\dev\pyzstd\lib\compress\zstd_lazy.c
; File E:\dev\pyzstd\lib\common\zstd_internal.h
; File E:\dev\pyzstd\lib\compress\zstd_lazy.c
; File E:\dev\pyzstd\lib\common\zstd_internal.h
; File E:\dev\pyzstd\lib\compress\zstd_lazy.c
; File E:\dev\pyzstd\lib\common\zstd_internal.h
; File E:\dev\pyzstd\lib\compress\zstd_lazy.c
; File E:\dev\pyzstd\lib\common\zstd_internal.h
; File E:\dev\pyzstd\lib\compress\zstd_lazy.c
; File E:\dev\pyzstd\lib\common\zstd_internal.h
; File E:\dev\pyzstd\lib\compress\zstd_lazy.c
; File E:\dev\pyzstd\lib\compress\zstd_compress_internal.h
; File E:\dev\pyzstd\lib\compress\zstd_lazy.c
; File E:\dev\pyzstd\lib\compress\zstd_compress_internal.h
; File E:\dev\pyzstd\lib\compress\zstd_lazy.c
; File E:\dev\pyzstd\lib\compress\zstd_compress_internal.h
; File E:\dev\pyzstd\lib\common\zstd_internal.h
; File E:\dev\pyzstd\lib\compress\zstd_compress_internal.h
; File E:\dev\pyzstd\lib\common\zstd_internal.h
; File E:\dev\pyzstd\lib\compress\zstd_compress_internal.h
; File E:\dev\pyzstd\lib\common\zstd_internal.h
; File E:\dev\pyzstd\lib\compress\zstd_compress_internal.h
; File E:\dev\pyzstd\lib\compress\zstd_lazy.c
; File E:\dev\pyzstd\lib\compress\zstd_compress_internal.h
; File E:\dev\pyzstd\lib\compress\zstd_lazy.c
; File E:\dev\pyzstd\lib\compress\zstd_compress_internal.h
; File E:\dev\pyzstd\lib\compress\zstd_lazy.c
; File E:\dev\pyzstd\lib\compress\zstd_compress_internal.h
; File E:\dev\pyzstd\lib\compress\zstd_lazy.c
; File E:\dev\pyzstd\lib\compress\zstd_compress_internal.h
; File E:\dev\pyzstd\lib\compress\zstd_lazy.c
; File E:\dev\pyzstd\lib\compress\zstd_compress_internal.h
; File E:\dev\pyzstd\lib\compress\zstd_lazy.c
; File E:\dev\pyzstd\lib\compress\zstd_compress_internal.h
; File E:\dev\pyzstd\lib\compress\zstd_lazy.c
; File E:\dev\pyzstd\lib\compress\zstd_compress_internal.h
; File E:\dev\pyzstd\lib\common\zstd_internal.h
; File E:\dev\pyzstd\lib\compress\zstd_compress_internal.h
; File E:\dev\pyzstd\lib\compress\zstd_lazy.c
; File E:\dev\pyzstd\lib\compress\zstd_compress_internal.h
; File E:\dev\pyzstd\lib\compress\zstd_lazy.c
; File E:\dev\pyzstd\lib\compress\zstd_compress_internal.h
; File E:\dev\pyzstd\lib\compress\zstd_lazy.c
_TEXT	SEGMENT
iend$1$ = 32
prefixLowestIndex$1$ = 40
offset_2$1$ = 44
offset$1$ = 48
dictIndexDelta$1$ = 56
base$1$ = 64
prefixLowest$1$ = 72
dictBase$1$ = 80
dictEnd$1$ = 88
offsetFound$1 = 96
offset2$2 = 104
ilimit$1$ = 112
dictLowest$1$ = 120
ms$ = 208
seqStore$ = 216
rep$ = 224
src$ = 232
offset_1$1$ = 240
srcSize$ = 240
ZSTD_compressBlock_lazy_dictMatchState PROC

; 916  : {

$LN389:
	mov	QWORD PTR [rsp+32], r9
	mov	QWORD PTR [rsp+24], r8
	mov	QWORD PTR [rsp+16], rdx
	mov	QWORD PTR [rsp+8], rcx
	push	rbx
	push	rbp
	push	rsi
	push	rdi
	push	r12
	push	r14
	push	r15
	sub	rsp, 144				; 00000090H

; 649  :     U32 offset_1 = rep[0], offset_2 = rep[1], savedOffset=0;

	mov	r12d, DWORD PTR [r8]

; 916  : {

	mov	r10, rcx
	mov	r15, r9
	mov	rbp, rdx

; 635  :     const BYTE* const iend = istart + srcSize;

	mov	r9, QWORD PTR srcSize$[rsp]

; 916  : {

	mov	r14, r8

; 649  :     U32 offset_1 = rep[0], offset_2 = rep[1], savedOffset=0;

	mov	r8d, DWORD PTR [r8+4]
	add	r9, r15

; 650  : 
; 651  :     const ZSTD_matchState_t* const dms = ms->dictMatchState;

	mov	rax, QWORD PTR [r10+176]
	mov	rsi, QWORD PTR [r10+8]
	mov	edx, DWORD PTR [r10+24]
	lea	rcx, QWORD PTR [r9-8]
	mov	QWORD PTR iend$1$[rsp], r9

; 652  :     const U32 dictLowestIndex      = dictMode == ZSTD_dictMatchState ?
; 653  :                                      dms->window.dictLimit : 0;
; 654  :     const BYTE* const dictBase     = dictMode == ZSTD_dictMatchState ?

	mov	r11, QWORD PTR [rax+8]

; 655  :                                      dms->window.base : NULL;
; 656  :     const BYTE* const dictLowest   = dictMode == ZSTD_dictMatchState ?

	mov	edi, DWORD PTR [rax+24]

; 657  :                                      dictBase + dictLowestIndex : NULL;
; 658  :     const BYTE* const dictEnd      = dictMode == ZSTD_dictMatchState ?
; 659  :                                      dms->window.nextSrc : NULL;
; 660  :     const U32 dictIndexDelta       = dictMode == ZSTD_dictMatchState ?

	mov	r10d, r11d
	mov	rax, QWORD PTR [rax]
	lea	rbx, QWORD PTR [rsi+rdx]
	sub	r10d, eax
	mov	QWORD PTR dictEnd$1$[rsp], rax
	add	rdi, r11
	mov	QWORD PTR prefixLowest$1$[rsp], rbx

; 661  :                                      prefixLowestIndex - (U32)(dictEnd - dictBase) :
; 662  :                                      0;
; 663  :     const U32 dictAndPrefixLength = (U32)((ip - prefixLowest) + (dictEnd - dictLowest));
; 664  : 
; 665  :     DEBUGLOG(5, "ZSTD_compressBlock_lazy_generic (dictMode=%u)", (U32)dictMode);
; 666  : 
; 667  :     /* init */
; 668  :     ip += (dictAndPrefixLength == 0);

	sub	eax, edi
	mov	QWORD PTR dictLowest$1$[rsp], rdi
	sub	eax, ebx
	mov	QWORD PTR ilimit$1$[rsp], rcx
	add	r10d, edx
	mov	QWORD PTR base$1$[rsp], rsi
	add	eax, r15d
	mov	DWORD PTR prefixLowestIndex$1$[rsp], edx
	mov	edi, 0
	mov	DWORD PTR offset_1$1$[rsp], r12d
	mov	eax, edi
	mov	DWORD PTR offset_2$1$[rsp], r8d
	sete	al
	mov	QWORD PTR dictBase$1$[rsp], r11
	mov	DWORD PTR dictIndexDelta$1$[rsp], r10d
	lea	rbx, QWORD PTR [rax+r15]
	cmp	rbx, rcx

; 669  :     if (dictMode == ZSTD_noDict) {
; 670  :         U32 const current = (U32)(ip - base);
; 671  :         U32 const windowLow = ZSTD_getLowestPrefixIndex(ms, current, ms->cParams.windowLog);
; 672  :         U32 const maxRep = current - windowLow;
; 673  :         if (offset_2 > maxRep) savedOffset = offset_2, offset_2 = 0;
; 674  :         if (offset_1 > maxRep) savedOffset = offset_1, offset_1 = 0;
; 675  :     }
; 676  :     if (dictMode == ZSTD_dictMatchState) {
; 677  :         /* dictMatchState repCode checks don't currently handle repCode == 0
; 678  :          * disabling. */
; 679  :         assert(offset_1 <= dictAndPrefixLength);
; 680  :         assert(offset_2 <= dictAndPrefixLength);
; 681  :     }
; 682  : 
; 683  :     /* Match Loop */
; 684  : #if defined(__GNUC__) && defined(__x86_64__)
; 685  :     /* I've measured random a 5% speed loss on levels 5 & 6 (greedy) when the
; 686  :      * code alignment is perturbed. To fix the instability align the loop on 32-bytes.
; 687  :      */
; 688  :     __asm__(".p2align 5");
; 689  : #endif
; 690  :     while (ip < ilimit) {

	jae	$LN5@ZSTD_compr
	mov	QWORD PTR [rsp+136], r13
	npad	1
$LL4@ZSTD_compr:

; 691  :         size_t matchLength=0;
; 692  :         size_t offset=0;
; 693  :         const BYTE* start=ip+1;
; 694  : 
; 695  :         /* check repCode */
; 696  :         if (dictMode == ZSTD_dictMatchState) {
; 697  :             const U32 repIndex = (U32)(ip - base) + 1 - offset_1;

	mov	ecx, ebx
	mov	QWORD PTR offset$1$[rsp], rdi
	sub	ecx, esi
	lea	r13, QWORD PTR [rbx+1]
	sub	ecx, r12d
	mov	r14, rdi
	inc	ecx

; 698  :             const BYTE* repMatch = (dictMode == ZSTD_dictMatchState

	cmp	ecx, edx
	jae	SHORT $LN60@ZSTD_compr
	mov	edi, ecx
	sub	edi, r10d
	add	rdi, r11
	jmp	SHORT $LN61@ZSTD_compr
$LN60@ZSTD_compr:
	mov	edi, ecx
	add	rdi, rsi
$LN61@ZSTD_compr:

; 703  :                 && (MEM_read32(repMatch) == MEM_read32(ip+1)) ) {

	mov	eax, edx
	sub	eax, ecx
	dec	eax
	cmp	eax, 3
	jb	SHORT $LN385@ZSTD_compr
	mov	eax, DWORD PTR [r13]
	cmp	DWORD PTR [rdi], eax
	jne	SHORT $LN385@ZSTD_compr

; 704  :                 const BYTE* repMatchEnd = repIndex < prefixLowestIndex ? dictEnd : iend;

	cmp	ecx, edx

; 705  :                 matchLength = ZSTD_count_2segments(ip+1+4, repMatch+4, iend, repMatchEnd, prefixLowest) + 4;

	lea	r12, QWORD PTR [rbx+5]
	mov	rsi, r9
; File E:\dev\pyzstd\lib\compress\zstd_compress_internal.h

; 590  :     const BYTE* const vEnd = MIN( ip + (mEnd - match), iEnd);

	mov	r8, r9
; File E:\dev\pyzstd\lib\compress\zstd_lazy.c

; 704  :                 const BYTE* repMatchEnd = repIndex < prefixLowestIndex ? dictEnd : iend;

	cmovb	rsi, QWORD PTR dictEnd$1$[rsp]
; File E:\dev\pyzstd\lib\compress\zstd_compress_internal.h

; 590  :     const BYTE* const vEnd = MIN( ip + (mEnd - match), iEnd);

	mov	rcx, r12
; File E:\dev\pyzstd\lib\compress\zstd_lazy.c

; 705  :                 matchLength = ZSTD_count_2segments(ip+1+4, repMatch+4, iend, repMatchEnd, prefixLowest) + 4;

	add	rdi, 4
; File E:\dev\pyzstd\lib\compress\zstd_compress_internal.h

; 590  :     const BYTE* const vEnd = MIN( ip + (mEnd - match), iEnd);

	sub	rcx, rdi

; 591  :     size_t const matchLength = ZSTD_count(ip, match, vEnd);

	mov	rdx, rdi
	add	rcx, rsi
	cmp	rcx, r9
	cmovb	r8, rcx
	mov	rcx, r12
	call	ZSTD_count
	mov	r14, rax

; 592  :     if (match + matchLength != mEnd) return matchLength;

	add	rax, rdi
	mov	rdi, QWORD PTR iend$1$[rsp]
	cmp	rax, rsi
	jne	SHORT $LN83@ZSTD_compr

; 593  :     DEBUGLOG(7, "ZSTD_count_2segments: found a 2-parts match (current length==%zu)", matchLength);
; 594  :     DEBUGLOG(7, "distance from match beginning to end dictionary = %zi", mEnd - match);
; 595  :     DEBUGLOG(7, "distance from current pos to end buffer = %zi", iEnd - ip);
; 596  :     DEBUGLOG(7, "next byte : ip==%02X, istart==%02X", ip[matchLength], *iStart);
; 597  :     DEBUGLOG(7, "final match length = %zu", matchLength + ZSTD_count(ip+matchLength, iStart, iEnd));
; 598  :     return matchLength + ZSTD_count(ip+matchLength, iStart, iEnd);

	mov	rdx, QWORD PTR prefixLowest$1$[rsp]
	lea	rcx, QWORD PTR [r14+r12]
	mov	r8, rdi
	call	ZSTD_count
	add	r14, rax
$LN83@ZSTD_compr:
; File E:\dev\pyzstd\lib\compress\zstd_lazy.c

; 703  :                 && (MEM_read32(repMatch) == MEM_read32(ip+1)) ) {

	mov	rsi, QWORD PTR base$1$[rsp]

; 705  :                 matchLength = ZSTD_count_2segments(ip+1+4, repMatch+4, iend, repMatchEnd, prefixLowest) + 4;

	add	r14, 4
	mov	r12d, DWORD PTR offset_1$1$[rsp]
	jmp	SHORT $LN22@ZSTD_compr
$LN385@ZSTD_compr:

; 706  :                 if (depth==0) goto _storeSequence;
; 707  :             }
; 708  :         }
; 709  :         if ( dictMode == ZSTD_noDict
; 710  :           && ((offset_1 > 0) & (MEM_read32(ip+1-offset_1) == MEM_read32(ip+1)))) {
; 711  :             matchLength = ZSTD_count(ip+1+4, ip+1+4-offset_1, iend) + 4;
; 712  :             if (depth==0) goto _storeSequence;
; 713  :         }
; 714  : 
; 715  :         /* first search (depth 0) */
; 716  :         {   size_t offsetFound = 999999999;

	mov	rdi, QWORD PTR iend$1$[rsp]
$LN22@ZSTD_compr:

; 717  :             size_t const ml2 = searchMax(ms, ip, iend, &offsetFound);

	mov	rcx, QWORD PTR ms$[rsp]
	lea	r9, QWORD PTR offsetFound$1[rsp]
	mov	r8, rdi
	mov	QWORD PTR offsetFound$1[rsp], 999999999	; 3b9ac9ffH
	mov	rdx, rbx
	call	ZSTD_HcFindBestMatch_dictMatchState_selectMLS

; 718  :             if (ml2 > matchLength)

	cmp	rax, r14
	jbe	SHORT $LN382@ZSTD_compr

; 719  :                 matchLength = ml2, start = ip, offset=offsetFound;

	mov	r9, QWORD PTR offsetFound$1[rsp]
	mov	r14, rax
	mov	QWORD PTR offset$1$[rsp], r9
	mov	r13, rbx
	jmp	SHORT $LN25@ZSTD_compr
$LN382@ZSTD_compr:

; 718  :             if (ml2 > matchLength)

	mov	r9, QWORD PTR offset$1$[rsp]
$LN25@ZSTD_compr:

; 720  :         }
; 721  : 
; 722  :         if (matchLength < 4) {

	cmp	r14, 4
	jae	SHORT $LN354@ZSTD_compr

; 723  :             ip += ((ip-anchor) >> kSearchStrength) + 1;   /* jump faster over incompressible sections */
; 724  :             continue;

	mov	rdx, QWORD PTR ilimit$1$[rsp]
	mov	rax, rbx
	sub	rax, r15
	inc	rbx
	sar	rax, 8
	add	rbx, rax
	jmp	$LN45@ZSTD_compr
$LN354@ZSTD_compr:

; 725  :         }
; 726  : 
; 727  :         /* let's try to find a better solution */
; 728  :         if (depth>=1)
; 729  :         while (ip<ilimit) {

	lea	rax, QWORD PTR [rdi-8]
	cmp	rbx, rax
	jae	$LN33@ZSTD_compr
	mov	ebp, DWORD PTR prefixLowestIndex$1$[rsp]
	mov	r15, QWORD PTR iend$1$[rsp]
	npad	5
$LL6@ZSTD_compr:

; 730  :             ip ++;

	inc	rbx

; 731  :             if ( (dictMode == ZSTD_noDict)
; 732  :               && (offset) && ((offset_1>0) & (MEM_read32(ip) == MEM_read32(ip - offset_1)))) {
; 733  :                 size_t const mlRep = ZSTD_count(ip+4, ip+4-offset_1, iend) + 4;
; 734  :                 int const gain2 = (int)(mlRep * 3);
; 735  :                 int const gain1 = (int)(matchLength*3 - ZSTD_highbit32((U32)offset+1) + 1);
; 736  :                 if ((mlRep >= 4) && (gain2 > gain1))
; 737  :                     matchLength = mlRep, offset = 0, start = ip;
; 738  :             }
; 739  :             if (dictMode == ZSTD_dictMatchState) {
; 740  :                 const U32 repIndex = (U32)(ip - base) - offset_1;

	mov	ecx, ebx
	sub	ecx, esi
	sub	ecx, r12d

; 741  :                 const BYTE* repMatch = repIndex < prefixLowestIndex ?

	cmp	ecx, ebp
	jae	SHORT $LN62@ZSTD_compr
	mov	edi, ecx
	sub	edi, DWORD PTR dictIndexDelta$1$[rsp]
	add	rdi, QWORD PTR dictBase$1$[rsp]
	jmp	SHORT $LN63@ZSTD_compr
$LN62@ZSTD_compr:
	mov	edi, ecx
	add	rdi, rsi
$LN63@ZSTD_compr:

; 742  :                                dictBase + (repIndex - dictIndexDelta) :
; 743  :                                base + repIndex;
; 744  :                 if (((U32)((prefixLowestIndex-1) - repIndex) >= 3 /* intentional underflow */)
; 745  :                     && (MEM_read32(repMatch) == MEM_read32(ip)) ) {

	mov	eax, ebp
	sub	eax, ecx
	dec	eax
	cmp	eax, 3
	jb	$LN378@ZSTD_compr
	mov	eax, DWORD PTR [rbx]
	cmp	DWORD PTR [rdi], eax
	jne	$LN378@ZSTD_compr

; 746  :                     const BYTE* repMatchEnd = repIndex < prefixLowestIndex ? dictEnd : iend;

	cmp	ecx, ebp
	mov	rsi, r15
; File E:\dev\pyzstd\lib\compress\zstd_compress_internal.h

; 590  :     const BYTE* const vEnd = MIN( ip + (mEnd - match), iEnd);

	lea	rcx, QWORD PTR [rbx+4]
	mov	r8, r15
; File E:\dev\pyzstd\lib\compress\zstd_lazy.c

; 746  :                     const BYTE* repMatchEnd = repIndex < prefixLowestIndex ? dictEnd : iend;

	cmovb	rsi, QWORD PTR dictEnd$1$[rsp]

; 747  :                     size_t const mlRep = ZSTD_count_2segments(ip+4, repMatch+4, iend, repMatchEnd, prefixLowest) + 4;

	add	rdi, 4
; File E:\dev\pyzstd\lib\compress\zstd_compress_internal.h

; 590  :     const BYTE* const vEnd = MIN( ip + (mEnd - match), iEnd);

	sub	rcx, rdi

; 591  :     size_t const matchLength = ZSTD_count(ip, match, vEnd);

	mov	rdx, rdi
	add	rcx, rsi
	cmp	rcx, r15
	cmovb	r8, rcx
	lea	rcx, QWORD PTR [rbx+4]
	call	ZSTD_count
	mov	r12, rax

; 592  :     if (match + matchLength != mEnd) return matchLength;

	add	rax, rdi
	cmp	rax, rsi
	jne	SHORT $LN160@ZSTD_compr

; 593  :     DEBUGLOG(7, "ZSTD_count_2segments: found a 2-parts match (current length==%zu)", matchLength);
; 594  :     DEBUGLOG(7, "distance from match beginning to end dictionary = %zi", mEnd - match);
; 595  :     DEBUGLOG(7, "distance from current pos to end buffer = %zi", iEnd - ip);
; 596  :     DEBUGLOG(7, "next byte : ip==%02X, istart==%02X", ip[matchLength], *iStart);
; 597  :     DEBUGLOG(7, "final match length = %zu", matchLength + ZSTD_count(ip+matchLength, iStart, iEnd));
; 598  :     return matchLength + ZSTD_count(ip+matchLength, iStart, iEnd);

	mov	rdx, QWORD PTR prefixLowest$1$[rsp]
	lea	rcx, QWORD PTR [rbx+4]
	add	rcx, r12
	mov	r8, r15
	call	ZSTD_count
	add	r12, rax
$LN160@ZSTD_compr:
; File E:\dev\pyzstd\lib\compress\zstd_lazy.c

; 749  :                     int const gain1 = (int)(matchLength*3 - ZSTD_highbit32((U32)offset+1) + 1);

	mov	rdi, QWORD PTR offset$1$[rsp]
	lea	rdx, QWORD PTR [r12+4]

; 750  :                     if ((mlRep >= 4) && (gain2 > gain1))

	mov	rsi, QWORD PTR base$1$[rsp]
; File E:\dev\pyzstd\lib\common\zstd_internal.h

; 397  :         unsigned long r=0;

	xor	r8d, r8d
; File E:\dev\pyzstd\lib\compress\zstd_lazy.c

; 750  :                     if ((mlRep >= 4) && (gain2 > gain1))

	mov	r12d, DWORD PTR offset_1$1$[rsp]
	lea	eax, DWORD PTR [rdi+1]
; File E:\dev\pyzstd\lib\common\zstd_internal.h

; 398  :         return _BitScanReverse(&r, val) ? (unsigned)r : 0;

	bsr	ecx, eax
	mov	eax, r8d
	cmovne	eax, ecx
; File E:\dev\pyzstd\lib\compress\zstd_lazy.c

; 749  :                     int const gain1 = (int)(matchLength*3 - ZSTD_highbit32((U32)offset+1) + 1);

	lea	ecx, DWORD PTR [r14+r14*2]
	sub	ecx, eax
	inc	ecx

; 750  :                     if ((mlRep >= 4) && (gain2 > gain1))

	cmp	rdx, 4
	jb	SHORT $LN32@ZSTD_compr
	lea	eax, DWORD PTR [rdx+rdx*2]
	cmp	eax, ecx
	jle	SHORT $LN32@ZSTD_compr

; 751  :                         matchLength = mlRep, offset = 0, start = ip;

	mov	r14, rdx
	mov	QWORD PTR offset$1$[rsp], r8
	mov	edi, r8d
	mov	r13, rbx
	jmp	SHORT $LN32@ZSTD_compr
$LN378@ZSTD_compr:

; 752  :                 }
; 753  :             }
; 754  :             {   size_t offset2=999999999;

	mov	rdi, QWORD PTR offset$1$[rsp]
$LN32@ZSTD_compr:

; 755  :                 size_t const ml2 = searchMax(ms, ip, iend, &offset2);

	mov	rcx, QWORD PTR ms$[rsp]
	lea	r9, QWORD PTR offset2$2[rsp]
	mov	r8, r15
	mov	QWORD PTR offset2$2[rsp], 999999999	; 3b9ac9ffH
	mov	rdx, rbx
	call	ZSTD_HcFindBestMatch_dictMatchState_selectMLS

; 756  :                 int const gain2 = (int)(ml2*4 - ZSTD_highbit32((U32)offset2+1));   /* raw approx */

	mov	r9, QWORD PTR offset2$2[rsp]
	mov	r8, rax
; File E:\dev\pyzstd\lib\common\zstd_internal.h

; 397  :         unsigned long r=0;

	xor	r10d, r10d
; File E:\dev\pyzstd\lib\compress\zstd_lazy.c

; 756  :                 int const gain2 = (int)(ml2*4 - ZSTD_highbit32((U32)offset2+1));   /* raw approx */

	lea	eax, DWORD PTR [r9+1]
; File E:\dev\pyzstd\lib\common\zstd_internal.h

; 398  :         return _BitScanReverse(&r, val) ? (unsigned)r : 0;

	bsr	ecx, eax
	mov	eax, r10d
; File E:\dev\pyzstd\lib\compress\zstd_lazy.c

; 756  :                 int const gain2 = (int)(ml2*4 - ZSTD_highbit32((U32)offset2+1));   /* raw approx */

	lea	edx, DWORD PTR [r8*4]
; File E:\dev\pyzstd\lib\common\zstd_internal.h

; 398  :         return _BitScanReverse(&r, val) ? (unsigned)r : 0;

	cmovne	eax, ecx
; File E:\dev\pyzstd\lib\compress\zstd_lazy.c

; 756  :                 int const gain2 = (int)(ml2*4 - ZSTD_highbit32((U32)offset2+1));   /* raw approx */

	sub	edx, eax

; 757  :                 int const gain1 = (int)(matchLength*4 - ZSTD_highbit32((U32)offset+1) + 4);

	lea	eax, DWORD PTR [rdi+1]
; File E:\dev\pyzstd\lib\common\zstd_internal.h

; 398  :         return _BitScanReverse(&r, val) ? (unsigned)r : 0;

	bsr	ecx, eax
	mov	eax, r10d
	cmovne	eax, ecx
; File E:\dev\pyzstd\lib\compress\zstd_lazy.c

; 757  :                 int const gain1 = (int)(matchLength*4 - ZSTD_highbit32((U32)offset+1) + 4);

	lea	ecx, DWORD PTR [r14*4+4]
	sub	ecx, eax

; 758  :                 if ((ml2 >= 4) && (gain2 > gain1)) {

	cmp	r8, 4
	jb	SHORT $LN381@ZSTD_compr
	cmp	edx, ecx
	jle	SHORT $LN381@ZSTD_compr

; 759  :                     matchLength = ml2, offset = offset2, start = ip;

	lea	rax, QWORD PTR [r15-8]
	mov	QWORD PTR offset$1$[rsp], r9
	mov	r14, r8
	mov	r13, rbx
	cmp	rbx, rax
	jb	$LL6@ZSTD_compr

; 758  :                 if ((ml2 >= 4) && (gain2 > gain1)) {

	jmp	SHORT $LN375@ZSTD_compr
$LN381@ZSTD_compr:
	mov	r9, QWORD PTR offset$1$[rsp]
$LN375@ZSTD_compr:
	mov	rbp, QWORD PTR seqStore$[rsp]
	mov	r15, QWORD PTR src$[rsp]
$LN33@ZSTD_compr:

; 760  :                     continue;   /* search a better one */
; 761  :             }   }
; 762  : 
; 763  :             /* let's find an even better one */
; 764  :             if ((depth==2) && (ip<ilimit)) {
; 765  :                 ip ++;
; 766  :                 if ( (dictMode == ZSTD_noDict)
; 767  :                   && (offset) && ((offset_1>0) & (MEM_read32(ip) == MEM_read32(ip - offset_1)))) {
; 768  :                     size_t const mlRep = ZSTD_count(ip+4, ip+4-offset_1, iend) + 4;
; 769  :                     int const gain2 = (int)(mlRep * 4);
; 770  :                     int const gain1 = (int)(matchLength*4 - ZSTD_highbit32((U32)offset+1) + 1);
; 771  :                     if ((mlRep >= 4) && (gain2 > gain1))
; 772  :                         matchLength = mlRep, offset = 0, start = ip;
; 773  :                 }
; 774  :                 if (dictMode == ZSTD_dictMatchState) {
; 775  :                     const U32 repIndex = (U32)(ip - base) - offset_1;
; 776  :                     const BYTE* repMatch = repIndex < prefixLowestIndex ?
; 777  :                                    dictBase + (repIndex - dictIndexDelta) :
; 778  :                                    base + repIndex;
; 779  :                     if (((U32)((prefixLowestIndex-1) - repIndex) >= 3 /* intentional underflow */)
; 780  :                         && (MEM_read32(repMatch) == MEM_read32(ip)) ) {
; 781  :                         const BYTE* repMatchEnd = repIndex < prefixLowestIndex ? dictEnd : iend;
; 782  :                         size_t const mlRep = ZSTD_count_2segments(ip+4, repMatch+4, iend, repMatchEnd, prefixLowest) + 4;
; 783  :                         int const gain2 = (int)(mlRep * 4);
; 784  :                         int const gain1 = (int)(matchLength*4 - ZSTD_highbit32((U32)offset+1) + 1);
; 785  :                         if ((mlRep >= 4) && (gain2 > gain1))
; 786  :                             matchLength = mlRep, offset = 0, start = ip;
; 787  :                     }
; 788  :                 }
; 789  :                 {   size_t offset2=999999999;
; 790  :                     size_t const ml2 = searchMax(ms, ip, iend, &offset2);
; 791  :                     int const gain2 = (int)(ml2*4 - ZSTD_highbit32((U32)offset2+1));   /* raw approx */
; 792  :                     int const gain1 = (int)(matchLength*4 - ZSTD_highbit32((U32)offset+1) + 7);
; 793  :                     if ((ml2 >= 4) && (gain2 > gain1)) {
; 794  :                         matchLength = ml2, offset = offset2, start = ip;
; 795  :                         continue;
; 796  :             }   }   }
; 797  :             break;  /* nothing found : store previous solution */
; 798  :         }
; 799  : 
; 800  :         /* NOTE:
; 801  :          * start[-offset+ZSTD_REP_MOVE-1] is undefined behavior.
; 802  :          * (-offset+ZSTD_REP_MOVE-1) is unsigned, and is added to start, which
; 803  :          * overflows the pointer, which is undefined behavior.
; 804  :          */
; 805  :         /* catch up */
; 806  :         if (offset) {

	mov	r12d, DWORD PTR prefixLowestIndex$1$[rsp]
	test	r9, r9
	je	SHORT $_storeSequence$390

; 807  :             if (dictMode == ZSTD_noDict) {
; 808  :                 while ( ((start > anchor) & (start - (offset-ZSTD_REP_MOVE) > prefixLowest))
; 809  :                      && (start[-1] == (start-(offset-ZSTD_REP_MOVE))[-1]) )  /* only search for offset within prefix */
; 810  :                     { start--; matchLength++; }
; 811  :             }
; 812  :             if (dictMode == ZSTD_dictMatchState) {
; 813  :                 U32 const matchIndex = (U32)((start-base) - (offset - ZSTD_REP_MOVE));

	mov	edx, r13d
	sub	edx, r9d
	sub	edx, esi
	add	edx, 2
	mov	ecx, edx

; 814  :                 const BYTE* match = (matchIndex < prefixLowestIndex) ? dictBase + matchIndex - dictIndexDelta : base + matchIndex;

	cmp	edx, r12d
	jae	SHORT $LN66@ZSTD_compr
	mov	eax, DWORD PTR dictIndexDelta$1$[rsp]
	sub	rcx, rax
	add	rcx, QWORD PTR dictBase$1$[rsp]
	jmp	SHORT $LN67@ZSTD_compr
$LN66@ZSTD_compr:
	add	rcx, rsi
$LN67@ZSTD_compr:

; 815  :                 const BYTE* const mStart = (matchIndex < prefixLowestIndex) ? dictLowest : prefixLowest;

	mov	r8, QWORD PTR prefixLowest$1$[rsp]
	cmp	edx, r12d
	cmovb	r8, QWORD PTR dictLowest$1$[rsp]

; 816  :                 while ((start>anchor) && (match>mStart) && (start[-1] == match[-1])) { start--; match--; matchLength++; }  /* catch up */

	cmp	r13, r15
	jbe	SHORT $LN376@ZSTD_compr
	npad	4
$LL10@ZSTD_compr:
	cmp	rcx, r8
	jbe	SHORT $LN376@ZSTD_compr
	movzx	eax, BYTE PTR [rcx-1]
	lea	rdx, QWORD PTR [r13-1]
	cmp	BYTE PTR [rdx], al
	jne	SHORT $LN376@ZSTD_compr
	dec	rcx
	inc	r14
	mov	r13, rdx
	cmp	rdx, r15
	ja	SHORT $LL10@ZSTD_compr
$LN376@ZSTD_compr:

; 817  :             }
; 818  :             offset_2 = offset_1; offset_1 = (U32)(offset - ZSTD_REP_MOVE);

	mov	r8d, DWORD PTR offset_1$1$[rsp]
	lea	eax, DWORD PTR [r9-2]
	mov	DWORD PTR offset_1$1$[rsp], eax
	mov	DWORD PTR offset_2$1$[rsp], r8d
$_storeSequence$390:
; File E:\dev\pyzstd\lib\compress\zstd_compress_internal.h

; 441  :     BYTE const* const litLimit_w = litLimit - WILDCOPY_OVERLENGTH;

	mov	r10, QWORD PTR iend$1$[rsp]
; File E:\dev\pyzstd\lib\compress\zstd_lazy.c

; 823  :             ZSTD_storeSeq(seqStore, litLength, anchor, iend, (U32)offset, matchLength-MINMATCH);

	lea	rdi, QWORD PTR [r14-3]
; File E:\dev\pyzstd\lib\compress\zstd_compress_internal.h

; 442  :     BYTE const* const litEnd = literals + litLength;

	mov	rcx, QWORD PTR [rbp+24]
; File E:\dev\pyzstd\lib\compress\zstd_lazy.c

; 822  :         {   size_t const litLength = start - anchor;

	mov	rbx, r13
	sub	rbx, r15
; File E:\dev\pyzstd\lib\compress\zstd_compress_internal.h

; 441  :     BYTE const* const litLimit_w = litLimit - WILDCOPY_OVERLENGTH;

	lea	rdx, QWORD PTR [r10-32]

; 442  :     BYTE const* const litEnd = literals + litLength;

	lea	r8, QWORD PTR [rbx+r15]

; 456  :     if (litEnd <= litLimit_w) {

	cmp	r8, rdx
	ja	SHORT $LN222@ZSTD_compr
; File E:\dev\pyzstd\lib\common\zstd_internal.h

; 243  :     memcpy(dst, src, 16);

	movups	xmm0, XMMWORD PTR [r15]
	movups	XMMWORD PTR [rcx], xmm0
; File E:\dev\pyzstd\lib\compress\zstd_compress_internal.h

; 462  :         if (litLength > 16) {

	cmp	rbx, 16
	jbe	SHORT $LN223@ZSTD_compr

; 463  :             ZSTD_wildcopy(seqStorePtr->lit+16, literals+16, (ptrdiff_t)litLength-16, ZSTD_no_overlap);

	mov	rax, QWORD PTR [rbp+24]
; File E:\dev\pyzstd\lib\common\zstd_internal.h

; 270  :     BYTE* const oend = op + length;

	lea	rcx, QWORD PTR [rbx-16]
; File E:\dev\pyzstd\lib\compress\zstd_compress_internal.h

; 463  :             ZSTD_wildcopy(seqStorePtr->lit+16, literals+16, (ptrdiff_t)litLength-16, ZSTD_no_overlap);

	add	rax, 16
	add	r15, 16
; File E:\dev\pyzstd\lib\common\zstd_internal.h

; 270  :     BYTE* const oend = op + length;

	add	rcx, rax
	npad	9
$LL236@ZSTD_compr:

; 243  :     memcpy(dst, src, 16);

	movups	xmm0, XMMWORD PTR [r15]

; 289  :             COPY16(op, ip);

	lea	r15, QWORD PTR [r15+16]

; 243  :     memcpy(dst, src, 16);

	movups	XMMWORD PTR [rax], xmm0

; 289  :             COPY16(op, ip);

	add	rax, 16

; 290  :         }
; 291  :         while (op < oend);

	cmp	rax, rcx
	jb	SHORT $LL236@ZSTD_compr
; File E:\dev\pyzstd\lib\compress\zstd_compress_internal.h

; 465  :     } else {

	jmp	SHORT $LN223@ZSTD_compr
$LN222@ZSTD_compr:

; 466  :         ZSTD_safecopyLiterals(seqStorePtr->lit, literals, litEnd, litLimit_w);

	mov	r9, rdx
	mov	rdx, r15
	call	ZSTD_safecopyLiterals
	mov	r9, QWORD PTR offset$1$[rsp]
	mov	r10, QWORD PTR iend$1$[rsp]
$LN223@ZSTD_compr:

; 467  :     }
; 468  :     seqStorePtr->lit += litLength;

	add	QWORD PTR [rbp+24], rbx

; 469  : 
; 470  :     /* literal Length */
; 471  :     if (litLength>0xFFFF) {

	mov	rcx, QWORD PTR [rbp+8]
	cmp	rbx, 65535				; 0000ffffH
	jbe	SHORT $LN225@ZSTD_compr

; 472  :         assert(seqStorePtr->longLengthID == 0); /* there can only be a single long length */
; 473  :         seqStorePtr->longLengthID = 1;
; 474  :         seqStorePtr->longLengthPos = (U32)(seqStorePtr->sequences - seqStorePtr->sequencesStart);

	mov	rax, rcx
	mov	DWORD PTR [rbp+72], 1
	sub	rax, QWORD PTR [rbp]
	sar	rax, 3
	mov	DWORD PTR [rbp+76], eax
$LN225@ZSTD_compr:

; 475  :     }
; 476  :     seqStorePtr->sequences[0].litLength = (U16)litLength;

	mov	WORD PTR [rcx+4], bx

; 477  : 
; 478  :     /* match offset */
; 479  :     seqStorePtr->sequences[0].offset = offCode + 1;

	lea	ecx, DWORD PTR [r9+1]
	mov	rax, QWORD PTR [rbp+8]
	mov	DWORD PTR [rax], ecx
	mov	rcx, QWORD PTR [rbp+8]

; 480  : 
; 481  :     /* match Length */
; 482  :     if (mlBase>0xFFFF) {

	cmp	rdi, 65535				; 0000ffffH
	jbe	SHORT $LN368@ZSTD_compr

; 485  :         seqStorePtr->longLengthPos = (U32)(seqStorePtr->sequences - seqStorePtr->sequencesStart);

	mov	rax, rcx
	mov	DWORD PTR [rbp+72], 2
	sub	rax, QWORD PTR [rbp]
	sar	rax, 3
	mov	DWORD PTR [rbp+76], eax
$LN368@ZSTD_compr:
; File E:\dev\pyzstd\lib\compress\zstd_lazy.c

; 824  :             anchor = ip = start + matchLength;

	lea	r15, QWORD PTR [r14+r13]
; File E:\dev\pyzstd\lib\compress\zstd_compress_internal.h

; 487  :     seqStorePtr->sequences[0].matchLength = (U16)mlBase;

	mov	WORD PTR [rcx+6], di

; 489  :     seqStorePtr->sequences++;

	add	QWORD PTR [rbp+8], 8
; File E:\dev\pyzstd\lib\compress\zstd_lazy.c

; 824  :             anchor = ip = start + matchLength;

	lea	rdx, QWORD PTR [r10-8]
	mov	QWORD PTR src$[rsp], r15
	mov	rbx, r15
	cmp	r15, rdx

; 829  :             while (ip <= ilimit) {

	ja	$LN45@ZSTD_compr
	mov	r8d, DWORD PTR offset_2$1$[rsp]
; File E:\dev\pyzstd\lib\compress\zstd_compress_internal.h

; 485  :         seqStorePtr->longLengthPos = (U32)(seqStorePtr->sequences - seqStorePtr->sequencesStart);

	mov	QWORD PTR src$[rsp], r15
$LL12@ZSTD_compr:
; File E:\dev\pyzstd\lib\compress\zstd_lazy.c

; 831  :                 U32 const repIndex = current2 - offset_2;

	mov	ecx, ebx
	mov	r13d, r8d
	sub	ecx, esi
	sub	ecx, r8d
	mov	edi, ecx

; 832  :                 const BYTE* repMatch = dictMode == ZSTD_dictMatchState

	cmp	ecx, r12d
	jae	SHORT $LN68@ZSTD_compr
	mov	eax, DWORD PTR dictIndexDelta$1$[rsp]
	sub	rdi, rax
	add	rdi, QWORD PTR dictBase$1$[rsp]
	jmp	SHORT $LN69@ZSTD_compr
$LN68@ZSTD_compr:
	add	rdi, rsi
$LN69@ZSTD_compr:

; 833  :                     && repIndex < prefixLowestIndex ?
; 834  :                         dictBase - dictIndexDelta + repIndex :
; 835  :                         base + repIndex;
; 836  :                 if ( ((U32)((prefixLowestIndex-1) - (U32)repIndex) >= 3 /* intentional overflow */)
; 837  :                    && (MEM_read32(repMatch) == MEM_read32(ip)) ) {

	mov	eax, r12d
	sub	eax, ecx
	dec	eax
	cmp	eax, 3
	jb	$LN377@ZSTD_compr
	mov	eax, DWORD PTR [rbx]
	cmp	DWORD PTR [rdi], eax
	jne	$LN377@ZSTD_compr

; 838  :                     const BYTE* const repEnd2 = repIndex < prefixLowestIndex ? dictEnd : iend;

	cmp	ecx, r12d
	mov	rsi, r10

; 839  :                     matchLength = ZSTD_count_2segments(ip+4, repMatch+4, iend, repEnd2, prefixLowest) + 4;

	lea	r12, QWORD PTR [rbx+4]
; File E:\dev\pyzstd\lib\compress\zstd_compress_internal.h

; 590  :     const BYTE* const vEnd = MIN( ip + (mEnd - match), iEnd);

	mov	r8, r10
; File E:\dev\pyzstd\lib\compress\zstd_lazy.c

; 838  :                     const BYTE* const repEnd2 = repIndex < prefixLowestIndex ? dictEnd : iend;

	cmovb	rsi, QWORD PTR dictEnd$1$[rsp]
; File E:\dev\pyzstd\lib\compress\zstd_compress_internal.h

; 590  :     const BYTE* const vEnd = MIN( ip + (mEnd - match), iEnd);

	mov	rcx, r12
; File E:\dev\pyzstd\lib\compress\zstd_lazy.c

; 839  :                     matchLength = ZSTD_count_2segments(ip+4, repMatch+4, iend, repEnd2, prefixLowest) + 4;

	add	rdi, 4
; File E:\dev\pyzstd\lib\compress\zstd_compress_internal.h

; 590  :     const BYTE* const vEnd = MIN( ip + (mEnd - match), iEnd);

	sub	rcx, rdi

; 591  :     size_t const matchLength = ZSTD_count(ip, match, vEnd);

	mov	rdx, rdi
	add	rcx, rsi
	cmp	rcx, r10
	cmovb	r8, rcx
	mov	rcx, r12
	call	ZSTD_count
	mov	r14, rax

; 592  :     if (match + matchLength != mEnd) return matchLength;

	add	rax, rdi
	cmp	rax, rsi
	jne	SHORT $LN248@ZSTD_compr

; 593  :     DEBUGLOG(7, "ZSTD_count_2segments: found a 2-parts match (current length==%zu)", matchLength);
; 594  :     DEBUGLOG(7, "distance from match beginning to end dictionary = %zi", mEnd - match);
; 595  :     DEBUGLOG(7, "distance from current pos to end buffer = %zi", iEnd - ip);
; 596  :     DEBUGLOG(7, "next byte : ip==%02X, istart==%02X", ip[matchLength], *iStart);
; 597  :     DEBUGLOG(7, "final match length = %zu", matchLength + ZSTD_count(ip+matchLength, iStart, iEnd));
; 598  :     return matchLength + ZSTD_count(ip+matchLength, iStart, iEnd);

	mov	r8, QWORD PTR iend$1$[rsp]
	lea	rcx, QWORD PTR [r14+r12]
	mov	rdx, QWORD PTR prefixLowest$1$[rsp]
	call	ZSTD_count
	add	r14, rax
$LN248@ZSTD_compr:
; File E:\dev\pyzstd\lib\compress\zstd_lazy.c

; 840  :                     offset = offset_2; offset_2 = offset_1; offset_1 = (U32)offset;   /* swap offset_2 <=> offset_1 */

	mov	r8d, DWORD PTR offset_1$1$[rsp]
	add	r14, 4
; File E:\dev\pyzstd\lib\compress\zstd_compress_internal.h

; 456  :     if (litEnd <= litLimit_w) {

	mov	r10, QWORD PTR iend$1$[rsp]
	mov	rcx, QWORD PTR [rbp+24]
; File E:\dev\pyzstd\lib\compress\zstd_lazy.c

; 840  :                     offset = offset_2; offset_2 = offset_1; offset_1 = (U32)offset;   /* swap offset_2 <=> offset_1 */

	mov	DWORD PTR offset_2$1$[rsp], r8d
	mov	DWORD PTR offset_1$1$[rsp], r13d

; 841  :                     ZSTD_storeSeq(seqStore, 0, anchor, iend, 0, matchLength-MINMATCH);

	lea	rdi, QWORD PTR [r14-3]
; File E:\dev\pyzstd\lib\compress\zstd_compress_internal.h

; 456  :     if (litEnd <= litLimit_w) {

	lea	rdx, QWORD PTR [r10-32]
	cmp	r15, rdx
	ja	SHORT $LN254@ZSTD_compr
; File E:\dev\pyzstd\lib\common\zstd_internal.h

; 243  :     memcpy(dst, src, 16);

	movups	xmm0, XMMWORD PTR [r15]
	movups	XMMWORD PTR [rcx], xmm0
; File E:\dev\pyzstd\lib\compress\zstd_compress_internal.h

; 465  :     } else {

	jmp	SHORT $LN255@ZSTD_compr
$LN254@ZSTD_compr:

; 466  :         ZSTD_safecopyLiterals(seqStorePtr->lit, literals, litEnd, litLimit_w);

	mov	r9, rdx
	mov	r8, r15
	mov	rdx, r15
	call	ZSTD_safecopyLiterals
	mov	r10, QWORD PTR iend$1$[rsp]
	mov	r8d, DWORD PTR offset_2$1$[rsp]
$LN255@ZSTD_compr:

; 475  :     }
; 476  :     seqStorePtr->sequences[0].litLength = (U16)litLength;

	mov	rax, QWORD PTR [rbp+8]
	xor	ecx, ecx
	mov	WORD PTR [rax+4], cx

; 477  : 
; 478  :     /* match offset */
; 479  :     seqStorePtr->sequences[0].offset = offCode + 1;

	mov	rax, QWORD PTR [rbp+8]
	mov	DWORD PTR [rax], 1
	mov	rcx, QWORD PTR [rbp+8]

; 480  : 
; 481  :     /* match Length */
; 482  :     if (mlBase>0xFFFF) {

	cmp	rdi, 65535				; 0000ffffH
	jbe	SHORT $LN369@ZSTD_compr

; 485  :         seqStorePtr->longLengthPos = (U32)(seqStorePtr->sequences - seqStorePtr->sequencesStart);

	mov	rax, rcx
	mov	DWORD PTR [rbp+72], 2
	sub	rax, QWORD PTR [rbp]
	sar	rax, 3
	mov	DWORD PTR [rbp+76], eax
$LN369@ZSTD_compr:
; File E:\dev\pyzstd\lib\compress\zstd_lazy.c

; 829  :             while (ip <= ilimit) {

	mov	r12d, DWORD PTR prefixLowestIndex$1$[rsp]
	lea	rdx, QWORD PTR [r10-8]
	mov	rsi, QWORD PTR base$1$[rsp]

; 842  :                     ip += matchLength;

	add	rbx, r14
; File E:\dev\pyzstd\lib\compress\zstd_compress_internal.h

; 487  :     seqStorePtr->sequences[0].matchLength = (U16)mlBase;

	mov	WORD PTR [rcx+6], di
; File E:\dev\pyzstd\lib\compress\zstd_lazy.c

; 842  :                     ip += matchLength;

	mov	r15, rbx
; File E:\dev\pyzstd\lib\compress\zstd_compress_internal.h

; 489  :     seqStorePtr->sequences++;

	add	QWORD PTR [rbp+8], 8
; File E:\dev\pyzstd\lib\compress\zstd_lazy.c

; 829  :             while (ip <= ilimit) {

	cmp	rbx, rdx
	jbe	$LL12@ZSTD_compr
$LN377@ZSTD_compr:
	mov	QWORD PTR src$[rsp], r15
$LN45@ZSTD_compr:

; 669  :     if (dictMode == ZSTD_noDict) {
; 670  :         U32 const current = (U32)(ip - base);
; 671  :         U32 const windowLow = ZSTD_getLowestPrefixIndex(ms, current, ms->cParams.windowLog);
; 672  :         U32 const maxRep = current - windowLow;
; 673  :         if (offset_2 > maxRep) savedOffset = offset_2, offset_2 = 0;
; 674  :         if (offset_1 > maxRep) savedOffset = offset_1, offset_1 = 0;
; 675  :     }
; 676  :     if (dictMode == ZSTD_dictMatchState) {
; 677  :         /* dictMatchState repCode checks don't currently handle repCode == 0
; 678  :          * disabling. */
; 679  :         assert(offset_1 <= dictAndPrefixLength);
; 680  :         assert(offset_2 <= dictAndPrefixLength);
; 681  :     }
; 682  : 
; 683  :     /* Match Loop */
; 684  : #if defined(__GNUC__) && defined(__x86_64__)
; 685  :     /* I've measured random a 5% speed loss on levels 5 & 6 (greedy) when the
; 686  :      * code alignment is perturbed. To fix the instability align the loop on 32-bytes.
; 687  :      */
; 688  :     __asm__(".p2align 5");
; 689  : #endif
; 690  :     while (ip < ilimit) {

	mov	r9, QWORD PTR iend$1$[rsp]
	cmp	rbx, rdx
	mov	edx, DWORD PTR prefixLowestIndex$1$[rsp]
	mov	edi, 0
	mov	r12d, DWORD PTR offset_1$1$[rsp]
	mov	r10d, DWORD PTR dictIndexDelta$1$[rsp]
	mov	r11, QWORD PTR dictBase$1$[rsp]
	jb	$LL4@ZSTD_compr
	mov	r8d, DWORD PTR offset_2$1$[rsp]
	mov	r14, QWORD PTR rep$[rsp]
	mov	r13, QWORD PTR [rsp+136]
$LN5@ZSTD_compr:

; 865  : 
; 866  :     /* Return the last literals size */
; 867  :     return (size_t)(iend - anchor);

	sub	r9, r15
	mov	DWORD PTR [r14], r12d

; 917  :     return ZSTD_compressBlock_lazy_generic(ms, seqStore, rep, src, srcSize, search_hashChain, 1, ZSTD_dictMatchState);

	mov	rax, r9

; 864  :     rep[1] = offset_2 ? offset_2 : savedOffset;

	mov	DWORD PTR [r14+4], r8d

; 918  : }

	add	rsp, 144				; 00000090H
	pop	r15
	pop	r14
	pop	r12
	pop	rdi
	pop	rsi
	pop	rbp
	pop	rbx
	ret	0
ZSTD_compressBlock_lazy_dictMatchState ENDP
_TEXT	ENDS
; Function compile flags: /Ogtpy
; File E:\dev\pyzstd\lib\compress\zstd_lazy.c
_TEXT	SEGMENT
ms$ = 8
ip$ = 16
ZSTD_insertAndFindFirstIndex PROC

; 474  :     const ZSTD_compressionParameters* const cParams = &ms->cParams;
; 475  :     return ZSTD_insertAndFindFirstIndex_internal(ms, cParams, ip, ms->cParams.minMatch);

	mov	r9d, DWORD PTR [rcx+200]
	mov	r8, rdx
	lea	rdx, QWORD PTR [rcx+184]
	jmp	ZSTD_insertAndFindFirstIndex_internal
ZSTD_insertAndFindFirstIndex ENDP
_TEXT	ENDS
; Function compile flags: /Ogtpy
; File E:\dev\pyzstd\lib\compress\zstd_lazy.c
; File E:\dev\pyzstd\lib\compress\zstd_compress_internal.h
; File E:\dev\pyzstd\lib\compress\zstd_lazy.c
; File E:\dev\pyzstd\lib\compress\zstd_compress_internal.h
; File E:\dev\pyzstd\lib\compress\zstd_lazy.c
; File E:\dev\pyzstd\lib\compress\zstd_compress_internal.h
; File E:\dev\pyzstd\lib\compress\zstd_lazy.c
; File E:\dev\pyzstd\lib\compress\zstd_compress_internal.h
; File E:\dev\pyzstd\lib\compress\zstd_lazy.c
; File E:\dev\pyzstd\lib\compress\zstd_compress_internal.h
; File E:\dev\pyzstd\lib\compress\zstd_lazy.c
; File E:\dev\pyzstd\lib\compress\zstd_compress_internal.h
; File E:\dev\pyzstd\lib\common\zstd_internal.h
; File E:\dev\pyzstd\lib\compress\zstd_compress_internal.h
; File E:\dev\pyzstd\lib\common\zstd_internal.h
; File E:\dev\pyzstd\lib\compress\zstd_compress_internal.h
; File E:\dev\pyzstd\lib\compress\zstd_lazy.c
; File E:\dev\pyzstd\lib\compress\zstd_compress_internal.h
; File E:\dev\pyzstd\lib\compress\zstd_lazy.c
; File E:\dev\pyzstd\lib\compress\zstd_compress_internal.h
; File E:\dev\pyzstd\lib\compress\zstd_lazy.c
; File E:\dev\pyzstd\lib\compress\zstd_compress_internal.h
; File E:\dev\pyzstd\lib\compress\zstd_lazy.c
; File E:\dev\pyzstd\lib\compress\zstd_compress_internal.h
; File E:\dev\pyzstd\lib\common\zstd_internal.h
; File E:\dev\pyzstd\lib\compress\zstd_compress_internal.h
; File E:\dev\pyzstd\lib\compress\zstd_lazy.c
; File E:\dev\pyzstd\lib\compress\zstd_compress_internal.h
; File E:\dev\pyzstd\lib\compress\zstd_lazy.c
_TEXT	SEGMENT
offsetFound$1 = 32
offset$1$ = 40
ilimit$1$ = 48
prefixLowest$1$ = 56
ms$ = 128
seqStore$ = 136
rep$ = 144
iend$1$ = 152
src$ = 152
tv2175 = 160
srcSize$ = 160
ZSTD_compressBlock_greedy PROC

; 895  : {

$LN376:
	mov	QWORD PTR [rsp+16], rbx
	mov	QWORD PTR [rsp+24], r8
	mov	QWORD PTR [rsp+8], rcx
	push	rbp
	push	rsi
	push	rdi
	push	r12
	push	r13
	push	r14
	push	r15
	sub	rsp, 64					; 00000040H

; 644  :     searchMax_f const searchMax = dictMode == ZSTD_dictMatchState ?

	mov	r11d, DWORD PTR [r8]

; 645  :         (searchMethod==search_binaryTree ? ZSTD_BtFindBestMatch_dictMatchState_selectMLS
; 646  :                                          : ZSTD_HcFindBestMatch_dictMatchState_selectMLS) :
; 647  :         (searchMethod==search_binaryTree ? ZSTD_BtFindBestMatch_selectMLS
; 648  :                                          : ZSTD_HcFindBestMatch_selectMLS);
; 649  :     U32 offset_1 = rep[0], offset_2 = rep[1], savedOffset=0;
; 650  : 
; 651  :     const ZSTD_matchState_t* const dms = ms->dictMatchState;
; 652  :     const U32 dictLowestIndex      = dictMode == ZSTD_dictMatchState ?
; 653  :                                      dms->window.dictLimit : 0;
; 654  :     const BYTE* const dictBase     = dictMode == ZSTD_dictMatchState ?
; 655  :                                      dms->window.base : NULL;
; 656  :     const BYTE* const dictLowest   = dictMode == ZSTD_dictMatchState ?
; 657  :                                      dictBase + dictLowestIndex : NULL;
; 658  :     const BYTE* const dictEnd      = dictMode == ZSTD_dictMatchState ?
; 659  :                                      dms->window.nextSrc : NULL;
; 660  :     const U32 dictIndexDelta       = dictMode == ZSTD_dictMatchState ?
; 661  :                                      prefixLowestIndex - (U32)(dictEnd - dictBase) :
; 662  :                                      0;
; 663  :     const U32 dictAndPrefixLength = (U32)((ip - prefixLowest) + (dictEnd - dictLowest));
; 664  : 
; 665  :     DEBUGLOG(5, "ZSTD_compressBlock_lazy_generic (dictMode=%u)", (U32)dictMode);
; 666  : 
; 667  :     /* init */
; 668  :     ip += (dictAndPrefixLength == 0);

	xor	ebp, ebp
	mov	r10d, DWORD PTR [r8+4]

; 895  : {

	mov	r15, rcx

; 635  :     const BYTE* const iend = istart + srcSize;

	mov	r12, QWORD PTR srcSize$[rsp]

; 895  : {

	mov	rdi, r9

; 635  :     const BYTE* const iend = istart + srcSize;

	add	r12, r9

; 645  :         (searchMethod==search_binaryTree ? ZSTD_BtFindBestMatch_dictMatchState_selectMLS
; 646  :                                          : ZSTD_HcFindBestMatch_dictMatchState_selectMLS) :
; 647  :         (searchMethod==search_binaryTree ? ZSTD_BtFindBestMatch_selectMLS
; 648  :                                          : ZSTD_HcFindBestMatch_selectMLS);
; 649  :     U32 offset_1 = rep[0], offset_2 = rep[1], savedOffset=0;
; 650  : 
; 651  :     const ZSTD_matchState_t* const dms = ms->dictMatchState;
; 652  :     const U32 dictLowestIndex      = dictMode == ZSTD_dictMatchState ?
; 653  :                                      dms->window.dictLimit : 0;
; 654  :     const BYTE* const dictBase     = dictMode == ZSTD_dictMatchState ?
; 655  :                                      dms->window.base : NULL;
; 656  :     const BYTE* const dictLowest   = dictMode == ZSTD_dictMatchState ?
; 657  :                                      dictBase + dictLowestIndex : NULL;
; 658  :     const BYTE* const dictEnd      = dictMode == ZSTD_dictMatchState ?
; 659  :                                      dms->window.nextSrc : NULL;
; 660  :     const U32 dictIndexDelta       = dictMode == ZSTD_dictMatchState ?
; 661  :                                      prefixLowestIndex - (U32)(dictEnd - dictBase) :
; 662  :                                      0;
; 663  :     const U32 dictAndPrefixLength = (U32)((ip - prefixLowest) + (dictEnd - dictLowest));
; 664  : 
; 665  :     DEBUGLOG(5, "ZSTD_compressBlock_lazy_generic (dictMode=%u)", (U32)dictMode);
; 666  : 
; 667  :     /* init */
; 668  :     ip += (dictAndPrefixLength == 0);

	mov	eax, ebp
	mov	r9d, DWORD PTR [rcx+24]

; 895  : {

	mov	rbx, rdx

; 637  :     const BYTE* const base = ms->window.base;

	mov	rdx, QWORD PTR [rcx+8]
; File E:\dev\pyzstd\lib\compress\zstd_compress_internal.h

; 991  :     U32    const maxDistance = 1U << windowLog;

	mov	ecx, DWORD PTR [rcx+184]
; File E:\dev\pyzstd\lib\compress\zstd_lazy.c

; 636  :     const BYTE* const ilimit = iend - 8;

	lea	r14, QWORD PTR [r12-8]
	mov	QWORD PTR iend$1$[rsp], r12
	mov	QWORD PTR ilimit$1$[rsp], r14

; 638  :     const U32 prefixLowestIndex = ms->window.dictLimit;
; 639  :     const BYTE* const prefixLowest = base + prefixLowestIndex;

	lea	rsi, QWORD PTR [rdx+r9]

; 645  :         (searchMethod==search_binaryTree ? ZSTD_BtFindBestMatch_dictMatchState_selectMLS
; 646  :                                          : ZSTD_HcFindBestMatch_dictMatchState_selectMLS) :
; 647  :         (searchMethod==search_binaryTree ? ZSTD_BtFindBestMatch_selectMLS
; 648  :                                          : ZSTD_HcFindBestMatch_selectMLS);
; 649  :     U32 offset_1 = rep[0], offset_2 = rep[1], savedOffset=0;
; 650  : 
; 651  :     const ZSTD_matchState_t* const dms = ms->dictMatchState;
; 652  :     const U32 dictLowestIndex      = dictMode == ZSTD_dictMatchState ?
; 653  :                                      dms->window.dictLimit : 0;
; 654  :     const BYTE* const dictBase     = dictMode == ZSTD_dictMatchState ?
; 655  :                                      dms->window.base : NULL;
; 656  :     const BYTE* const dictLowest   = dictMode == ZSTD_dictMatchState ?
; 657  :                                      dictBase + dictLowestIndex : NULL;
; 658  :     const BYTE* const dictEnd      = dictMode == ZSTD_dictMatchState ?
; 659  :                                      dms->window.nextSrc : NULL;
; 660  :     const U32 dictIndexDelta       = dictMode == ZSTD_dictMatchState ?
; 661  :                                      prefixLowestIndex - (U32)(dictEnd - dictBase) :
; 662  :                                      0;
; 663  :     const U32 dictAndPrefixLength = (U32)((ip - prefixLowest) + (dictEnd - dictLowest));
; 664  : 
; 665  :     DEBUGLOG(5, "ZSTD_compressBlock_lazy_generic (dictMode=%u)", (U32)dictMode);
; 666  : 
; 667  :     /* init */
; 668  :     ip += (dictAndPrefixLength == 0);

	cmp	edi, esi
	mov	QWORD PTR prefixLowest$1$[rsp], rsi
	sete	al
	lea	rsi, QWORD PTR [rax+rdi]

; 669  :     if (dictMode == ZSTD_noDict) {
; 670  :         U32 const current = (U32)(ip - base);

	mov	r8d, esi
	sub	r8d, edx
; File E:\dev\pyzstd\lib\compress\zstd_compress_internal.h

; 991  :     U32    const maxDistance = 1U << windowLog;

	mov	edx, 1
	shl	edx, cl

; 992  :     U32    const lowestValid = ms->window.dictLimit;
; 993  :     U32    const withinWindow = (current - lowestValid > maxDistance) ? current - maxDistance : lowestValid;

	mov	eax, r8d
	sub	eax, r9d

; 994  :     U32    const isDictionary = (ms->loadedDictEnd != 0);

	mov	ecx, r8d
	sub	ecx, edx
	cmp	eax, edx
; File E:\dev\pyzstd\lib\compress\zstd_lazy.c

; 690  :     while (ip < ilimit) {

	mov	eax, r11d
; File E:\dev\pyzstd\lib\compress\zstd_compress_internal.h

; 994  :     U32    const isDictionary = (ms->loadedDictEnd != 0);

	cmovbe	ecx, r9d
	cmp	DWORD PTR [r15+32], ebp

; 995  :     U32    const matchLowest = isDictionary ? lowestValid : withinWindow;

	cmovne	ecx, r9d
; File E:\dev\pyzstd\lib\compress\zstd_lazy.c

; 674  :         if (offset_1 > maxRep) savedOffset = offset_1, offset_1 = 0;

	xor	r9d, r9d
	sub	r8d, ecx

; 690  :     while (ip < ilimit) {

	mov	r13d, r9d
	cmp	r10d, r8d
	cmovbe	ebp, r10d
	cmovbe	r10d, r9d
	cmp	r11d, r8d
	cmovbe	eax, r10d
	cmovbe	r13d, r11d
	mov	DWORD PTR tv2175[rsp], eax
	cmp	rsi, r14
	jae	$LN5@ZSTD_compr
	npad	9
$LL4@ZSTD_compr:

; 691  :         size_t matchLength=0;
; 692  :         size_t offset=0;
; 693  :         const BYTE* start=ip+1;
; 694  : 
; 695  :         /* check repCode */
; 696  :         if (dictMode == ZSTD_dictMatchState) {
; 697  :             const U32 repIndex = (U32)(ip - base) + 1 - offset_1;
; 698  :             const BYTE* repMatch = (dictMode == ZSTD_dictMatchState
; 699  :                                 && repIndex < prefixLowestIndex) ?
; 700  :                                    dictBase + (repIndex - dictIndexDelta) :
; 701  :                                    base + repIndex;
; 702  :             if (((U32)((prefixLowestIndex-1) - repIndex) >= 3 /* intentional underflow */)
; 703  :                 && (MEM_read32(repMatch) == MEM_read32(ip+1)) ) {
; 704  :                 const BYTE* repMatchEnd = repIndex < prefixLowestIndex ? dictEnd : iend;
; 705  :                 matchLength = ZSTD_count_2segments(ip+1+4, repMatch+4, iend, repMatchEnd, prefixLowest) + 4;
; 706  :                 if (depth==0) goto _storeSequence;
; 707  :             }
; 708  :         }
; 709  :         if ( dictMode == ZSTD_noDict
; 710  :           && ((offset_1 > 0) & (MEM_read32(ip+1-offset_1) == MEM_read32(ip+1)))) {

	mov	eax, r13d
	lea	r14, QWORD PTR [rsi+1]
	mov	ecx, r9d
	mov	QWORD PTR offset$1$[rsp], r9
	mov	rdx, rsi
	mov	r8, r12
	sub	rdx, rax
	mov	eax, DWORD PTR [r14]
	cmp	DWORD PTR [rdx+1], eax
	mov	eax, r9d
	sete	cl
	test	r13d, r13d
	setne	al
	test	ecx, eax
	je	SHORT $LN24@ZSTD_compr

; 711  :             matchLength = ZSTD_count(ip+1+4, ip+1+4-offset_1, iend) + 4;

	add	rdx, 5
	lea	rcx, QWORD PTR [rsi+5]
	call	ZSTD_count
	lea	r15, QWORD PTR [rax+4]

; 712  :             if (depth==0) goto _storeSequence;

	jmp	$_storeSequence$377
$LN24@ZSTD_compr:

; 713  :         }
; 714  : 
; 715  :         /* first search (depth 0) */
; 716  :         {   size_t offsetFound = 999999999;
; 717  :             size_t const ml2 = searchMax(ms, ip, iend, &offsetFound);

	lea	r9, QWORD PTR offsetFound$1[rsp]
	mov	QWORD PTR offsetFound$1[rsp], 999999999	; 3b9ac9ffH
	mov	rdx, rsi
	mov	rcx, r15
	call	ZSTD_HcFindBestMatch_selectMLS
	mov	r15, rax

; 718  :             if (ml2 > matchLength)

	test	rax, rax
	je	$LN370@ZSTD_compr

; 719  :                 matchLength = ml2, start = ip, offset=offsetFound;

	mov	r8, QWORD PTR offsetFound$1[rsp]
	mov	r14, rsi
	mov	QWORD PTR offset$1$[rsp], r8

; 720  :         }
; 721  : 
; 722  :         if (matchLength < 4) {

	cmp	rax, 4
	jb	$LN370@ZSTD_compr

; 724  :             continue;
; 725  :         }
; 726  : 
; 727  :         /* let's try to find a better solution */
; 728  :         if (depth>=1)
; 729  :         while (ip<ilimit) {
; 730  :             ip ++;
; 731  :             if ( (dictMode == ZSTD_noDict)
; 732  :               && (offset) && ((offset_1>0) & (MEM_read32(ip) == MEM_read32(ip - offset_1)))) {
; 733  :                 size_t const mlRep = ZSTD_count(ip+4, ip+4-offset_1, iend) + 4;
; 734  :                 int const gain2 = (int)(mlRep * 3);
; 735  :                 int const gain1 = (int)(matchLength*3 - ZSTD_highbit32((U32)offset+1) + 1);
; 736  :                 if ((mlRep >= 4) && (gain2 > gain1))
; 737  :                     matchLength = mlRep, offset = 0, start = ip;
; 738  :             }
; 739  :             if (dictMode == ZSTD_dictMatchState) {
; 740  :                 const U32 repIndex = (U32)(ip - base) - offset_1;
; 741  :                 const BYTE* repMatch = repIndex < prefixLowestIndex ?
; 742  :                                dictBase + (repIndex - dictIndexDelta) :
; 743  :                                base + repIndex;
; 744  :                 if (((U32)((prefixLowestIndex-1) - repIndex) >= 3 /* intentional underflow */)
; 745  :                     && (MEM_read32(repMatch) == MEM_read32(ip)) ) {
; 746  :                     const BYTE* repMatchEnd = repIndex < prefixLowestIndex ? dictEnd : iend;
; 747  :                     size_t const mlRep = ZSTD_count_2segments(ip+4, repMatch+4, iend, repMatchEnd, prefixLowest) + 4;
; 748  :                     int const gain2 = (int)(mlRep * 3);
; 749  :                     int const gain1 = (int)(matchLength*3 - ZSTD_highbit32((U32)offset+1) + 1);
; 750  :                     if ((mlRep >= 4) && (gain2 > gain1))
; 751  :                         matchLength = mlRep, offset = 0, start = ip;
; 752  :                 }
; 753  :             }
; 754  :             {   size_t offset2=999999999;
; 755  :                 size_t const ml2 = searchMax(ms, ip, iend, &offset2);
; 756  :                 int const gain2 = (int)(ml2*4 - ZSTD_highbit32((U32)offset2+1));   /* raw approx */
; 757  :                 int const gain1 = (int)(matchLength*4 - ZSTD_highbit32((U32)offset+1) + 4);
; 758  :                 if ((ml2 >= 4) && (gain2 > gain1)) {
; 759  :                     matchLength = ml2, offset = offset2, start = ip;
; 760  :                     continue;   /* search a better one */
; 761  :             }   }
; 762  : 
; 763  :             /* let's find an even better one */
; 764  :             if ((depth==2) && (ip<ilimit)) {
; 765  :                 ip ++;
; 766  :                 if ( (dictMode == ZSTD_noDict)
; 767  :                   && (offset) && ((offset_1>0) & (MEM_read32(ip) == MEM_read32(ip - offset_1)))) {
; 768  :                     size_t const mlRep = ZSTD_count(ip+4, ip+4-offset_1, iend) + 4;
; 769  :                     int const gain2 = (int)(mlRep * 4);
; 770  :                     int const gain1 = (int)(matchLength*4 - ZSTD_highbit32((U32)offset+1) + 1);
; 771  :                     if ((mlRep >= 4) && (gain2 > gain1))
; 772  :                         matchLength = mlRep, offset = 0, start = ip;
; 773  :                 }
; 774  :                 if (dictMode == ZSTD_dictMatchState) {
; 775  :                     const U32 repIndex = (U32)(ip - base) - offset_1;
; 776  :                     const BYTE* repMatch = repIndex < prefixLowestIndex ?
; 777  :                                    dictBase + (repIndex - dictIndexDelta) :
; 778  :                                    base + repIndex;
; 779  :                     if (((U32)((prefixLowestIndex-1) - repIndex) >= 3 /* intentional underflow */)
; 780  :                         && (MEM_read32(repMatch) == MEM_read32(ip)) ) {
; 781  :                         const BYTE* repMatchEnd = repIndex < prefixLowestIndex ? dictEnd : iend;
; 782  :                         size_t const mlRep = ZSTD_count_2segments(ip+4, repMatch+4, iend, repMatchEnd, prefixLowest) + 4;
; 783  :                         int const gain2 = (int)(mlRep * 4);
; 784  :                         int const gain1 = (int)(matchLength*4 - ZSTD_highbit32((U32)offset+1) + 1);
; 785  :                         if ((mlRep >= 4) && (gain2 > gain1))
; 786  :                             matchLength = mlRep, offset = 0, start = ip;
; 787  :                     }
; 788  :                 }
; 789  :                 {   size_t offset2=999999999;
; 790  :                     size_t const ml2 = searchMax(ms, ip, iend, &offset2);
; 791  :                     int const gain2 = (int)(ml2*4 - ZSTD_highbit32((U32)offset2+1));   /* raw approx */
; 792  :                     int const gain1 = (int)(matchLength*4 - ZSTD_highbit32((U32)offset+1) + 7);
; 793  :                     if ((ml2 >= 4) && (gain2 > gain1)) {
; 794  :                         matchLength = ml2, offset = offset2, start = ip;
; 795  :                         continue;
; 796  :             }   }   }
; 797  :             break;  /* nothing found : store previous solution */
; 798  :         }
; 799  : 
; 800  :         /* NOTE:
; 801  :          * start[-offset+ZSTD_REP_MOVE-1] is undefined behavior.
; 802  :          * (-offset+ZSTD_REP_MOVE-1) is unsigned, and is added to start, which
; 803  :          * overflows the pointer, which is undefined behavior.
; 804  :          */
; 805  :         /* catch up */
; 806  :         if (offset) {

	test	r8, r8
	je	SHORT $_storeSequence$377

; 807  :             if (dictMode == ZSTD_noDict) {
; 808  :                 while ( ((start > anchor) & (start - (offset-ZSTD_REP_MOVE) > prefixLowest))
; 809  :                      && (start[-1] == (start-(offset-ZSTD_REP_MOVE))[-1]) )  /* only search for offset within prefix */

	mov	r9, QWORD PTR prefixLowest$1$[rsp]
	xor	ebp, ebp
	mov	ecx, ebp
	mov	eax, ebp
	mov	rdx, rsi
	sub	rdx, r8
	add	rdx, 2
	cmp	rdx, r9
	seta	cl
	cmp	rsi, rdi
	seta	al
	test	ecx, eax
	je	SHORT $LN372@ZSTD_compr
	npad	6
$LL8@ZSTD_compr:
	movzx	eax, BYTE PTR [rdx-1]
	cmp	BYTE PTR [r8+rdx-3], al
	jne	SHORT $LN372@ZSTD_compr

; 810  :                     { start--; matchLength++; }

	dec	r14
	dec	rdx
	inc	r15
	mov	ecx, ebp
	cmp	rdx, r9
	mov	eax, ebp
	seta	cl
	cmp	r14, rdi
	seta	al
	test	ecx, eax
	jne	SHORT $LL8@ZSTD_compr
$LN372@ZSTD_compr:

; 811  :             }
; 812  :             if (dictMode == ZSTD_dictMatchState) {
; 813  :                 U32 const matchIndex = (U32)((start-base) - (offset - ZSTD_REP_MOVE));
; 814  :                 const BYTE* match = (matchIndex < prefixLowestIndex) ? dictBase + matchIndex - dictIndexDelta : base + matchIndex;
; 815  :                 const BYTE* const mStart = (matchIndex < prefixLowestIndex) ? dictLowest : prefixLowest;
; 816  :                 while ((start>anchor) && (match>mStart) && (start[-1] == match[-1])) { start--; match--; matchLength++; }  /* catch up */
; 817  :             }
; 818  :             offset_2 = offset_1; offset_1 = (U32)(offset - ZSTD_REP_MOVE);

	mov	ebp, r13d
	lea	r13d, DWORD PTR [r8-2]
$_storeSequence$377:
; File E:\dev\pyzstd\lib\compress\zstd_compress_internal.h

; 442  :     BYTE const* const litEnd = literals + litLength;

	mov	rcx, QWORD PTR [rbx+24]
; File E:\dev\pyzstd\lib\compress\zstd_lazy.c

; 823  :             ZSTD_storeSeq(seqStore, litLength, anchor, iend, (U32)offset, matchLength-MINMATCH);

	lea	rdx, QWORD PTR [r15-3]
	mov	rsi, r14
; File E:\dev\pyzstd\lib\compress\zstd_compress_internal.h

; 441  :     BYTE const* const litLimit_w = litLimit - WILDCOPY_OVERLENGTH;

	add	r12, -32				; ffffffffffffffe0H
; File E:\dev\pyzstd\lib\compress\zstd_lazy.c

; 822  :         {   size_t const litLength = start - anchor;

	sub	rsi, rdi
; File E:\dev\pyzstd\lib\compress\zstd_compress_internal.h

; 442  :     BYTE const* const litEnd = literals + litLength;

	lea	r8, QWORD PTR [rsi+rdi]

; 456  :     if (litEnd <= litLimit_w) {

	cmp	r8, r12
	ja	SHORT $LN222@ZSTD_compr
; File E:\dev\pyzstd\lib\common\zstd_internal.h

; 243  :     memcpy(dst, src, 16);

	movups	xmm0, XMMWORD PTR [rdi]
	movups	XMMWORD PTR [rcx], xmm0
; File E:\dev\pyzstd\lib\compress\zstd_compress_internal.h

; 462  :         if (litLength > 16) {

	cmp	rsi, 16
	jbe	SHORT $LN223@ZSTD_compr

; 463  :             ZSTD_wildcopy(seqStorePtr->lit+16, literals+16, (ptrdiff_t)litLength-16, ZSTD_no_overlap);

	mov	rax, QWORD PTR [rbx+24]
	add	rdi, 16
	add	rax, 16
; File E:\dev\pyzstd\lib\common\zstd_internal.h

; 270  :     BYTE* const oend = op + length;

	lea	rcx, QWORD PTR [rax-16]
	add	rcx, rsi
	npad	7
$LL236@ZSTD_compr:

; 243  :     memcpy(dst, src, 16);

	movups	xmm0, XMMWORD PTR [rdi]

; 289  :             COPY16(op, ip);

	lea	rdi, QWORD PTR [rdi+16]

; 243  :     memcpy(dst, src, 16);

	movups	XMMWORD PTR [rax], xmm0

; 289  :             COPY16(op, ip);

	add	rax, 16

; 290  :         }
; 291  :         while (op < oend);

	cmp	rax, rcx
	jb	SHORT $LL236@ZSTD_compr
; File E:\dev\pyzstd\lib\compress\zstd_compress_internal.h

; 465  :     } else {

	jmp	SHORT $LN223@ZSTD_compr
$LN222@ZSTD_compr:

; 466  :         ZSTD_safecopyLiterals(seqStorePtr->lit, literals, litEnd, litLimit_w);

	mov	r9, r12
	mov	rdx, rdi
	call	ZSTD_safecopyLiterals
	lea	rdx, QWORD PTR [r15-3]
$LN223@ZSTD_compr:

; 467  :     }
; 468  :     seqStorePtr->lit += litLength;

	add	QWORD PTR [rbx+24], rsi

; 469  : 
; 470  :     /* literal Length */
; 471  :     if (litLength>0xFFFF) {

	mov	rcx, QWORD PTR [rbx+8]
	cmp	rsi, 65535				; 0000ffffH
	jbe	SHORT $LN225@ZSTD_compr

; 472  :         assert(seqStorePtr->longLengthID == 0); /* there can only be a single long length */
; 473  :         seqStorePtr->longLengthID = 1;
; 474  :         seqStorePtr->longLengthPos = (U32)(seqStorePtr->sequences - seqStorePtr->sequencesStart);

	mov	rax, rcx
	mov	DWORD PTR [rbx+72], 1
	sub	rax, QWORD PTR [rbx]
	sar	rax, 3
	mov	DWORD PTR [rbx+76], eax
$LN225@ZSTD_compr:

; 475  :     }
; 476  :     seqStorePtr->sequences[0].litLength = (U16)litLength;

	mov	WORD PTR [rcx+4], si

; 477  : 
; 478  :     /* match offset */
; 479  :     seqStorePtr->sequences[0].offset = offCode + 1;

	mov	rcx, QWORD PTR offset$1$[rsp]
	mov	rax, QWORD PTR [rbx+8]
	inc	ecx
	mov	DWORD PTR [rax], ecx

; 480  : 
; 481  :     /* match Length */
; 482  :     if (mlBase>0xFFFF) {

	cmp	rdx, 65535				; 0000ffffH
	jbe	SHORT $LN371@ZSTD_compr

; 483  :         assert(seqStorePtr->longLengthID == 0); /* there can only be a single long length */
; 484  :         seqStorePtr->longLengthID = 2;
; 485  :         seqStorePtr->longLengthPos = (U32)(seqStorePtr->sequences - seqStorePtr->sequencesStart);

	mov	rax, QWORD PTR [rbx+8]
	sub	rax, QWORD PTR [rbx]
	sar	rax, 3
	mov	DWORD PTR [rbx+76], eax
	mov	DWORD PTR [rbx+72], 2
$LN371@ZSTD_compr:

; 487  :     seqStorePtr->sequences[0].matchLength = (U16)mlBase;

	mov	rax, QWORD PTR [rbx+8]
; File E:\dev\pyzstd\lib\compress\zstd_lazy.c

; 824  :             anchor = ip = start + matchLength;

	lea	rdi, QWORD PTR [r14+r15]

; 852  :                  && (MEM_read32(ip) == MEM_read32(ip - offset_2)) ) {

	xor	r9d, r9d
	mov	rsi, rdi
	mov	ecx, r9d
; File E:\dev\pyzstd\lib\compress\zstd_compress_internal.h

; 487  :     seqStorePtr->sequences[0].matchLength = (U16)mlBase;

	mov	WORD PTR [rax+6], dx
; File E:\dev\pyzstd\lib\compress\zstd_lazy.c

; 852  :                  && (MEM_read32(ip) == MEM_read32(ip - offset_2)) ) {

	mov	eax, r9d
; File E:\dev\pyzstd\lib\compress\zstd_compress_internal.h

; 489  :     seqStorePtr->sequences++;

	add	QWORD PTR [rbx+8], 8
; File E:\dev\pyzstd\lib\compress\zstd_lazy.c

; 824  :             anchor = ip = start + matchLength;

	cmp	rdi, QWORD PTR ilimit$1$[rsp]

; 852  :                  && (MEM_read32(ip) == MEM_read32(ip - offset_2)) ) {

	setbe	cl
	test	ebp, ebp
	setne	al
	test	ecx, eax
	je	$LN374@ZSTD_compr
	npad	6
$LL14@ZSTD_compr:
	mov	eax, ebp
	mov	rdx, rsi
	sub	rdx, rax
	mov	r15d, ebp
	mov	eax, DWORD PTR [rdx]
	cmp	DWORD PTR [rsi], eax
	jne	$LN374@ZSTD_compr

; 853  :                 /* store sequence */
